
lab16.elf:     file format elf32-avr

Sections:
Idx Name          Size      VMA       LMA       File off  Algn
  0 .text         00005648  00000000  00000000  00000094  2**1
                  CONTENTS, ALLOC, LOAD, READONLY, CODE
  1 .data         0000013c  00800060  00005648  000056dc  2**0
                  CONTENTS, ALLOC, LOAD, DATA
  2 .bss          00000036  0080019c  0080019c  00005818  2**0
                  ALLOC
  3 .debug_aranges 000003d8  00000000  00000000  00005818  2**0
                  CONTENTS, READONLY, DEBUGGING
  4 .debug_pubnames 000008f0  00000000  00000000  00005bf0  2**0
                  CONTENTS, READONLY, DEBUGGING
  5 .debug_info   0000368c  00000000  00000000  000064e0  2**0
                  CONTENTS, READONLY, DEBUGGING
  6 .debug_abbrev 00000e80  00000000  00000000  00009b6c  2**0
                  CONTENTS, READONLY, DEBUGGING
  7 .debug_line   00002424  00000000  00000000  0000a9ec  2**0
                  CONTENTS, READONLY, DEBUGGING
  8 .debug_frame  00000650  00000000  00000000  0000ce10  2**2
                  CONTENTS, READONLY, DEBUGGING
  9 .debug_str    00000c76  00000000  00000000  0000d460  2**0
                  CONTENTS, READONLY, DEBUGGING
 10 .debug_loc    000041a5  00000000  00000000  0000e0d6  2**0
                  CONTENTS, READONLY, DEBUGGING
 11 .debug_ranges 00000368  00000000  00000000  0001227b  2**0
                  CONTENTS, READONLY, DEBUGGING

Disassembly of section .text:

00000000 <__vectors>:
       0:	0c 94 2a 00 	jmp	0x54	; 0x54 <__ctors_end>
       4:	0c 94 37 28 	jmp	0x506e	; 0x506e <__vector_1>
       8:	0c 94 60 28 	jmp	0x50c0	; 0x50c0 <__vector_2>
       c:	0c 94 89 28 	jmp	0x5112	; 0x5112 <__vector_3>
      10:	0c 94 85 27 	jmp	0x4f0a	; 0x4f0a <__vector_4>
      14:	0c 94 5c 27 	jmp	0x4eb8	; 0x4eb8 <__vector_5>
      18:	0c 94 33 27 	jmp	0x4e66	; 0x4e66 <__vector_6>
      1c:	0c 94 0a 27 	jmp	0x4e14	; 0x4e14 <__vector_7>
      20:	0c 94 e1 26 	jmp	0x4dc2	; 0x4dc2 <__vector_8>
      24:	0c 94 b8 26 	jmp	0x4d70	; 0x4d70 <__vector_9>
      28:	0c 94 8f 26 	jmp	0x4d1e	; 0x4d1e <__vector_10>
      2c:	0c 94 66 26 	jmp	0x4ccc	; 0x4ccc <__vector_11>
      30:	0c 94 47 00 	jmp	0x8e	; 0x8e <__bad_interrupt>
      34:	0c 94 47 00 	jmp	0x8e	; 0x8e <__bad_interrupt>
      38:	0c 94 47 00 	jmp	0x8e	; 0x8e <__bad_interrupt>
      3c:	0c 94 47 00 	jmp	0x8e	; 0x8e <__bad_interrupt>
      40:	0c 94 47 00 	jmp	0x8e	; 0x8e <__bad_interrupt>
      44:	0c 94 47 00 	jmp	0x8e	; 0x8e <__bad_interrupt>
      48:	0c 94 47 00 	jmp	0x8e	; 0x8e <__bad_interrupt>
      4c:	0c 94 47 00 	jmp	0x8e	; 0x8e <__bad_interrupt>
      50:	0c 94 47 00 	jmp	0x8e	; 0x8e <__bad_interrupt>

00000054 <__ctors_end>:
      54:	11 24       	eor	r1, r1
      56:	1f be       	out	0x3f, r1	; 63
      58:	cf e5       	ldi	r28, 0x5F	; 95
      5a:	d8 e0       	ldi	r29, 0x08	; 8
      5c:	de bf       	out	0x3e, r29	; 62
      5e:	cd bf       	out	0x3d, r28	; 61

00000060 <__do_copy_data>:
      60:	11 e0       	ldi	r17, 0x01	; 1
      62:	a0 e6       	ldi	r26, 0x60	; 96
      64:	b0 e0       	ldi	r27, 0x00	; 0
      66:	e8 e4       	ldi	r30, 0x48	; 72
      68:	f6 e5       	ldi	r31, 0x56	; 86
      6a:	02 c0       	rjmp	.+4      	; 0x70 <.do_copy_data_start>

0000006c <.do_copy_data_loop>:
      6c:	05 90       	lpm	r0, Z+
      6e:	0d 92       	st	X+, r0

00000070 <.do_copy_data_start>:
      70:	ac 39       	cpi	r26, 0x9C	; 156
      72:	b1 07       	cpc	r27, r17
      74:	d9 f7       	brne	.-10     	; 0x6c <.do_copy_data_loop>

00000076 <__do_clear_bss>:
      76:	11 e0       	ldi	r17, 0x01	; 1
      78:	ac e9       	ldi	r26, 0x9C	; 156
      7a:	b1 e0       	ldi	r27, 0x01	; 1
      7c:	01 c0       	rjmp	.+2      	; 0x80 <.do_clear_bss_start>

0000007e <.do_clear_bss_loop>:
      7e:	1d 92       	st	X+, r1

00000080 <.do_clear_bss_start>:
      80:	a2 3d       	cpi	r26, 0xD2	; 210
      82:	b1 07       	cpc	r27, r17
      84:	e1 f7       	brne	.-8      	; 0x7e <.do_clear_bss_loop>
      86:	0e 94 10 20 	call	0x4020	; 0x4020 <main>
      8a:	0c 94 22 2b 	jmp	0x5644	; 0x5644 <_exit>

0000008e <__bad_interrupt>:
      8e:	0c 94 00 00 	jmp	0	; 0x0 <__vectors>

00000092 <__ashldi3>:
      92:	ef 92       	push	r14
      94:	ff 92       	push	r15
      96:	0f 93       	push	r16
      98:	df 93       	push	r29
      9a:	cf 93       	push	r28
      9c:	cd b7       	in	r28, 0x3d	; 61
      9e:	de b7       	in	r29, 0x3e	; 62
      a0:	60 97       	sbiw	r28, 0x10	; 16
      a2:	0f b6       	in	r0, 0x3f	; 63
      a4:	f8 94       	cli
      a6:	de bf       	out	0x3e, r29	; 62
      a8:	0f be       	out	0x3f, r0	; 63
      aa:	cd bf       	out	0x3d, r28	; 61
      ac:	a8 2f       	mov	r26, r24
      ae:	00 23       	and	r16, r16
      b0:	09 f4       	brne	.+2      	; 0xb4 <__ashldi3+0x22>
      b2:	61 c0       	rjmp	.+194    	; 0x176 <__ashldi3+0xe4>
      b4:	7e 01       	movw	r14, r28
      b6:	08 94       	sec
      b8:	e1 1c       	adc	r14, r1
      ba:	f1 1c       	adc	r15, r1
      bc:	88 e0       	ldi	r24, 0x08	; 8
      be:	f7 01       	movw	r30, r14
      c0:	11 92       	st	Z+, r1
      c2:	8a 95       	dec	r24
      c4:	e9 f7       	brne	.-6      	; 0xc0 <__ashldi3+0x2e>
      c6:	29 83       	std	Y+1, r18	; 0x01
      c8:	3a 83       	std	Y+2, r19	; 0x02
      ca:	4b 83       	std	Y+3, r20	; 0x03
      cc:	5c 83       	std	Y+4, r21	; 0x04
      ce:	6d 83       	std	Y+5, r22	; 0x05
      d0:	7e 83       	std	Y+6, r23	; 0x06
      d2:	af 83       	std	Y+7, r26	; 0x07
      d4:	98 87       	std	Y+8, r25	; 0x08
      d6:	80 e2       	ldi	r24, 0x20	; 32
      d8:	80 1b       	sub	r24, r16
      da:	e8 2f       	mov	r30, r24
      dc:	ff 27       	eor	r31, r31
      de:	e7 fd       	sbrc	r30, 7
      e0:	f0 95       	com	r31
      e2:	49 81       	ldd	r20, Y+1	; 0x01
      e4:	5a 81       	ldd	r21, Y+2	; 0x02
      e6:	6b 81       	ldd	r22, Y+3	; 0x03
      e8:	7c 81       	ldd	r23, Y+4	; 0x04
      ea:	18 16       	cp	r1, r24
      ec:	84 f0       	brlt	.+32     	; 0x10e <__ashldi3+0x7c>
      ee:	19 86       	std	Y+9, r1	; 0x09
      f0:	1a 86       	std	Y+10, r1	; 0x0a
      f2:	1b 86       	std	Y+11, r1	; 0x0b
      f4:	1c 86       	std	Y+12, r1	; 0x0c
      f6:	88 27       	eor	r24, r24
      f8:	99 27       	eor	r25, r25
      fa:	8e 1b       	sub	r24, r30
      fc:	9f 0b       	sbc	r25, r31
      fe:	04 c0       	rjmp	.+8      	; 0x108 <__ashldi3+0x76>
     100:	44 0f       	add	r20, r20
     102:	55 1f       	adc	r21, r21
     104:	66 1f       	adc	r22, r22
     106:	77 1f       	adc	r23, r23
     108:	8a 95       	dec	r24
     10a:	d2 f7       	brpl	.-12     	; 0x100 <__ashldi3+0x6e>
     10c:	28 c0       	rjmp	.+80     	; 0x15e <__ashldi3+0xcc>
     10e:	20 2f       	mov	r18, r16
     110:	33 27       	eor	r19, r19
     112:	27 fd       	sbrc	r18, 7
     114:	30 95       	com	r19
     116:	db 01       	movw	r26, r22
     118:	ca 01       	movw	r24, r20
     11a:	02 2e       	mov	r0, r18
     11c:	04 c0       	rjmp	.+8      	; 0x126 <__ashldi3+0x94>
     11e:	88 0f       	add	r24, r24
     120:	99 1f       	adc	r25, r25
     122:	aa 1f       	adc	r26, r26
     124:	bb 1f       	adc	r27, r27
     126:	0a 94       	dec	r0
     128:	d2 f7       	brpl	.-12     	; 0x11e <__ashldi3+0x8c>
     12a:	89 87       	std	Y+9, r24	; 0x09
     12c:	9a 87       	std	Y+10, r25	; 0x0a
     12e:	ab 87       	std	Y+11, r26	; 0x0b
     130:	bc 87       	std	Y+12, r27	; 0x0c
     132:	04 c0       	rjmp	.+8      	; 0x13c <__ashldi3+0xaa>
     134:	76 95       	lsr	r23
     136:	67 95       	ror	r22
     138:	57 95       	ror	r21
     13a:	47 95       	ror	r20
     13c:	ea 95       	dec	r30
     13e:	d2 f7       	brpl	.-12     	; 0x134 <__ashldi3+0xa2>
     140:	8d 81       	ldd	r24, Y+5	; 0x05
     142:	9e 81       	ldd	r25, Y+6	; 0x06
     144:	af 81       	ldd	r26, Y+7	; 0x07
     146:	b8 85       	ldd	r27, Y+8	; 0x08
     148:	04 c0       	rjmp	.+8      	; 0x152 <__ashldi3+0xc0>
     14a:	88 0f       	add	r24, r24
     14c:	99 1f       	adc	r25, r25
     14e:	aa 1f       	adc	r26, r26
     150:	bb 1f       	adc	r27, r27
     152:	2a 95       	dec	r18
     154:	d2 f7       	brpl	.-12     	; 0x14a <__ashldi3+0xb8>
     156:	48 2b       	or	r20, r24
     158:	59 2b       	or	r21, r25
     15a:	6a 2b       	or	r22, r26
     15c:	7b 2b       	or	r23, r27
     15e:	4d 87       	std	Y+13, r20	; 0x0d
     160:	5e 87       	std	Y+14, r21	; 0x0e
     162:	6f 87       	std	Y+15, r22	; 0x0f
     164:	78 8b       	std	Y+16, r23	; 0x10
     166:	29 85       	ldd	r18, Y+9	; 0x09
     168:	3a 85       	ldd	r19, Y+10	; 0x0a
     16a:	4b 85       	ldd	r20, Y+11	; 0x0b
     16c:	5c 85       	ldd	r21, Y+12	; 0x0c
     16e:	6d 85       	ldd	r22, Y+13	; 0x0d
     170:	7e 85       	ldd	r23, Y+14	; 0x0e
     172:	af 85       	ldd	r26, Y+15	; 0x0f
     174:	98 89       	ldd	r25, Y+16	; 0x10
     176:	8a 2f       	mov	r24, r26
     178:	60 96       	adiw	r28, 0x10	; 16
     17a:	0f b6       	in	r0, 0x3f	; 63
     17c:	f8 94       	cli
     17e:	de bf       	out	0x3e, r29	; 62
     180:	0f be       	out	0x3f, r0	; 63
     182:	cd bf       	out	0x3d, r28	; 61
     184:	cf 91       	pop	r28
     186:	df 91       	pop	r29
     188:	0f 91       	pop	r16
     18a:	ff 90       	pop	r15
     18c:	ef 90       	pop	r14
     18e:	08 95       	ret

00000190 <__divdi3>:
     190:	a2 e7       	ldi	r26, 0x72	; 114
     192:	b0 e0       	ldi	r27, 0x00	; 0
     194:	ee ec       	ldi	r30, 0xCE	; 206
     196:	f0 e0       	ldi	r31, 0x00	; 0
     198:	0c 94 eb 2a 	jmp	0x55d6	; 0x55d6 <__prologue_saves__>
     19c:	98 2e       	mov	r9, r24
     19e:	89 2e       	mov	r8, r25
     1a0:	71 2e       	mov	r7, r17
     1a2:	88 e0       	ldi	r24, 0x08	; 8
     1a4:	fe 01       	movw	r30, r28
     1a6:	31 96       	adiw	r30, 0x01	; 1
     1a8:	df 01       	movw	r26, r30
     1aa:	68 2e       	mov	r6, r24
     1ac:	1d 92       	st	X+, r1
     1ae:	6a 94       	dec	r6
     1b0:	e9 f7       	brne	.-6      	; 0x1ac <__divdi3+0x1c>
     1b2:	29 83       	std	Y+1, r18	; 0x01
     1b4:	3a 83       	std	Y+2, r19	; 0x02
     1b6:	4b 83       	std	Y+3, r20	; 0x03
     1b8:	5c 83       	std	Y+4, r21	; 0x04
     1ba:	6d 83       	std	Y+5, r22	; 0x05
     1bc:	7e 83       	std	Y+6, r23	; 0x06
     1be:	9f 82       	std	Y+7, r9	; 0x07
     1c0:	98 87       	std	Y+8, r25	; 0x08
     1c2:	fe 01       	movw	r30, r28
     1c4:	39 96       	adiw	r30, 0x09	; 9
     1c6:	df 01       	movw	r26, r30
     1c8:	1d 92       	st	X+, r1
     1ca:	8a 95       	dec	r24
     1cc:	e9 f7       	brne	.-6      	; 0x1c8 <__divdi3+0x38>
     1ce:	a9 86       	std	Y+9, r10	; 0x09
     1d0:	ba 86       	std	Y+10, r11	; 0x0a
     1d2:	cb 86       	std	Y+11, r12	; 0x0b
     1d4:	dc 86       	std	Y+12, r13	; 0x0c
     1d6:	ed 86       	std	Y+13, r14	; 0x0d
     1d8:	fe 86       	std	Y+14, r15	; 0x0e
     1da:	0f 87       	std	Y+15, r16	; 0x0f
     1dc:	18 8b       	std	Y+16, r17	; 0x10
     1de:	8d 81       	ldd	r24, Y+5	; 0x05
     1e0:	9e 81       	ldd	r25, Y+6	; 0x06
     1e2:	af 81       	ldd	r26, Y+7	; 0x07
     1e4:	b8 85       	ldd	r27, Y+8	; 0x08
     1e6:	b7 fd       	sbrc	r27, 7
     1e8:	07 c0       	rjmp	.+14     	; 0x1f8 <__divdi3+0x68>
     1ea:	e1 96       	adiw	r28, 0x31	; 49
     1ec:	1c ae       	std	Y+60, r1	; 0x3c
     1ee:	1d ae       	std	Y+61, r1	; 0x3d
     1f0:	1e ae       	std	Y+62, r1	; 0x3e
     1f2:	1f ae       	std	Y+63, r1	; 0x3f
     1f4:	e1 97       	sbiw	r28, 0x31	; 49
     1f6:	64 c0       	rjmp	.+200    	; 0x2c0 <__divdi3+0x130>
     1f8:	21 95       	neg	r18
     1fa:	81 e0       	ldi	r24, 0x01	; 1
     1fc:	12 16       	cp	r1, r18
     1fe:	08 f0       	brcs	.+2      	; 0x202 <__divdi3+0x72>
     200:	80 e0       	ldi	r24, 0x00	; 0
     202:	31 95       	neg	r19
     204:	91 e0       	ldi	r25, 0x01	; 1
     206:	13 16       	cp	r1, r19
     208:	08 f0       	brcs	.+2      	; 0x20c <__divdi3+0x7c>
     20a:	90 e0       	ldi	r25, 0x00	; 0
     20c:	b3 2f       	mov	r27, r19
     20e:	b8 1b       	sub	r27, r24
     210:	81 e0       	ldi	r24, 0x01	; 1
     212:	3b 17       	cp	r19, r27
     214:	08 f0       	brcs	.+2      	; 0x218 <__divdi3+0x88>
     216:	80 e0       	ldi	r24, 0x00	; 0
     218:	98 2b       	or	r25, r24
     21a:	41 95       	neg	r20
     21c:	31 e0       	ldi	r19, 0x01	; 1
     21e:	14 16       	cp	r1, r20
     220:	08 f0       	brcs	.+2      	; 0x224 <__divdi3+0x94>
     222:	30 e0       	ldi	r19, 0x00	; 0
     224:	a4 2f       	mov	r26, r20
     226:	a9 1b       	sub	r26, r25
     228:	81 e0       	ldi	r24, 0x01	; 1
     22a:	4a 17       	cp	r20, r26
     22c:	08 f0       	brcs	.+2      	; 0x230 <__divdi3+0xa0>
     22e:	80 e0       	ldi	r24, 0x00	; 0
     230:	38 2b       	or	r19, r24
     232:	51 95       	neg	r21
     234:	91 e0       	ldi	r25, 0x01	; 1
     236:	15 16       	cp	r1, r21
     238:	08 f0       	brcs	.+2      	; 0x23c <__divdi3+0xac>
     23a:	90 e0       	ldi	r25, 0x00	; 0
     23c:	f5 2f       	mov	r31, r21
     23e:	f3 1b       	sub	r31, r19
     240:	81 e0       	ldi	r24, 0x01	; 1
     242:	5f 17       	cp	r21, r31
     244:	08 f0       	brcs	.+2      	; 0x248 <__divdi3+0xb8>
     246:	80 e0       	ldi	r24, 0x00	; 0
     248:	98 2b       	or	r25, r24
     24a:	61 95       	neg	r22
     24c:	31 e0       	ldi	r19, 0x01	; 1
     24e:	16 16       	cp	r1, r22
     250:	08 f0       	brcs	.+2      	; 0x254 <__divdi3+0xc4>
     252:	30 e0       	ldi	r19, 0x00	; 0
     254:	e6 2f       	mov	r30, r22
     256:	e9 1b       	sub	r30, r25
     258:	81 e0       	ldi	r24, 0x01	; 1
     25a:	6e 17       	cp	r22, r30
     25c:	08 f0       	brcs	.+2      	; 0x260 <__divdi3+0xd0>
     25e:	80 e0       	ldi	r24, 0x00	; 0
     260:	38 2b       	or	r19, r24
     262:	71 95       	neg	r23
     264:	41 e0       	ldi	r20, 0x01	; 1
     266:	17 16       	cp	r1, r23
     268:	08 f0       	brcs	.+2      	; 0x26c <__divdi3+0xdc>
     26a:	40 e0       	ldi	r20, 0x00	; 0
     26c:	57 2f       	mov	r21, r23
     26e:	53 1b       	sub	r21, r19
     270:	81 e0       	ldi	r24, 0x01	; 1
     272:	75 17       	cp	r23, r21
     274:	08 f0       	brcs	.+2      	; 0x278 <__divdi3+0xe8>
     276:	80 e0       	ldi	r24, 0x00	; 0
     278:	48 2b       	or	r20, r24
     27a:	89 2d       	mov	r24, r9
     27c:	81 95       	neg	r24
     27e:	91 e0       	ldi	r25, 0x01	; 1
     280:	18 16       	cp	r1, r24
     282:	08 f0       	brcs	.+2      	; 0x286 <__divdi3+0xf6>
     284:	90 e0       	ldi	r25, 0x00	; 0
     286:	68 2e       	mov	r6, r24
     288:	64 1a       	sub	r6, r20
     28a:	46 2d       	mov	r20, r6
     28c:	31 e0       	ldi	r19, 0x01	; 1
     28e:	86 15       	cp	r24, r6
     290:	08 f0       	brcs	.+2      	; 0x294 <__divdi3+0x104>
     292:	30 e0       	ldi	r19, 0x00	; 0
     294:	93 2b       	or	r25, r19
     296:	88 2d       	mov	r24, r8
     298:	81 95       	neg	r24
     29a:	89 1b       	sub	r24, r25
     29c:	29 83       	std	Y+1, r18	; 0x01
     29e:	ba 83       	std	Y+2, r27	; 0x02
     2a0:	ab 83       	std	Y+3, r26	; 0x03
     2a2:	fc 83       	std	Y+4, r31	; 0x04
     2a4:	ed 83       	std	Y+5, r30	; 0x05
     2a6:	5e 83       	std	Y+6, r21	; 0x06
     2a8:	4f 83       	std	Y+7, r20	; 0x07
     2aa:	88 87       	std	Y+8, r24	; 0x08
     2ac:	2f ef       	ldi	r18, 0xFF	; 255
     2ae:	3f ef       	ldi	r19, 0xFF	; 255
     2b0:	4f ef       	ldi	r20, 0xFF	; 255
     2b2:	5f ef       	ldi	r21, 0xFF	; 255
     2b4:	e1 96       	adiw	r28, 0x31	; 49
     2b6:	2c af       	std	Y+60, r18	; 0x3c
     2b8:	3d af       	std	Y+61, r19	; 0x3d
     2ba:	4e af       	std	Y+62, r20	; 0x3e
     2bc:	5f af       	std	Y+63, r21	; 0x3f
     2be:	e1 97       	sbiw	r28, 0x31	; 49
     2c0:	8d 85       	ldd	r24, Y+13	; 0x0d
     2c2:	9e 85       	ldd	r25, Y+14	; 0x0e
     2c4:	af 85       	ldd	r26, Y+15	; 0x0f
     2c6:	b8 89       	ldd	r27, Y+16	; 0x10
     2c8:	b7 ff       	sbrs	r27, 7
     2ca:	6a c0       	rjmp	.+212    	; 0x3a0 <__divdi3+0x210>
     2cc:	e1 96       	adiw	r28, 0x31	; 49
     2ce:	4c ad       	ldd	r20, Y+60	; 0x3c
     2d0:	5d ad       	ldd	r21, Y+61	; 0x3d
     2d2:	6e ad       	ldd	r22, Y+62	; 0x3e
     2d4:	7f ad       	ldd	r23, Y+63	; 0x3f
     2d6:	e1 97       	sbiw	r28, 0x31	; 49
     2d8:	40 95       	com	r20
     2da:	50 95       	com	r21
     2dc:	60 95       	com	r22
     2de:	70 95       	com	r23
     2e0:	e1 96       	adiw	r28, 0x31	; 49
     2e2:	4c af       	std	Y+60, r20	; 0x3c
     2e4:	5d af       	std	Y+61, r21	; 0x3d
     2e6:	6e af       	std	Y+62, r22	; 0x3e
     2e8:	7f af       	std	Y+63, r23	; 0x3f
     2ea:	e1 97       	sbiw	r28, 0x31	; 49
     2ec:	a1 94       	neg	r10
     2ee:	81 e0       	ldi	r24, 0x01	; 1
     2f0:	1a 14       	cp	r1, r10
     2f2:	08 f0       	brcs	.+2      	; 0x2f6 <__divdi3+0x166>
     2f4:	80 e0       	ldi	r24, 0x00	; 0
     2f6:	b1 94       	neg	r11
     2f8:	91 e0       	ldi	r25, 0x01	; 1
     2fa:	1b 14       	cp	r1, r11
     2fc:	08 f0       	brcs	.+2      	; 0x300 <__divdi3+0x170>
     2fe:	90 e0       	ldi	r25, 0x00	; 0
     300:	6b 2d       	mov	r22, r11
     302:	68 1b       	sub	r22, r24
     304:	81 e0       	ldi	r24, 0x01	; 1
     306:	b6 16       	cp	r11, r22
     308:	08 f0       	brcs	.+2      	; 0x30c <__divdi3+0x17c>
     30a:	80 e0       	ldi	r24, 0x00	; 0
     30c:	98 2b       	or	r25, r24
     30e:	c1 94       	neg	r12
     310:	21 e0       	ldi	r18, 0x01	; 1
     312:	1c 14       	cp	r1, r12
     314:	08 f0       	brcs	.+2      	; 0x318 <__divdi3+0x188>
     316:	20 e0       	ldi	r18, 0x00	; 0
     318:	5c 2d       	mov	r21, r12
     31a:	59 1b       	sub	r21, r25
     31c:	81 e0       	ldi	r24, 0x01	; 1
     31e:	c5 16       	cp	r12, r21
     320:	08 f0       	brcs	.+2      	; 0x324 <__divdi3+0x194>
     322:	80 e0       	ldi	r24, 0x00	; 0
     324:	28 2b       	or	r18, r24
     326:	d1 94       	neg	r13
     328:	91 e0       	ldi	r25, 0x01	; 1
     32a:	1d 14       	cp	r1, r13
     32c:	08 f0       	brcs	.+2      	; 0x330 <__divdi3+0x1a0>
     32e:	90 e0       	ldi	r25, 0x00	; 0
     330:	4d 2d       	mov	r20, r13
     332:	42 1b       	sub	r20, r18
     334:	81 e0       	ldi	r24, 0x01	; 1
     336:	d4 16       	cp	r13, r20
     338:	08 f0       	brcs	.+2      	; 0x33c <__divdi3+0x1ac>
     33a:	80 e0       	ldi	r24, 0x00	; 0
     33c:	98 2b       	or	r25, r24
     33e:	e1 94       	neg	r14
     340:	21 e0       	ldi	r18, 0x01	; 1
     342:	1e 14       	cp	r1, r14
     344:	08 f0       	brcs	.+2      	; 0x348 <__divdi3+0x1b8>
     346:	20 e0       	ldi	r18, 0x00	; 0
     348:	3e 2d       	mov	r19, r14
     34a:	39 1b       	sub	r19, r25
     34c:	81 e0       	ldi	r24, 0x01	; 1
     34e:	e3 16       	cp	r14, r19
     350:	08 f0       	brcs	.+2      	; 0x354 <__divdi3+0x1c4>
     352:	80 e0       	ldi	r24, 0x00	; 0
     354:	28 2b       	or	r18, r24
     356:	f1 94       	neg	r15
     358:	91 e0       	ldi	r25, 0x01	; 1
     35a:	1f 14       	cp	r1, r15
     35c:	08 f0       	brcs	.+2      	; 0x360 <__divdi3+0x1d0>
     35e:	90 e0       	ldi	r25, 0x00	; 0
     360:	7f 2d       	mov	r23, r15
     362:	72 1b       	sub	r23, r18
     364:	27 2f       	mov	r18, r23
     366:	81 e0       	ldi	r24, 0x01	; 1
     368:	f7 16       	cp	r15, r23
     36a:	08 f0       	brcs	.+2      	; 0x36e <__divdi3+0x1de>
     36c:	80 e0       	ldi	r24, 0x00	; 0
     36e:	98 2b       	or	r25, r24
     370:	01 95       	neg	r16
     372:	11 e0       	ldi	r17, 0x01	; 1
     374:	10 16       	cp	r1, r16
     376:	08 f0       	brcs	.+2      	; 0x37a <__divdi3+0x1ea>
     378:	10 e0       	ldi	r17, 0x00	; 0
     37a:	80 2f       	mov	r24, r16
     37c:	89 1b       	sub	r24, r25
     37e:	98 2f       	mov	r25, r24
     380:	81 e0       	ldi	r24, 0x01	; 1
     382:	09 17       	cp	r16, r25
     384:	08 f0       	brcs	.+2      	; 0x388 <__divdi3+0x1f8>
     386:	80 e0       	ldi	r24, 0x00	; 0
     388:	18 2b       	or	r17, r24
     38a:	87 2d       	mov	r24, r7
     38c:	81 95       	neg	r24
     38e:	81 1b       	sub	r24, r17
     390:	a9 86       	std	Y+9, r10	; 0x09
     392:	6a 87       	std	Y+10, r22	; 0x0a
     394:	5b 87       	std	Y+11, r21	; 0x0b
     396:	4c 87       	std	Y+12, r20	; 0x0c
     398:	3d 87       	std	Y+13, r19	; 0x0d
     39a:	2e 87       	std	Y+14, r18	; 0x0e
     39c:	9f 87       	std	Y+15, r25	; 0x0f
     39e:	88 8b       	std	Y+16, r24	; 0x10
     3a0:	99 81       	ldd	r25, Y+1	; 0x01
     3a2:	2a 81       	ldd	r18, Y+2	; 0x02
     3a4:	3b 81       	ldd	r19, Y+3	; 0x03
     3a6:	4c 81       	ldd	r20, Y+4	; 0x04
     3a8:	5d 81       	ldd	r21, Y+5	; 0x05
     3aa:	6e 81       	ldd	r22, Y+6	; 0x06
     3ac:	7f 81       	ldd	r23, Y+7	; 0x07
     3ae:	a8 85       	ldd	r26, Y+8	; 0x08
     3b0:	b9 85       	ldd	r27, Y+9	; 0x09
     3b2:	1a 85       	ldd	r17, Y+10	; 0x0a
     3b4:	0b 85       	ldd	r16, Y+11	; 0x0b
     3b6:	fc 84       	ldd	r15, Y+12	; 0x0c
     3b8:	ed 84       	ldd	r14, Y+13	; 0x0d
     3ba:	de 84       	ldd	r13, Y+14	; 0x0e
     3bc:	cf 84       	ldd	r12, Y+15	; 0x0f
     3be:	b8 88       	ldd	r11, Y+16	; 0x10
     3c0:	88 e0       	ldi	r24, 0x08	; 8
     3c2:	e1 e1       	ldi	r30, 0x11	; 17
     3c4:	8e 2e       	mov	r8, r30
     3c6:	91 2c       	mov	r9, r1
     3c8:	8c 0e       	add	r8, r28
     3ca:	9d 1e       	adc	r9, r29
     3cc:	f4 01       	movw	r30, r8
     3ce:	68 2e       	mov	r6, r24
     3d0:	11 92       	st	Z+, r1
     3d2:	6a 94       	dec	r6
     3d4:	e9 f7       	brne	.-6      	; 0x3d0 <__divdi3+0x240>
     3d6:	99 8b       	std	Y+17, r25	; 0x11
     3d8:	2a 8b       	std	Y+18, r18	; 0x12
     3da:	3b 8b       	std	Y+19, r19	; 0x13
     3dc:	4c 8b       	std	Y+20, r20	; 0x14
     3de:	5d 8b       	std	Y+21, r21	; 0x15
     3e0:	6e 8b       	std	Y+22, r22	; 0x16
     3e2:	7f 8b       	std	Y+23, r23	; 0x17
     3e4:	a8 8f       	std	Y+24, r26	; 0x18
     3e6:	9e 01       	movw	r18, r28
     3e8:	27 5e       	subi	r18, 0xE7	; 231
     3ea:	3f 4f       	sbci	r19, 0xFF	; 255
     3ec:	f9 01       	movw	r30, r18
     3ee:	11 92       	st	Z+, r1
     3f0:	8a 95       	dec	r24
     3f2:	e9 f7       	brne	.-6      	; 0x3ee <__divdi3+0x25e>
     3f4:	b9 8f       	std	Y+25, r27	; 0x19
     3f6:	1a 8f       	std	Y+26, r17	; 0x1a
     3f8:	0b 8f       	std	Y+27, r16	; 0x1b
     3fa:	fc 8e       	std	Y+28, r15	; 0x1c
     3fc:	ed 8e       	std	Y+29, r14	; 0x1d
     3fe:	de 8e       	std	Y+30, r13	; 0x1e
     400:	cf 8e       	std	Y+31, r12	; 0x1f
     402:	b8 a2       	std	Y+32, r11	; 0x20
     404:	29 8c       	ldd	r2, Y+25	; 0x19
     406:	3a 8c       	ldd	r3, Y+26	; 0x1a
     408:	4b 8c       	ldd	r4, Y+27	; 0x1b
     40a:	5c 8c       	ldd	r5, Y+28	; 0x1c
     40c:	ed 8c       	ldd	r14, Y+29	; 0x1d
     40e:	fe 8c       	ldd	r15, Y+30	; 0x1e
     410:	0f 8d       	ldd	r16, Y+31	; 0x1f
     412:	18 a1       	ldd	r17, Y+32	; 0x20
     414:	69 88       	ldd	r6, Y+17	; 0x11
     416:	7a 88       	ldd	r7, Y+18	; 0x12
     418:	8b 88       	ldd	r8, Y+19	; 0x13
     41a:	9c 88       	ldd	r9, Y+20	; 0x14
     41c:	21 96       	adiw	r28, 0x01	; 1
     41e:	6c ae       	std	Y+60, r6	; 0x3c
     420:	7d ae       	std	Y+61, r7	; 0x3d
     422:	8e ae       	std	Y+62, r8	; 0x3e
     424:	9f ae       	std	Y+63, r9	; 0x3f
     426:	21 97       	sbiw	r28, 0x01	; 1
     428:	6d 88       	ldd	r6, Y+21	; 0x15
     42a:	7e 88       	ldd	r7, Y+22	; 0x16
     42c:	8f 88       	ldd	r8, Y+23	; 0x17
     42e:	98 8c       	ldd	r9, Y+24	; 0x18
     430:	e1 14       	cp	r14, r1
     432:	f1 04       	cpc	r15, r1
     434:	01 05       	cpc	r16, r1
     436:	11 05       	cpc	r17, r1
     438:	09 f0       	breq	.+2      	; 0x43c <__divdi3+0x2ac>
     43a:	d9 c3       	rjmp	.+1970   	; 0xbee <__stack+0x38f>
     43c:	62 14       	cp	r6, r2
     43e:	73 04       	cpc	r7, r3
     440:	84 04       	cpc	r8, r4
     442:	95 04       	cpc	r9, r5
     444:	08 f0       	brcs	.+2      	; 0x448 <__divdi3+0x2b8>
     446:	57 c1       	rjmp	.+686    	; 0x6f6 <__divdi3+0x566>
     448:	00 e0       	ldi	r16, 0x00	; 0
     44a:	20 16       	cp	r2, r16
     44c:	00 e0       	ldi	r16, 0x00	; 0
     44e:	30 06       	cpc	r3, r16
     450:	01 e0       	ldi	r16, 0x01	; 1
     452:	40 06       	cpc	r4, r16
     454:	00 e0       	ldi	r16, 0x00	; 0
     456:	50 06       	cpc	r5, r16
     458:	88 f4       	brcc	.+34     	; 0x47c <__divdi3+0x2ec>
     45a:	1f ef       	ldi	r17, 0xFF	; 255
     45c:	21 16       	cp	r2, r17
     45e:	31 04       	cpc	r3, r1
     460:	41 04       	cpc	r4, r1
     462:	51 04       	cpc	r5, r1
     464:	39 f0       	breq	.+14     	; 0x474 <__divdi3+0x2e4>
     466:	30 f0       	brcs	.+12     	; 0x474 <__divdi3+0x2e4>
     468:	48 e0       	ldi	r20, 0x08	; 8
     46a:	e4 2e       	mov	r14, r20
     46c:	f1 2c       	mov	r15, r1
     46e:	01 2d       	mov	r16, r1
     470:	11 2d       	mov	r17, r1
     472:	18 c0       	rjmp	.+48     	; 0x4a4 <__divdi3+0x314>
     474:	ee 24       	eor	r14, r14
     476:	ff 24       	eor	r15, r15
     478:	87 01       	movw	r16, r14
     47a:	14 c0       	rjmp	.+40     	; 0x4a4 <__divdi3+0x314>
     47c:	20 e0       	ldi	r18, 0x00	; 0
     47e:	22 16       	cp	r2, r18
     480:	20 e0       	ldi	r18, 0x00	; 0
     482:	32 06       	cpc	r3, r18
     484:	20 e0       	ldi	r18, 0x00	; 0
     486:	42 06       	cpc	r4, r18
     488:	21 e0       	ldi	r18, 0x01	; 1
     48a:	52 06       	cpc	r5, r18
     48c:	30 f0       	brcs	.+12     	; 0x49a <__divdi3+0x30a>
     48e:	38 e1       	ldi	r19, 0x18	; 24
     490:	e3 2e       	mov	r14, r19
     492:	f1 2c       	mov	r15, r1
     494:	01 2d       	mov	r16, r1
     496:	11 2d       	mov	r17, r1
     498:	05 c0       	rjmp	.+10     	; 0x4a4 <__divdi3+0x314>
     49a:	20 e1       	ldi	r18, 0x10	; 16
     49c:	e2 2e       	mov	r14, r18
     49e:	f1 2c       	mov	r15, r1
     4a0:	01 2d       	mov	r16, r1
     4a2:	11 2d       	mov	r17, r1
     4a4:	d2 01       	movw	r26, r4
     4a6:	c1 01       	movw	r24, r2
     4a8:	0e 2c       	mov	r0, r14
     4aa:	04 c0       	rjmp	.+8      	; 0x4b4 <__divdi3+0x324>
     4ac:	b6 95       	lsr	r27
     4ae:	a7 95       	ror	r26
     4b0:	97 95       	ror	r25
     4b2:	87 95       	ror	r24
     4b4:	0a 94       	dec	r0
     4b6:	d2 f7       	brpl	.-12     	; 0x4ac <__divdi3+0x31c>
     4b8:	84 58       	subi	r24, 0x84	; 132
     4ba:	9f 4f       	sbci	r25, 0xFF	; 255
     4bc:	dc 01       	movw	r26, r24
     4be:	2c 91       	ld	r18, X
     4c0:	80 e2       	ldi	r24, 0x20	; 32
     4c2:	90 e0       	ldi	r25, 0x00	; 0
     4c4:	a0 e0       	ldi	r26, 0x00	; 0
     4c6:	b0 e0       	ldi	r27, 0x00	; 0
     4c8:	8e 19       	sub	r24, r14
     4ca:	9f 09       	sbc	r25, r15
     4cc:	a0 0b       	sbc	r26, r16
     4ce:	b1 0b       	sbc	r27, r17
     4d0:	7c 01       	movw	r14, r24
     4d2:	8d 01       	movw	r16, r26
     4d4:	e2 1a       	sub	r14, r18
     4d6:	f1 08       	sbc	r15, r1
     4d8:	01 09       	sbc	r16, r1
     4da:	11 09       	sbc	r17, r1
     4dc:	e1 14       	cp	r14, r1
     4de:	f1 04       	cpc	r15, r1
     4e0:	01 05       	cpc	r16, r1
     4e2:	11 05       	cpc	r17, r1
     4e4:	d1 f1       	breq	.+116    	; 0x55a <__divdi3+0x3ca>
     4e6:	0e 2c       	mov	r0, r14
     4e8:	04 c0       	rjmp	.+8      	; 0x4f2 <__divdi3+0x362>
     4ea:	22 0c       	add	r2, r2
     4ec:	33 1c       	adc	r3, r3
     4ee:	44 1c       	adc	r4, r4
     4f0:	55 1c       	adc	r5, r5
     4f2:	0a 94       	dec	r0
     4f4:	d2 f7       	brpl	.-12     	; 0x4ea <__divdi3+0x35a>
     4f6:	a4 01       	movw	r20, r8
     4f8:	93 01       	movw	r18, r6
     4fa:	0e 2c       	mov	r0, r14
     4fc:	04 c0       	rjmp	.+8      	; 0x506 <__divdi3+0x376>
     4fe:	22 0f       	add	r18, r18
     500:	33 1f       	adc	r19, r19
     502:	44 1f       	adc	r20, r20
     504:	55 1f       	adc	r21, r21
     506:	0a 94       	dec	r0
     508:	d2 f7       	brpl	.-12     	; 0x4fe <__divdi3+0x36e>
     50a:	80 e2       	ldi	r24, 0x20	; 32
     50c:	90 e0       	ldi	r25, 0x00	; 0
     50e:	8e 19       	sub	r24, r14
     510:	9f 09       	sbc	r25, r15
     512:	21 96       	adiw	r28, 0x01	; 1
     514:	6c ac       	ldd	r6, Y+60	; 0x3c
     516:	7d ac       	ldd	r7, Y+61	; 0x3d
     518:	8e ac       	ldd	r8, Y+62	; 0x3e
     51a:	9f ac       	ldd	r9, Y+63	; 0x3f
     51c:	21 97       	sbiw	r28, 0x01	; 1
     51e:	04 c0       	rjmp	.+8      	; 0x528 <__divdi3+0x398>
     520:	96 94       	lsr	r9
     522:	87 94       	ror	r8
     524:	77 94       	ror	r7
     526:	67 94       	ror	r6
     528:	8a 95       	dec	r24
     52a:	d2 f7       	brpl	.-12     	; 0x520 <__divdi3+0x390>
     52c:	62 2a       	or	r6, r18
     52e:	73 2a       	or	r7, r19
     530:	84 2a       	or	r8, r20
     532:	95 2a       	or	r9, r21
     534:	21 96       	adiw	r28, 0x01	; 1
     536:	ac ac       	ldd	r10, Y+60	; 0x3c
     538:	bd ac       	ldd	r11, Y+61	; 0x3d
     53a:	ce ac       	ldd	r12, Y+62	; 0x3e
     53c:	df ac       	ldd	r13, Y+63	; 0x3f
     53e:	21 97       	sbiw	r28, 0x01	; 1
     540:	04 c0       	rjmp	.+8      	; 0x54a <__divdi3+0x3ba>
     542:	aa 0c       	add	r10, r10
     544:	bb 1c       	adc	r11, r11
     546:	cc 1c       	adc	r12, r12
     548:	dd 1c       	adc	r13, r13
     54a:	ea 94       	dec	r14
     54c:	d2 f7       	brpl	.-12     	; 0x542 <__divdi3+0x3b2>
     54e:	21 96       	adiw	r28, 0x01	; 1
     550:	ac ae       	std	Y+60, r10	; 0x3c
     552:	bd ae       	std	Y+61, r11	; 0x3d
     554:	ce ae       	std	Y+62, r12	; 0x3e
     556:	df ae       	std	Y+63, r13	; 0x3f
     558:	21 97       	sbiw	r28, 0x01	; 1
     55a:	62 01       	movw	r12, r4
     55c:	ee 24       	eor	r14, r14
     55e:	ff 24       	eor	r15, r15
     560:	29 96       	adiw	r28, 0x09	; 9
     562:	cc ae       	std	Y+60, r12	; 0x3c
     564:	dd ae       	std	Y+61, r13	; 0x3d
     566:	ee ae       	std	Y+62, r14	; 0x3e
     568:	ff ae       	std	Y+63, r15	; 0x3f
     56a:	29 97       	sbiw	r28, 0x09	; 9
     56c:	92 01       	movw	r18, r4
     56e:	81 01       	movw	r16, r2
     570:	20 70       	andi	r18, 0x00	; 0
     572:	30 70       	andi	r19, 0x00	; 0
     574:	2d 96       	adiw	r28, 0x0d	; 13
     576:	0c af       	std	Y+60, r16	; 0x3c
     578:	1d af       	std	Y+61, r17	; 0x3d
     57a:	2e af       	std	Y+62, r18	; 0x3e
     57c:	3f af       	std	Y+63, r19	; 0x3f
     57e:	2d 97       	sbiw	r28, 0x0d	; 13
     580:	c4 01       	movw	r24, r8
     582:	b3 01       	movw	r22, r6
     584:	a7 01       	movw	r20, r14
     586:	96 01       	movw	r18, r12
     588:	0e 94 c9 2a 	call	0x5592	; 0x5592 <__udivmodsi4>
     58c:	7b 01       	movw	r14, r22
     58e:	8c 01       	movw	r16, r24
     590:	c4 01       	movw	r24, r8
     592:	b3 01       	movw	r22, r6
     594:	29 96       	adiw	r28, 0x09	; 9
     596:	2c ad       	ldd	r18, Y+60	; 0x3c
     598:	3d ad       	ldd	r19, Y+61	; 0x3d
     59a:	4e ad       	ldd	r20, Y+62	; 0x3e
     59c:	5f ad       	ldd	r21, Y+63	; 0x3f
     59e:	29 97       	sbiw	r28, 0x09	; 9
     5a0:	0e 94 c9 2a 	call	0x5592	; 0x5592 <__udivmodsi4>
     5a4:	c9 01       	movw	r24, r18
     5a6:	da 01       	movw	r26, r20
     5a8:	3c 01       	movw	r6, r24
     5aa:	4d 01       	movw	r8, r26
     5ac:	c4 01       	movw	r24, r8
     5ae:	b3 01       	movw	r22, r6
     5b0:	2d 96       	adiw	r28, 0x0d	; 13
     5b2:	2c ad       	ldd	r18, Y+60	; 0x3c
     5b4:	3d ad       	ldd	r19, Y+61	; 0x3d
     5b6:	4e ad       	ldd	r20, Y+62	; 0x3e
     5b8:	5f ad       	ldd	r21, Y+63	; 0x3f
     5ba:	2d 97       	sbiw	r28, 0x0d	; 13
     5bc:	0e 94 aa 2a 	call	0x5554	; 0x5554 <__mulsi3>
     5c0:	9b 01       	movw	r18, r22
     5c2:	ac 01       	movw	r20, r24
     5c4:	87 01       	movw	r16, r14
     5c6:	ff 24       	eor	r15, r15
     5c8:	ee 24       	eor	r14, r14
     5ca:	21 96       	adiw	r28, 0x01	; 1
     5cc:	ac ac       	ldd	r10, Y+60	; 0x3c
     5ce:	bd ac       	ldd	r11, Y+61	; 0x3d
     5d0:	ce ac       	ldd	r12, Y+62	; 0x3e
     5d2:	df ac       	ldd	r13, Y+63	; 0x3f
     5d4:	21 97       	sbiw	r28, 0x01	; 1
     5d6:	c6 01       	movw	r24, r12
     5d8:	aa 27       	eor	r26, r26
     5da:	bb 27       	eor	r27, r27
     5dc:	57 01       	movw	r10, r14
     5de:	68 01       	movw	r12, r16
     5e0:	a8 2a       	or	r10, r24
     5e2:	b9 2a       	or	r11, r25
     5e4:	ca 2a       	or	r12, r26
     5e6:	db 2a       	or	r13, r27
     5e8:	a2 16       	cp	r10, r18
     5ea:	b3 06       	cpc	r11, r19
     5ec:	c4 06       	cpc	r12, r20
     5ee:	d5 06       	cpc	r13, r21
     5f0:	e0 f4       	brcc	.+56     	; 0x62a <__divdi3+0x49a>
     5f2:	08 94       	sec
     5f4:	61 08       	sbc	r6, r1
     5f6:	71 08       	sbc	r7, r1
     5f8:	81 08       	sbc	r8, r1
     5fa:	91 08       	sbc	r9, r1
     5fc:	a2 0c       	add	r10, r2
     5fe:	b3 1c       	adc	r11, r3
     600:	c4 1c       	adc	r12, r4
     602:	d5 1c       	adc	r13, r5
     604:	a2 14       	cp	r10, r2
     606:	b3 04       	cpc	r11, r3
     608:	c4 04       	cpc	r12, r4
     60a:	d5 04       	cpc	r13, r5
     60c:	70 f0       	brcs	.+28     	; 0x62a <__divdi3+0x49a>
     60e:	a2 16       	cp	r10, r18
     610:	b3 06       	cpc	r11, r19
     612:	c4 06       	cpc	r12, r20
     614:	d5 06       	cpc	r13, r21
     616:	48 f4       	brcc	.+18     	; 0x62a <__divdi3+0x49a>
     618:	08 94       	sec
     61a:	61 08       	sbc	r6, r1
     61c:	71 08       	sbc	r7, r1
     61e:	81 08       	sbc	r8, r1
     620:	91 08       	sbc	r9, r1
     622:	a2 0c       	add	r10, r2
     624:	b3 1c       	adc	r11, r3
     626:	c4 1c       	adc	r12, r4
     628:	d5 1c       	adc	r13, r5
     62a:	a2 1a       	sub	r10, r18
     62c:	b3 0a       	sbc	r11, r19
     62e:	c4 0a       	sbc	r12, r20
     630:	d5 0a       	sbc	r13, r21
     632:	c6 01       	movw	r24, r12
     634:	b5 01       	movw	r22, r10
     636:	29 96       	adiw	r28, 0x09	; 9
     638:	2c ad       	ldd	r18, Y+60	; 0x3c
     63a:	3d ad       	ldd	r19, Y+61	; 0x3d
     63c:	4e ad       	ldd	r20, Y+62	; 0x3e
     63e:	5f ad       	ldd	r21, Y+63	; 0x3f
     640:	29 97       	sbiw	r28, 0x09	; 9
     642:	0e 94 c9 2a 	call	0x5592	; 0x5592 <__udivmodsi4>
     646:	7b 01       	movw	r14, r22
     648:	8c 01       	movw	r16, r24
     64a:	c6 01       	movw	r24, r12
     64c:	b5 01       	movw	r22, r10
     64e:	29 96       	adiw	r28, 0x09	; 9
     650:	2c ad       	ldd	r18, Y+60	; 0x3c
     652:	3d ad       	ldd	r19, Y+61	; 0x3d
     654:	4e ad       	ldd	r20, Y+62	; 0x3e
     656:	5f ad       	ldd	r21, Y+63	; 0x3f
     658:	29 97       	sbiw	r28, 0x09	; 9
     65a:	0e 94 c9 2a 	call	0x5592	; 0x5592 <__udivmodsi4>
     65e:	c9 01       	movw	r24, r18
     660:	da 01       	movw	r26, r20
     662:	5c 01       	movw	r10, r24
     664:	6d 01       	movw	r12, r26
     666:	c6 01       	movw	r24, r12
     668:	b5 01       	movw	r22, r10
     66a:	2d 96       	adiw	r28, 0x0d	; 13
     66c:	2c ad       	ldd	r18, Y+60	; 0x3c
     66e:	3d ad       	ldd	r19, Y+61	; 0x3d
     670:	4e ad       	ldd	r20, Y+62	; 0x3e
     672:	5f ad       	ldd	r21, Y+63	; 0x3f
     674:	2d 97       	sbiw	r28, 0x0d	; 13
     676:	0e 94 aa 2a 	call	0x5554	; 0x5554 <__mulsi3>
     67a:	9b 01       	movw	r18, r22
     67c:	ac 01       	movw	r20, r24
     67e:	87 01       	movw	r16, r14
     680:	ff 24       	eor	r15, r15
     682:	ee 24       	eor	r14, r14
     684:	21 96       	adiw	r28, 0x01	; 1
     686:	8c ad       	ldd	r24, Y+60	; 0x3c
     688:	9d ad       	ldd	r25, Y+61	; 0x3d
     68a:	ae ad       	ldd	r26, Y+62	; 0x3e
     68c:	bf ad       	ldd	r27, Y+63	; 0x3f
     68e:	21 97       	sbiw	r28, 0x01	; 1
     690:	a0 70       	andi	r26, 0x00	; 0
     692:	b0 70       	andi	r27, 0x00	; 0
     694:	e8 2a       	or	r14, r24
     696:	f9 2a       	or	r15, r25
     698:	0a 2b       	or	r16, r26
     69a:	1b 2b       	or	r17, r27
     69c:	e2 16       	cp	r14, r18
     69e:	f3 06       	cpc	r15, r19
     6a0:	04 07       	cpc	r16, r20
     6a2:	15 07       	cpc	r17, r21
     6a4:	c0 f4       	brcc	.+48     	; 0x6d6 <__divdi3+0x546>
     6a6:	08 94       	sec
     6a8:	a1 08       	sbc	r10, r1
     6aa:	b1 08       	sbc	r11, r1
     6ac:	c1 08       	sbc	r12, r1
     6ae:	d1 08       	sbc	r13, r1
     6b0:	e2 0c       	add	r14, r2
     6b2:	f3 1c       	adc	r15, r3
     6b4:	04 1d       	adc	r16, r4
     6b6:	15 1d       	adc	r17, r5
     6b8:	e2 14       	cp	r14, r2
     6ba:	f3 04       	cpc	r15, r3
     6bc:	04 05       	cpc	r16, r4
     6be:	15 05       	cpc	r17, r5
     6c0:	50 f0       	brcs	.+20     	; 0x6d6 <__divdi3+0x546>
     6c2:	e2 16       	cp	r14, r18
     6c4:	f3 06       	cpc	r15, r19
     6c6:	04 07       	cpc	r16, r20
     6c8:	15 07       	cpc	r17, r21
     6ca:	28 f4       	brcc	.+10     	; 0x6d6 <__divdi3+0x546>
     6cc:	08 94       	sec
     6ce:	a1 08       	sbc	r10, r1
     6d0:	b1 08       	sbc	r11, r1
     6d2:	c1 08       	sbc	r12, r1
     6d4:	d1 08       	sbc	r13, r1
     6d6:	d3 01       	movw	r26, r6
     6d8:	99 27       	eor	r25, r25
     6da:	88 27       	eor	r24, r24
     6dc:	86 01       	movw	r16, r12
     6de:	75 01       	movw	r14, r10
     6e0:	e8 2a       	or	r14, r24
     6e2:	f9 2a       	or	r15, r25
     6e4:	0a 2b       	or	r16, r26
     6e6:	1b 2b       	or	r17, r27
     6e8:	25 96       	adiw	r28, 0x05	; 5
     6ea:	ec ae       	std	Y+60, r14	; 0x3c
     6ec:	fd ae       	std	Y+61, r15	; 0x3d
     6ee:	0e af       	std	Y+62, r16	; 0x3e
     6f0:	1f af       	std	Y+63, r17	; 0x3f
     6f2:	25 97       	sbiw	r28, 0x05	; 5
     6f4:	eb c4       	rjmp	.+2518   	; 0x10cc <__stack+0x86d>
     6f6:	21 14       	cp	r2, r1
     6f8:	31 04       	cpc	r3, r1
     6fa:	41 04       	cpc	r4, r1
     6fc:	51 04       	cpc	r5, r1
     6fe:	71 f4       	brne	.+28     	; 0x71c <__divdi3+0x58c>
     700:	61 e0       	ldi	r22, 0x01	; 1
     702:	70 e0       	ldi	r23, 0x00	; 0
     704:	80 e0       	ldi	r24, 0x00	; 0
     706:	90 e0       	ldi	r25, 0x00	; 0
     708:	20 e0       	ldi	r18, 0x00	; 0
     70a:	30 e0       	ldi	r19, 0x00	; 0
     70c:	40 e0       	ldi	r20, 0x00	; 0
     70e:	50 e0       	ldi	r21, 0x00	; 0
     710:	0e 94 c9 2a 	call	0x5592	; 0x5592 <__udivmodsi4>
     714:	c9 01       	movw	r24, r18
     716:	da 01       	movw	r26, r20
     718:	1c 01       	movw	r2, r24
     71a:	2d 01       	movw	r4, r26
     71c:	00 e0       	ldi	r16, 0x00	; 0
     71e:	20 16       	cp	r2, r16
     720:	00 e0       	ldi	r16, 0x00	; 0
     722:	30 06       	cpc	r3, r16
     724:	01 e0       	ldi	r16, 0x01	; 1
     726:	40 06       	cpc	r4, r16
     728:	00 e0       	ldi	r16, 0x00	; 0
     72a:	50 06       	cpc	r5, r16
     72c:	88 f4       	brcc	.+34     	; 0x750 <__divdi3+0x5c0>
     72e:	1f ef       	ldi	r17, 0xFF	; 255
     730:	21 16       	cp	r2, r17
     732:	31 04       	cpc	r3, r1
     734:	41 04       	cpc	r4, r1
     736:	51 04       	cpc	r5, r1
     738:	31 f0       	breq	.+12     	; 0x746 <__divdi3+0x5b6>
     73a:	28 f0       	brcs	.+10     	; 0x746 <__divdi3+0x5b6>
     73c:	48 e0       	ldi	r20, 0x08	; 8
     73e:	50 e0       	ldi	r21, 0x00	; 0
     740:	60 e0       	ldi	r22, 0x00	; 0
     742:	70 e0       	ldi	r23, 0x00	; 0
     744:	17 c0       	rjmp	.+46     	; 0x774 <__divdi3+0x5e4>
     746:	40 e0       	ldi	r20, 0x00	; 0
     748:	50 e0       	ldi	r21, 0x00	; 0
     74a:	60 e0       	ldi	r22, 0x00	; 0
     74c:	70 e0       	ldi	r23, 0x00	; 0
     74e:	12 c0       	rjmp	.+36     	; 0x774 <__divdi3+0x5e4>
     750:	20 e0       	ldi	r18, 0x00	; 0
     752:	22 16       	cp	r2, r18
     754:	20 e0       	ldi	r18, 0x00	; 0
     756:	32 06       	cpc	r3, r18
     758:	20 e0       	ldi	r18, 0x00	; 0
     75a:	42 06       	cpc	r4, r18
     75c:	21 e0       	ldi	r18, 0x01	; 1
     75e:	52 06       	cpc	r5, r18
     760:	28 f0       	brcs	.+10     	; 0x76c <__divdi3+0x5dc>
     762:	48 e1       	ldi	r20, 0x18	; 24
     764:	50 e0       	ldi	r21, 0x00	; 0
     766:	60 e0       	ldi	r22, 0x00	; 0
     768:	70 e0       	ldi	r23, 0x00	; 0
     76a:	04 c0       	rjmp	.+8      	; 0x774 <__divdi3+0x5e4>
     76c:	40 e1       	ldi	r20, 0x10	; 16
     76e:	50 e0       	ldi	r21, 0x00	; 0
     770:	60 e0       	ldi	r22, 0x00	; 0
     772:	70 e0       	ldi	r23, 0x00	; 0
     774:	d2 01       	movw	r26, r4
     776:	c1 01       	movw	r24, r2
     778:	04 2e       	mov	r0, r20
     77a:	04 c0       	rjmp	.+8      	; 0x784 <__divdi3+0x5f4>
     77c:	b6 95       	lsr	r27
     77e:	a7 95       	ror	r26
     780:	97 95       	ror	r25
     782:	87 95       	ror	r24
     784:	0a 94       	dec	r0
     786:	d2 f7       	brpl	.-12     	; 0x77c <__divdi3+0x5ec>
     788:	84 58       	subi	r24, 0x84	; 132
     78a:	9f 4f       	sbci	r25, 0xFF	; 255
     78c:	dc 01       	movw	r26, r24
     78e:	2c 91       	ld	r18, X
     790:	e0 e2       	ldi	r30, 0x20	; 32
     792:	ee 2e       	mov	r14, r30
     794:	f1 2c       	mov	r15, r1
     796:	01 2d       	mov	r16, r1
     798:	11 2d       	mov	r17, r1
     79a:	d8 01       	movw	r26, r16
     79c:	c7 01       	movw	r24, r14
     79e:	84 1b       	sub	r24, r20
     7a0:	95 0b       	sbc	r25, r21
     7a2:	a6 0b       	sbc	r26, r22
     7a4:	b7 0b       	sbc	r27, r23
     7a6:	82 1b       	sub	r24, r18
     7a8:	91 09       	sbc	r25, r1
     7aa:	a1 09       	sbc	r26, r1
     7ac:	b1 09       	sbc	r27, r1
     7ae:	00 97       	sbiw	r24, 0x00	; 0
     7b0:	a1 05       	cpc	r26, r1
     7b2:	b1 05       	cpc	r27, r1
     7b4:	61 f4       	brne	.+24     	; 0x7ce <__divdi3+0x63e>
     7b6:	64 01       	movw	r12, r8
     7b8:	53 01       	movw	r10, r6
     7ba:	a2 18       	sub	r10, r2
     7bc:	b3 08       	sbc	r11, r3
     7be:	c4 08       	sbc	r12, r4
     7c0:	d5 08       	sbc	r13, r5
     7c2:	31 e0       	ldi	r19, 0x01	; 1
     7c4:	63 2e       	mov	r6, r19
     7c6:	71 2c       	mov	r7, r1
     7c8:	81 2c       	mov	r8, r1
     7ca:	91 2c       	mov	r9, r1
     7cc:	24 c1       	rjmp	.+584    	; 0xa16 <__stack+0x1b7>
     7ce:	e3 96       	adiw	r28, 0x33	; 51
     7d0:	8f af       	std	Y+63, r24	; 0x3f
     7d2:	e3 97       	sbiw	r28, 0x33	; 51
     7d4:	08 2e       	mov	r0, r24
     7d6:	04 c0       	rjmp	.+8      	; 0x7e0 <__divdi3+0x650>
     7d8:	22 0c       	add	r2, r2
     7da:	33 1c       	adc	r3, r3
     7dc:	44 1c       	adc	r4, r4
     7de:	55 1c       	adc	r5, r5
     7e0:	0a 94       	dec	r0
     7e2:	d2 f7       	brpl	.-12     	; 0x7d8 <__divdi3+0x648>
     7e4:	ee 2d       	mov	r30, r14
     7e6:	e8 1b       	sub	r30, r24
     7e8:	64 01       	movw	r12, r8
     7ea:	53 01       	movw	r10, r6
     7ec:	0e 2e       	mov	r0, r30
     7ee:	04 c0       	rjmp	.+8      	; 0x7f8 <__divdi3+0x668>
     7f0:	d6 94       	lsr	r13
     7f2:	c7 94       	ror	r12
     7f4:	b7 94       	ror	r11
     7f6:	a7 94       	ror	r10
     7f8:	0a 94       	dec	r0
     7fa:	d2 f7       	brpl	.-12     	; 0x7f0 <__divdi3+0x660>
     7fc:	a4 01       	movw	r20, r8
     7fe:	93 01       	movw	r18, r6
     800:	e3 96       	adiw	r28, 0x33	; 51
     802:	0f ac       	ldd	r0, Y+63	; 0x3f
     804:	e3 97       	sbiw	r28, 0x33	; 51
     806:	04 c0       	rjmp	.+8      	; 0x810 <__divdi3+0x680>
     808:	22 0f       	add	r18, r18
     80a:	33 1f       	adc	r19, r19
     80c:	44 1f       	adc	r20, r20
     80e:	55 1f       	adc	r21, r21
     810:	0a 94       	dec	r0
     812:	d2 f7       	brpl	.-12     	; 0x808 <__divdi3+0x678>
     814:	21 96       	adiw	r28, 0x01	; 1
     816:	6c ac       	ldd	r6, Y+60	; 0x3c
     818:	7d ac       	ldd	r7, Y+61	; 0x3d
     81a:	8e ac       	ldd	r8, Y+62	; 0x3e
     81c:	9f ac       	ldd	r9, Y+63	; 0x3f
     81e:	21 97       	sbiw	r28, 0x01	; 1
     820:	0e 2e       	mov	r0, r30
     822:	04 c0       	rjmp	.+8      	; 0x82c <__divdi3+0x69c>
     824:	96 94       	lsr	r9
     826:	87 94       	ror	r8
     828:	77 94       	ror	r7
     82a:	67 94       	ror	r6
     82c:	0a 94       	dec	r0
     82e:	d2 f7       	brpl	.-12     	; 0x824 <__divdi3+0x694>
     830:	84 01       	movw	r16, r8
     832:	73 01       	movw	r14, r6
     834:	e2 2a       	or	r14, r18
     836:	f3 2a       	or	r15, r19
     838:	04 2b       	or	r16, r20
     83a:	15 2b       	or	r17, r21
     83c:	e9 ae       	std	Y+57, r14	; 0x39
     83e:	fa ae       	std	Y+58, r15	; 0x3a
     840:	0b af       	std	Y+59, r16	; 0x3b
     842:	1c af       	std	Y+60, r17	; 0x3c
     844:	32 01       	movw	r6, r4
     846:	88 24       	eor	r8, r8
     848:	99 24       	eor	r9, r9
     84a:	92 01       	movw	r18, r4
     84c:	81 01       	movw	r16, r2
     84e:	20 70       	andi	r18, 0x00	; 0
     850:	30 70       	andi	r19, 0x00	; 0
     852:	61 96       	adiw	r28, 0x11	; 17
     854:	0c af       	std	Y+60, r16	; 0x3c
     856:	1d af       	std	Y+61, r17	; 0x3d
     858:	2e af       	std	Y+62, r18	; 0x3e
     85a:	3f af       	std	Y+63, r19	; 0x3f
     85c:	61 97       	sbiw	r28, 0x11	; 17
     85e:	c6 01       	movw	r24, r12
     860:	b5 01       	movw	r22, r10
     862:	a4 01       	movw	r20, r8
     864:	93 01       	movw	r18, r6
     866:	0e 94 c9 2a 	call	0x5592	; 0x5592 <__udivmodsi4>
     86a:	7b 01       	movw	r14, r22
     86c:	8c 01       	movw	r16, r24
     86e:	c6 01       	movw	r24, r12
     870:	b5 01       	movw	r22, r10
     872:	a4 01       	movw	r20, r8
     874:	93 01       	movw	r18, r6
     876:	0e 94 c9 2a 	call	0x5592	; 0x5592 <__udivmodsi4>
     87a:	c9 01       	movw	r24, r18
     87c:	da 01       	movw	r26, r20
     87e:	65 96       	adiw	r28, 0x15	; 21
     880:	8c af       	std	Y+60, r24	; 0x3c
     882:	9d af       	std	Y+61, r25	; 0x3d
     884:	ae af       	std	Y+62, r26	; 0x3e
     886:	bf af       	std	Y+63, r27	; 0x3f
     888:	65 97       	sbiw	r28, 0x15	; 21
     88a:	bc 01       	movw	r22, r24
     88c:	cd 01       	movw	r24, r26
     88e:	61 96       	adiw	r28, 0x11	; 17
     890:	2c ad       	ldd	r18, Y+60	; 0x3c
     892:	3d ad       	ldd	r19, Y+61	; 0x3d
     894:	4e ad       	ldd	r20, Y+62	; 0x3e
     896:	5f ad       	ldd	r21, Y+63	; 0x3f
     898:	61 97       	sbiw	r28, 0x11	; 17
     89a:	0e 94 aa 2a 	call	0x5554	; 0x5554 <__mulsi3>
     89e:	9b 01       	movw	r18, r22
     8a0:	ac 01       	movw	r20, r24
     8a2:	87 01       	movw	r16, r14
     8a4:	ff 24       	eor	r15, r15
     8a6:	ee 24       	eor	r14, r14
     8a8:	a9 ac       	ldd	r10, Y+57	; 0x39
     8aa:	ba ac       	ldd	r11, Y+58	; 0x3a
     8ac:	cb ac       	ldd	r12, Y+59	; 0x3b
     8ae:	dc ac       	ldd	r13, Y+60	; 0x3c
     8b0:	c6 01       	movw	r24, r12
     8b2:	aa 27       	eor	r26, r26
     8b4:	bb 27       	eor	r27, r27
     8b6:	5c 01       	movw	r10, r24
     8b8:	6d 01       	movw	r12, r26
     8ba:	ae 28       	or	r10, r14
     8bc:	bf 28       	or	r11, r15
     8be:	c0 2a       	or	r12, r16
     8c0:	d1 2a       	or	r13, r17
     8c2:	a2 16       	cp	r10, r18
     8c4:	b3 06       	cpc	r11, r19
     8c6:	c4 06       	cpc	r12, r20
     8c8:	d5 06       	cpc	r13, r21
     8ca:	60 f5       	brcc	.+88     	; 0x924 <__stack+0xc5>
     8cc:	65 96       	adiw	r28, 0x15	; 21
     8ce:	6c ad       	ldd	r22, Y+60	; 0x3c
     8d0:	7d ad       	ldd	r23, Y+61	; 0x3d
     8d2:	8e ad       	ldd	r24, Y+62	; 0x3e
     8d4:	9f ad       	ldd	r25, Y+63	; 0x3f
     8d6:	65 97       	sbiw	r28, 0x15	; 21
     8d8:	61 50       	subi	r22, 0x01	; 1
     8da:	70 40       	sbci	r23, 0x00	; 0
     8dc:	80 40       	sbci	r24, 0x00	; 0
     8de:	90 40       	sbci	r25, 0x00	; 0
     8e0:	65 96       	adiw	r28, 0x15	; 21
     8e2:	6c af       	std	Y+60, r22	; 0x3c
     8e4:	7d af       	std	Y+61, r23	; 0x3d
     8e6:	8e af       	std	Y+62, r24	; 0x3e
     8e8:	9f af       	std	Y+63, r25	; 0x3f
     8ea:	65 97       	sbiw	r28, 0x15	; 21
     8ec:	a2 0c       	add	r10, r2
     8ee:	b3 1c       	adc	r11, r3
     8f0:	c4 1c       	adc	r12, r4
     8f2:	d5 1c       	adc	r13, r5
     8f4:	a2 14       	cp	r10, r2
     8f6:	b3 04       	cpc	r11, r3
     8f8:	c4 04       	cpc	r12, r4
     8fa:	d5 04       	cpc	r13, r5
     8fc:	98 f0       	brcs	.+38     	; 0x924 <__stack+0xc5>
     8fe:	a2 16       	cp	r10, r18
     900:	b3 06       	cpc	r11, r19
     902:	c4 06       	cpc	r12, r20
     904:	d5 06       	cpc	r13, r21
     906:	70 f4       	brcc	.+28     	; 0x924 <__stack+0xc5>
     908:	61 50       	subi	r22, 0x01	; 1
     90a:	70 40       	sbci	r23, 0x00	; 0
     90c:	80 40       	sbci	r24, 0x00	; 0
     90e:	90 40       	sbci	r25, 0x00	; 0
     910:	65 96       	adiw	r28, 0x15	; 21
     912:	6c af       	std	Y+60, r22	; 0x3c
     914:	7d af       	std	Y+61, r23	; 0x3d
     916:	8e af       	std	Y+62, r24	; 0x3e
     918:	9f af       	std	Y+63, r25	; 0x3f
     91a:	65 97       	sbiw	r28, 0x15	; 21
     91c:	a2 0c       	add	r10, r2
     91e:	b3 1c       	adc	r11, r3
     920:	c4 1c       	adc	r12, r4
     922:	d5 1c       	adc	r13, r5
     924:	a2 1a       	sub	r10, r18
     926:	b3 0a       	sbc	r11, r19
     928:	c4 0a       	sbc	r12, r20
     92a:	d5 0a       	sbc	r13, r21
     92c:	c6 01       	movw	r24, r12
     92e:	b5 01       	movw	r22, r10
     930:	a4 01       	movw	r20, r8
     932:	93 01       	movw	r18, r6
     934:	0e 94 c9 2a 	call	0x5592	; 0x5592 <__udivmodsi4>
     938:	7b 01       	movw	r14, r22
     93a:	8c 01       	movw	r16, r24
     93c:	c6 01       	movw	r24, r12
     93e:	b5 01       	movw	r22, r10
     940:	a4 01       	movw	r20, r8
     942:	93 01       	movw	r18, r6
     944:	0e 94 c9 2a 	call	0x5592	; 0x5592 <__udivmodsi4>
     948:	c9 01       	movw	r24, r18
     94a:	da 01       	movw	r26, r20
     94c:	3c 01       	movw	r6, r24
     94e:	4d 01       	movw	r8, r26
     950:	c4 01       	movw	r24, r8
     952:	b3 01       	movw	r22, r6
     954:	61 96       	adiw	r28, 0x11	; 17
     956:	2c ad       	ldd	r18, Y+60	; 0x3c
     958:	3d ad       	ldd	r19, Y+61	; 0x3d
     95a:	4e ad       	ldd	r20, Y+62	; 0x3e
     95c:	5f ad       	ldd	r21, Y+63	; 0x3f
     95e:	61 97       	sbiw	r28, 0x11	; 17
     960:	0e 94 aa 2a 	call	0x5554	; 0x5554 <__mulsi3>
     964:	9b 01       	movw	r18, r22
     966:	ac 01       	movw	r20, r24
     968:	87 01       	movw	r16, r14
     96a:	ff 24       	eor	r15, r15
     96c:	ee 24       	eor	r14, r14
     96e:	89 ad       	ldd	r24, Y+57	; 0x39
     970:	9a ad       	ldd	r25, Y+58	; 0x3a
     972:	ab ad       	ldd	r26, Y+59	; 0x3b
     974:	bc ad       	ldd	r27, Y+60	; 0x3c
     976:	a0 70       	andi	r26, 0x00	; 0
     978:	b0 70       	andi	r27, 0x00	; 0
     97a:	57 01       	movw	r10, r14
     97c:	68 01       	movw	r12, r16
     97e:	a8 2a       	or	r10, r24
     980:	b9 2a       	or	r11, r25
     982:	ca 2a       	or	r12, r26
     984:	db 2a       	or	r13, r27
     986:	a2 16       	cp	r10, r18
     988:	b3 06       	cpc	r11, r19
     98a:	c4 06       	cpc	r12, r20
     98c:	d5 06       	cpc	r13, r21
     98e:	e0 f4       	brcc	.+56     	; 0x9c8 <__stack+0x169>
     990:	08 94       	sec
     992:	61 08       	sbc	r6, r1
     994:	71 08       	sbc	r7, r1
     996:	81 08       	sbc	r8, r1
     998:	91 08       	sbc	r9, r1
     99a:	a2 0c       	add	r10, r2
     99c:	b3 1c       	adc	r11, r3
     99e:	c4 1c       	adc	r12, r4
     9a0:	d5 1c       	adc	r13, r5
     9a2:	a2 14       	cp	r10, r2
     9a4:	b3 04       	cpc	r11, r3
     9a6:	c4 04       	cpc	r12, r4
     9a8:	d5 04       	cpc	r13, r5
     9aa:	70 f0       	brcs	.+28     	; 0x9c8 <__stack+0x169>
     9ac:	a2 16       	cp	r10, r18
     9ae:	b3 06       	cpc	r11, r19
     9b0:	c4 06       	cpc	r12, r20
     9b2:	d5 06       	cpc	r13, r21
     9b4:	48 f4       	brcc	.+18     	; 0x9c8 <__stack+0x169>
     9b6:	08 94       	sec
     9b8:	61 08       	sbc	r6, r1
     9ba:	71 08       	sbc	r7, r1
     9bc:	81 08       	sbc	r8, r1
     9be:	91 08       	sbc	r9, r1
     9c0:	a2 0c       	add	r10, r2
     9c2:	b3 1c       	adc	r11, r3
     9c4:	c4 1c       	adc	r12, r4
     9c6:	d5 1c       	adc	r13, r5
     9c8:	21 96       	adiw	r28, 0x01	; 1
     9ca:	8c ad       	ldd	r24, Y+60	; 0x3c
     9cc:	9d ad       	ldd	r25, Y+61	; 0x3d
     9ce:	ae ad       	ldd	r26, Y+62	; 0x3e
     9d0:	bf ad       	ldd	r27, Y+63	; 0x3f
     9d2:	21 97       	sbiw	r28, 0x01	; 1
     9d4:	e3 96       	adiw	r28, 0x33	; 51
     9d6:	0f ac       	ldd	r0, Y+63	; 0x3f
     9d8:	e3 97       	sbiw	r28, 0x33	; 51
     9da:	04 c0       	rjmp	.+8      	; 0x9e4 <__stack+0x185>
     9dc:	88 0f       	add	r24, r24
     9de:	99 1f       	adc	r25, r25
     9e0:	aa 1f       	adc	r26, r26
     9e2:	bb 1f       	adc	r27, r27
     9e4:	0a 94       	dec	r0
     9e6:	d2 f7       	brpl	.-12     	; 0x9dc <__stack+0x17d>
     9e8:	21 96       	adiw	r28, 0x01	; 1
     9ea:	8c af       	std	Y+60, r24	; 0x3c
     9ec:	9d af       	std	Y+61, r25	; 0x3d
     9ee:	ae af       	std	Y+62, r26	; 0x3e
     9f0:	bf af       	std	Y+63, r27	; 0x3f
     9f2:	21 97       	sbiw	r28, 0x01	; 1
     9f4:	a2 1a       	sub	r10, r18
     9f6:	b3 0a       	sbc	r11, r19
     9f8:	c4 0a       	sbc	r12, r20
     9fa:	d5 0a       	sbc	r13, r21
     9fc:	65 96       	adiw	r28, 0x15	; 21
     9fe:	ec ac       	ldd	r14, Y+60	; 0x3c
     a00:	fd ac       	ldd	r15, Y+61	; 0x3d
     a02:	0e ad       	ldd	r16, Y+62	; 0x3e
     a04:	1f ad       	ldd	r17, Y+63	; 0x3f
     a06:	65 97       	sbiw	r28, 0x15	; 21
     a08:	d7 01       	movw	r26, r14
     a0a:	99 27       	eor	r25, r25
     a0c:	88 27       	eor	r24, r24
     a0e:	68 2a       	or	r6, r24
     a10:	79 2a       	or	r7, r25
     a12:	8a 2a       	or	r8, r26
     a14:	9b 2a       	or	r9, r27
     a16:	82 01       	movw	r16, r4
     a18:	22 27       	eor	r18, r18
     a1a:	33 27       	eor	r19, r19
     a1c:	69 96       	adiw	r28, 0x19	; 25
     a1e:	0c af       	std	Y+60, r16	; 0x3c
     a20:	1d af       	std	Y+61, r17	; 0x3d
     a22:	2e af       	std	Y+62, r18	; 0x3e
     a24:	3f af       	std	Y+63, r19	; 0x3f
     a26:	69 97       	sbiw	r28, 0x19	; 25
     a28:	a2 01       	movw	r20, r4
     a2a:	91 01       	movw	r18, r2
     a2c:	40 70       	andi	r20, 0x00	; 0
     a2e:	50 70       	andi	r21, 0x00	; 0
     a30:	6d 96       	adiw	r28, 0x1d	; 29
     a32:	2c af       	std	Y+60, r18	; 0x3c
     a34:	3d af       	std	Y+61, r19	; 0x3d
     a36:	4e af       	std	Y+62, r20	; 0x3e
     a38:	5f af       	std	Y+63, r21	; 0x3f
     a3a:	6d 97       	sbiw	r28, 0x1d	; 29
     a3c:	c6 01       	movw	r24, r12
     a3e:	b5 01       	movw	r22, r10
     a40:	69 96       	adiw	r28, 0x19	; 25
     a42:	2c ad       	ldd	r18, Y+60	; 0x3c
     a44:	3d ad       	ldd	r19, Y+61	; 0x3d
     a46:	4e ad       	ldd	r20, Y+62	; 0x3e
     a48:	5f ad       	ldd	r21, Y+63	; 0x3f
     a4a:	69 97       	sbiw	r28, 0x19	; 25
     a4c:	0e 94 c9 2a 	call	0x5592	; 0x5592 <__udivmodsi4>
     a50:	7b 01       	movw	r14, r22
     a52:	8c 01       	movw	r16, r24
     a54:	c6 01       	movw	r24, r12
     a56:	b5 01       	movw	r22, r10
     a58:	69 96       	adiw	r28, 0x19	; 25
     a5a:	2c ad       	ldd	r18, Y+60	; 0x3c
     a5c:	3d ad       	ldd	r19, Y+61	; 0x3d
     a5e:	4e ad       	ldd	r20, Y+62	; 0x3e
     a60:	5f ad       	ldd	r21, Y+63	; 0x3f
     a62:	69 97       	sbiw	r28, 0x19	; 25
     a64:	0e 94 c9 2a 	call	0x5592	; 0x5592 <__udivmodsi4>
     a68:	c9 01       	movw	r24, r18
     a6a:	da 01       	movw	r26, r20
     a6c:	a1 96       	adiw	r28, 0x21	; 33
     a6e:	8c af       	std	Y+60, r24	; 0x3c
     a70:	9d af       	std	Y+61, r25	; 0x3d
     a72:	ae af       	std	Y+62, r26	; 0x3e
     a74:	bf af       	std	Y+63, r27	; 0x3f
     a76:	a1 97       	sbiw	r28, 0x21	; 33
     a78:	bc 01       	movw	r22, r24
     a7a:	cd 01       	movw	r24, r26
     a7c:	6d 96       	adiw	r28, 0x1d	; 29
     a7e:	2c ad       	ldd	r18, Y+60	; 0x3c
     a80:	3d ad       	ldd	r19, Y+61	; 0x3d
     a82:	4e ad       	ldd	r20, Y+62	; 0x3e
     a84:	5f ad       	ldd	r21, Y+63	; 0x3f
     a86:	6d 97       	sbiw	r28, 0x1d	; 29
     a88:	0e 94 aa 2a 	call	0x5554	; 0x5554 <__mulsi3>
     a8c:	9b 01       	movw	r18, r22
     a8e:	ac 01       	movw	r20, r24
     a90:	87 01       	movw	r16, r14
     a92:	ff 24       	eor	r15, r15
     a94:	ee 24       	eor	r14, r14
     a96:	21 96       	adiw	r28, 0x01	; 1
     a98:	ac ac       	ldd	r10, Y+60	; 0x3c
     a9a:	bd ac       	ldd	r11, Y+61	; 0x3d
     a9c:	ce ac       	ldd	r12, Y+62	; 0x3e
     a9e:	df ac       	ldd	r13, Y+63	; 0x3f
     aa0:	21 97       	sbiw	r28, 0x01	; 1
     aa2:	c6 01       	movw	r24, r12
     aa4:	aa 27       	eor	r26, r26
     aa6:	bb 27       	eor	r27, r27
     aa8:	57 01       	movw	r10, r14
     aaa:	68 01       	movw	r12, r16
     aac:	a8 2a       	or	r10, r24
     aae:	b9 2a       	or	r11, r25
     ab0:	ca 2a       	or	r12, r26
     ab2:	db 2a       	or	r13, r27
     ab4:	a2 16       	cp	r10, r18
     ab6:	b3 06       	cpc	r11, r19
     ab8:	c4 06       	cpc	r12, r20
     aba:	d5 06       	cpc	r13, r21
     abc:	60 f5       	brcc	.+88     	; 0xb16 <__stack+0x2b7>
     abe:	a1 96       	adiw	r28, 0x21	; 33
     ac0:	6c ad       	ldd	r22, Y+60	; 0x3c
     ac2:	7d ad       	ldd	r23, Y+61	; 0x3d
     ac4:	8e ad       	ldd	r24, Y+62	; 0x3e
     ac6:	9f ad       	ldd	r25, Y+63	; 0x3f
     ac8:	a1 97       	sbiw	r28, 0x21	; 33
     aca:	61 50       	subi	r22, 0x01	; 1
     acc:	70 40       	sbci	r23, 0x00	; 0
     ace:	80 40       	sbci	r24, 0x00	; 0
     ad0:	90 40       	sbci	r25, 0x00	; 0
     ad2:	a1 96       	adiw	r28, 0x21	; 33
     ad4:	6c af       	std	Y+60, r22	; 0x3c
     ad6:	7d af       	std	Y+61, r23	; 0x3d
     ad8:	8e af       	std	Y+62, r24	; 0x3e
     ada:	9f af       	std	Y+63, r25	; 0x3f
     adc:	a1 97       	sbiw	r28, 0x21	; 33
     ade:	a2 0c       	add	r10, r2
     ae0:	b3 1c       	adc	r11, r3
     ae2:	c4 1c       	adc	r12, r4
     ae4:	d5 1c       	adc	r13, r5
     ae6:	a2 14       	cp	r10, r2
     ae8:	b3 04       	cpc	r11, r3
     aea:	c4 04       	cpc	r12, r4
     aec:	d5 04       	cpc	r13, r5
     aee:	98 f0       	brcs	.+38     	; 0xb16 <__stack+0x2b7>
     af0:	a2 16       	cp	r10, r18
     af2:	b3 06       	cpc	r11, r19
     af4:	c4 06       	cpc	r12, r20
     af6:	d5 06       	cpc	r13, r21
     af8:	70 f4       	brcc	.+28     	; 0xb16 <__stack+0x2b7>
     afa:	61 50       	subi	r22, 0x01	; 1
     afc:	70 40       	sbci	r23, 0x00	; 0
     afe:	80 40       	sbci	r24, 0x00	; 0
     b00:	90 40       	sbci	r25, 0x00	; 0
     b02:	a1 96       	adiw	r28, 0x21	; 33
     b04:	6c af       	std	Y+60, r22	; 0x3c
     b06:	7d af       	std	Y+61, r23	; 0x3d
     b08:	8e af       	std	Y+62, r24	; 0x3e
     b0a:	9f af       	std	Y+63, r25	; 0x3f
     b0c:	a1 97       	sbiw	r28, 0x21	; 33
     b0e:	a2 0c       	add	r10, r2
     b10:	b3 1c       	adc	r11, r3
     b12:	c4 1c       	adc	r12, r4
     b14:	d5 1c       	adc	r13, r5
     b16:	a2 1a       	sub	r10, r18
     b18:	b3 0a       	sbc	r11, r19
     b1a:	c4 0a       	sbc	r12, r20
     b1c:	d5 0a       	sbc	r13, r21
     b1e:	c6 01       	movw	r24, r12
     b20:	b5 01       	movw	r22, r10
     b22:	69 96       	adiw	r28, 0x19	; 25
     b24:	2c ad       	ldd	r18, Y+60	; 0x3c
     b26:	3d ad       	ldd	r19, Y+61	; 0x3d
     b28:	4e ad       	ldd	r20, Y+62	; 0x3e
     b2a:	5f ad       	ldd	r21, Y+63	; 0x3f
     b2c:	69 97       	sbiw	r28, 0x19	; 25
     b2e:	0e 94 c9 2a 	call	0x5592	; 0x5592 <__udivmodsi4>
     b32:	7b 01       	movw	r14, r22
     b34:	8c 01       	movw	r16, r24
     b36:	c6 01       	movw	r24, r12
     b38:	b5 01       	movw	r22, r10
     b3a:	69 96       	adiw	r28, 0x19	; 25
     b3c:	2c ad       	ldd	r18, Y+60	; 0x3c
     b3e:	3d ad       	ldd	r19, Y+61	; 0x3d
     b40:	4e ad       	ldd	r20, Y+62	; 0x3e
     b42:	5f ad       	ldd	r21, Y+63	; 0x3f
     b44:	69 97       	sbiw	r28, 0x19	; 25
     b46:	0e 94 c9 2a 	call	0x5592	; 0x5592 <__udivmodsi4>
     b4a:	c9 01       	movw	r24, r18
     b4c:	da 01       	movw	r26, r20
     b4e:	5c 01       	movw	r10, r24
     b50:	6d 01       	movw	r12, r26
     b52:	c6 01       	movw	r24, r12
     b54:	b5 01       	movw	r22, r10
     b56:	6d 96       	adiw	r28, 0x1d	; 29
     b58:	2c ad       	ldd	r18, Y+60	; 0x3c
     b5a:	3d ad       	ldd	r19, Y+61	; 0x3d
     b5c:	4e ad       	ldd	r20, Y+62	; 0x3e
     b5e:	5f ad       	ldd	r21, Y+63	; 0x3f
     b60:	6d 97       	sbiw	r28, 0x1d	; 29
     b62:	0e 94 aa 2a 	call	0x5554	; 0x5554 <__mulsi3>
     b66:	9b 01       	movw	r18, r22
     b68:	ac 01       	movw	r20, r24
     b6a:	87 01       	movw	r16, r14
     b6c:	ff 24       	eor	r15, r15
     b6e:	ee 24       	eor	r14, r14
     b70:	21 96       	adiw	r28, 0x01	; 1
     b72:	8c ad       	ldd	r24, Y+60	; 0x3c
     b74:	9d ad       	ldd	r25, Y+61	; 0x3d
     b76:	ae ad       	ldd	r26, Y+62	; 0x3e
     b78:	bf ad       	ldd	r27, Y+63	; 0x3f
     b7a:	21 97       	sbiw	r28, 0x01	; 1
     b7c:	a0 70       	andi	r26, 0x00	; 0
     b7e:	b0 70       	andi	r27, 0x00	; 0
     b80:	e8 2a       	or	r14, r24
     b82:	f9 2a       	or	r15, r25
     b84:	0a 2b       	or	r16, r26
     b86:	1b 2b       	or	r17, r27
     b88:	e2 16       	cp	r14, r18
     b8a:	f3 06       	cpc	r15, r19
     b8c:	04 07       	cpc	r16, r20
     b8e:	15 07       	cpc	r17, r21
     b90:	c0 f4       	brcc	.+48     	; 0xbc2 <__stack+0x363>
     b92:	08 94       	sec
     b94:	a1 08       	sbc	r10, r1
     b96:	b1 08       	sbc	r11, r1
     b98:	c1 08       	sbc	r12, r1
     b9a:	d1 08       	sbc	r13, r1
     b9c:	e2 0c       	add	r14, r2
     b9e:	f3 1c       	adc	r15, r3
     ba0:	04 1d       	adc	r16, r4
     ba2:	15 1d       	adc	r17, r5
     ba4:	e2 14       	cp	r14, r2
     ba6:	f3 04       	cpc	r15, r3
     ba8:	04 05       	cpc	r16, r4
     baa:	15 05       	cpc	r17, r5
     bac:	50 f0       	brcs	.+20     	; 0xbc2 <__stack+0x363>
     bae:	e2 16       	cp	r14, r18
     bb0:	f3 06       	cpc	r15, r19
     bb2:	04 07       	cpc	r16, r20
     bb4:	15 07       	cpc	r17, r21
     bb6:	28 f4       	brcc	.+10     	; 0xbc2 <__stack+0x363>
     bb8:	08 94       	sec
     bba:	a1 08       	sbc	r10, r1
     bbc:	b1 08       	sbc	r11, r1
     bbe:	c1 08       	sbc	r12, r1
     bc0:	d1 08       	sbc	r13, r1
     bc2:	a1 96       	adiw	r28, 0x21	; 33
     bc4:	ec ac       	ldd	r14, Y+60	; 0x3c
     bc6:	fd ac       	ldd	r15, Y+61	; 0x3d
     bc8:	0e ad       	ldd	r16, Y+62	; 0x3e
     bca:	1f ad       	ldd	r17, Y+63	; 0x3f
     bcc:	a1 97       	sbiw	r28, 0x21	; 33
     bce:	d7 01       	movw	r26, r14
     bd0:	99 27       	eor	r25, r25
     bd2:	88 27       	eor	r24, r24
     bd4:	96 01       	movw	r18, r12
     bd6:	85 01       	movw	r16, r10
     bd8:	08 2b       	or	r16, r24
     bda:	19 2b       	or	r17, r25
     bdc:	2a 2b       	or	r18, r26
     bde:	3b 2b       	or	r19, r27
     be0:	25 96       	adiw	r28, 0x05	; 5
     be2:	0c af       	std	Y+60, r16	; 0x3c
     be4:	1d af       	std	Y+61, r17	; 0x3d
     be6:	2e af       	std	Y+62, r18	; 0x3e
     be8:	3f af       	std	Y+63, r19	; 0x3f
     bea:	25 97       	sbiw	r28, 0x05	; 5
     bec:	72 c2       	rjmp	.+1252   	; 0x10d2 <__stack+0x873>
     bee:	6e 14       	cp	r6, r14
     bf0:	7f 04       	cpc	r7, r15
     bf2:	80 06       	cpc	r8, r16
     bf4:	91 06       	cpc	r9, r17
     bf6:	08 f4       	brcc	.+2      	; 0xbfa <__stack+0x39b>
     bf8:	5f c2       	rjmp	.+1214   	; 0x10b8 <__stack+0x859>
     bfa:	20 e0       	ldi	r18, 0x00	; 0
     bfc:	e2 16       	cp	r14, r18
     bfe:	20 e0       	ldi	r18, 0x00	; 0
     c00:	f2 06       	cpc	r15, r18
     c02:	21 e0       	ldi	r18, 0x01	; 1
     c04:	02 07       	cpc	r16, r18
     c06:	20 e0       	ldi	r18, 0x00	; 0
     c08:	12 07       	cpc	r17, r18
     c0a:	88 f4       	brcc	.+34     	; 0xc2e <__stack+0x3cf>
     c0c:	3f ef       	ldi	r19, 0xFF	; 255
     c0e:	e3 16       	cp	r14, r19
     c10:	f1 04       	cpc	r15, r1
     c12:	01 05       	cpc	r16, r1
     c14:	11 05       	cpc	r17, r1
     c16:	31 f0       	breq	.+12     	; 0xc24 <__stack+0x3c5>
     c18:	28 f0       	brcs	.+10     	; 0xc24 <__stack+0x3c5>
     c1a:	48 e0       	ldi	r20, 0x08	; 8
     c1c:	50 e0       	ldi	r21, 0x00	; 0
     c1e:	60 e0       	ldi	r22, 0x00	; 0
     c20:	70 e0       	ldi	r23, 0x00	; 0
     c22:	17 c0       	rjmp	.+46     	; 0xc52 <__stack+0x3f3>
     c24:	40 e0       	ldi	r20, 0x00	; 0
     c26:	50 e0       	ldi	r21, 0x00	; 0
     c28:	60 e0       	ldi	r22, 0x00	; 0
     c2a:	70 e0       	ldi	r23, 0x00	; 0
     c2c:	12 c0       	rjmp	.+36     	; 0xc52 <__stack+0x3f3>
     c2e:	40 e0       	ldi	r20, 0x00	; 0
     c30:	e4 16       	cp	r14, r20
     c32:	40 e0       	ldi	r20, 0x00	; 0
     c34:	f4 06       	cpc	r15, r20
     c36:	40 e0       	ldi	r20, 0x00	; 0
     c38:	04 07       	cpc	r16, r20
     c3a:	41 e0       	ldi	r20, 0x01	; 1
     c3c:	14 07       	cpc	r17, r20
     c3e:	28 f0       	brcs	.+10     	; 0xc4a <__stack+0x3eb>
     c40:	48 e1       	ldi	r20, 0x18	; 24
     c42:	50 e0       	ldi	r21, 0x00	; 0
     c44:	60 e0       	ldi	r22, 0x00	; 0
     c46:	70 e0       	ldi	r23, 0x00	; 0
     c48:	04 c0       	rjmp	.+8      	; 0xc52 <__stack+0x3f3>
     c4a:	40 e1       	ldi	r20, 0x10	; 16
     c4c:	50 e0       	ldi	r21, 0x00	; 0
     c4e:	60 e0       	ldi	r22, 0x00	; 0
     c50:	70 e0       	ldi	r23, 0x00	; 0
     c52:	d8 01       	movw	r26, r16
     c54:	c7 01       	movw	r24, r14
     c56:	04 2e       	mov	r0, r20
     c58:	04 c0       	rjmp	.+8      	; 0xc62 <__stack+0x403>
     c5a:	b6 95       	lsr	r27
     c5c:	a7 95       	ror	r26
     c5e:	97 95       	ror	r25
     c60:	87 95       	ror	r24
     c62:	0a 94       	dec	r0
     c64:	d2 f7       	brpl	.-12     	; 0xc5a <__stack+0x3fb>
     c66:	84 58       	subi	r24, 0x84	; 132
     c68:	9f 4f       	sbci	r25, 0xFF	; 255
     c6a:	dc 01       	movw	r26, r24
     c6c:	2c 91       	ld	r18, X
     c6e:	30 e2       	ldi	r19, 0x20	; 32
     c70:	a3 2e       	mov	r10, r19
     c72:	b1 2c       	mov	r11, r1
     c74:	c1 2c       	mov	r12, r1
     c76:	d1 2c       	mov	r13, r1
     c78:	d6 01       	movw	r26, r12
     c7a:	c5 01       	movw	r24, r10
     c7c:	84 1b       	sub	r24, r20
     c7e:	95 0b       	sbc	r25, r21
     c80:	a6 0b       	sbc	r26, r22
     c82:	b7 0b       	sbc	r27, r23
     c84:	82 1b       	sub	r24, r18
     c86:	91 09       	sbc	r25, r1
     c88:	a1 09       	sbc	r26, r1
     c8a:	b1 09       	sbc	r27, r1
     c8c:	00 97       	sbiw	r24, 0x00	; 0
     c8e:	a1 05       	cpc	r26, r1
     c90:	b1 05       	cpc	r27, r1
     c92:	99 f4       	brne	.+38     	; 0xcba <__stack+0x45b>
     c94:	e6 14       	cp	r14, r6
     c96:	f7 04       	cpc	r15, r7
     c98:	08 05       	cpc	r16, r8
     c9a:	19 05       	cpc	r17, r9
     c9c:	08 f4       	brcc	.+2      	; 0xca0 <__stack+0x441>
     c9e:	fe c1       	rjmp	.+1020   	; 0x109c <__stack+0x83d>
     ca0:	21 96       	adiw	r28, 0x01	; 1
     ca2:	6c ac       	ldd	r6, Y+60	; 0x3c
     ca4:	7d ac       	ldd	r7, Y+61	; 0x3d
     ca6:	8e ac       	ldd	r8, Y+62	; 0x3e
     ca8:	9f ac       	ldd	r9, Y+63	; 0x3f
     caa:	21 97       	sbiw	r28, 0x01	; 1
     cac:	62 14       	cp	r6, r2
     cae:	73 04       	cpc	r7, r3
     cb0:	84 04       	cpc	r8, r4
     cb2:	95 04       	cpc	r9, r5
     cb4:	08 f0       	brcs	.+2      	; 0xcb8 <__stack+0x459>
     cb6:	f2 c1       	rjmp	.+996    	; 0x109c <__stack+0x83d>
     cb8:	ff c1       	rjmp	.+1022   	; 0x10b8 <__stack+0x859>
     cba:	e2 96       	adiw	r28, 0x32	; 50
     cbc:	8f af       	std	Y+63, r24	; 0x3f
     cbe:	e2 97       	sbiw	r28, 0x32	; 50
     cc0:	08 2e       	mov	r0, r24
     cc2:	04 c0       	rjmp	.+8      	; 0xccc <__stack+0x46d>
     cc4:	ee 0c       	add	r14, r14
     cc6:	ff 1c       	adc	r15, r15
     cc8:	00 1f       	adc	r16, r16
     cca:	11 1f       	adc	r17, r17
     ccc:	0a 94       	dec	r0
     cce:	d2 f7       	brpl	.-12     	; 0xcc4 <__stack+0x465>
     cd0:	6a 2d       	mov	r22, r10
     cd2:	68 1b       	sub	r22, r24
     cd4:	d2 01       	movw	r26, r4
     cd6:	c1 01       	movw	r24, r2
     cd8:	06 2e       	mov	r0, r22
     cda:	04 c0       	rjmp	.+8      	; 0xce4 <__stack+0x485>
     cdc:	b6 95       	lsr	r27
     cde:	a7 95       	ror	r26
     ce0:	97 95       	ror	r25
     ce2:	87 95       	ror	r24
     ce4:	0a 94       	dec	r0
     ce6:	d2 f7       	brpl	.-12     	; 0xcdc <__stack+0x47d>
     ce8:	5c 01       	movw	r10, r24
     cea:	6d 01       	movw	r12, r26
     cec:	ae 28       	or	r10, r14
     cee:	bf 28       	or	r11, r15
     cf0:	c0 2a       	or	r12, r16
     cf2:	d1 2a       	or	r13, r17
     cf4:	ad aa       	std	Y+53, r10	; 0x35
     cf6:	be aa       	std	Y+54, r11	; 0x36
     cf8:	cf aa       	std	Y+55, r12	; 0x37
     cfa:	d8 ae       	std	Y+56, r13	; 0x38
     cfc:	72 01       	movw	r14, r4
     cfe:	61 01       	movw	r12, r2
     d00:	e2 96       	adiw	r28, 0x32	; 50
     d02:	0f ac       	ldd	r0, Y+63	; 0x3f
     d04:	e2 97       	sbiw	r28, 0x32	; 50
     d06:	04 c0       	rjmp	.+8      	; 0xd10 <__stack+0x4b1>
     d08:	cc 0c       	add	r12, r12
     d0a:	dd 1c       	adc	r13, r13
     d0c:	ee 1c       	adc	r14, r14
     d0e:	ff 1c       	adc	r15, r15
     d10:	0a 94       	dec	r0
     d12:	d2 f7       	brpl	.-12     	; 0xd08 <__stack+0x4a9>
     d14:	c9 aa       	std	Y+49, r12	; 0x31
     d16:	da aa       	std	Y+50, r13	; 0x32
     d18:	eb aa       	std	Y+51, r14	; 0x33
     d1a:	fc aa       	std	Y+52, r15	; 0x34
     d1c:	64 01       	movw	r12, r8
     d1e:	53 01       	movw	r10, r6
     d20:	06 2e       	mov	r0, r22
     d22:	04 c0       	rjmp	.+8      	; 0xd2c <__stack+0x4cd>
     d24:	d6 94       	lsr	r13
     d26:	c7 94       	ror	r12
     d28:	b7 94       	ror	r11
     d2a:	a7 94       	ror	r10
     d2c:	0a 94       	dec	r0
     d2e:	d2 f7       	brpl	.-12     	; 0xd24 <__stack+0x4c5>
     d30:	d4 01       	movw	r26, r8
     d32:	c3 01       	movw	r24, r6
     d34:	e2 96       	adiw	r28, 0x32	; 50
     d36:	0f ac       	ldd	r0, Y+63	; 0x3f
     d38:	e2 97       	sbiw	r28, 0x32	; 50
     d3a:	04 c0       	rjmp	.+8      	; 0xd44 <__stack+0x4e5>
     d3c:	88 0f       	add	r24, r24
     d3e:	99 1f       	adc	r25, r25
     d40:	aa 1f       	adc	r26, r26
     d42:	bb 1f       	adc	r27, r27
     d44:	0a 94       	dec	r0
     d46:	d2 f7       	brpl	.-12     	; 0xd3c <__stack+0x4dd>
     d48:	21 96       	adiw	r28, 0x01	; 1
     d4a:	ec ac       	ldd	r14, Y+60	; 0x3c
     d4c:	fd ac       	ldd	r15, Y+61	; 0x3d
     d4e:	0e ad       	ldd	r16, Y+62	; 0x3e
     d50:	1f ad       	ldd	r17, Y+63	; 0x3f
     d52:	21 97       	sbiw	r28, 0x01	; 1
     d54:	04 c0       	rjmp	.+8      	; 0xd5e <__stack+0x4ff>
     d56:	16 95       	lsr	r17
     d58:	07 95       	ror	r16
     d5a:	f7 94       	ror	r15
     d5c:	e7 94       	ror	r14
     d5e:	6a 95       	dec	r22
     d60:	d2 f7       	brpl	.-12     	; 0xd56 <__stack+0x4f7>
     d62:	37 01       	movw	r6, r14
     d64:	48 01       	movw	r8, r16
     d66:	68 2a       	or	r6, r24
     d68:	79 2a       	or	r7, r25
     d6a:	8a 2a       	or	r8, r26
     d6c:	9b 2a       	or	r9, r27
     d6e:	6d a6       	std	Y+45, r6	; 0x2d
     d70:	7e a6       	std	Y+46, r7	; 0x2e
     d72:	8f a6       	std	Y+47, r8	; 0x2f
     d74:	98 aa       	std	Y+48, r9	; 0x30
     d76:	ed a8       	ldd	r14, Y+53	; 0x35
     d78:	fe a8       	ldd	r15, Y+54	; 0x36
     d7a:	0f a9       	ldd	r16, Y+55	; 0x37
     d7c:	18 ad       	ldd	r17, Y+56	; 0x38
     d7e:	38 01       	movw	r6, r16
     d80:	88 24       	eor	r8, r8
     d82:	99 24       	eor	r9, r9
     d84:	98 01       	movw	r18, r16
     d86:	87 01       	movw	r16, r14
     d88:	20 70       	andi	r18, 0x00	; 0
     d8a:	30 70       	andi	r19, 0x00	; 0
     d8c:	a5 96       	adiw	r28, 0x25	; 37
     d8e:	0c af       	std	Y+60, r16	; 0x3c
     d90:	1d af       	std	Y+61, r17	; 0x3d
     d92:	2e af       	std	Y+62, r18	; 0x3e
     d94:	3f af       	std	Y+63, r19	; 0x3f
     d96:	a5 97       	sbiw	r28, 0x25	; 37
     d98:	c6 01       	movw	r24, r12
     d9a:	b5 01       	movw	r22, r10
     d9c:	a4 01       	movw	r20, r8
     d9e:	93 01       	movw	r18, r6
     da0:	0e 94 c9 2a 	call	0x5592	; 0x5592 <__udivmodsi4>
     da4:	7b 01       	movw	r14, r22
     da6:	8c 01       	movw	r16, r24
     da8:	c6 01       	movw	r24, r12
     daa:	b5 01       	movw	r22, r10
     dac:	a4 01       	movw	r20, r8
     dae:	93 01       	movw	r18, r6
     db0:	0e 94 c9 2a 	call	0x5592	; 0x5592 <__udivmodsi4>
     db4:	c9 01       	movw	r24, r18
     db6:	da 01       	movw	r26, r20
     db8:	1c 01       	movw	r2, r24
     dba:	2d 01       	movw	r4, r26
     dbc:	c2 01       	movw	r24, r4
     dbe:	b1 01       	movw	r22, r2
     dc0:	a5 96       	adiw	r28, 0x25	; 37
     dc2:	2c ad       	ldd	r18, Y+60	; 0x3c
     dc4:	3d ad       	ldd	r19, Y+61	; 0x3d
     dc6:	4e ad       	ldd	r20, Y+62	; 0x3e
     dc8:	5f ad       	ldd	r21, Y+63	; 0x3f
     dca:	a5 97       	sbiw	r28, 0x25	; 37
     dcc:	0e 94 aa 2a 	call	0x5554	; 0x5554 <__mulsi3>
     dd0:	9b 01       	movw	r18, r22
     dd2:	ac 01       	movw	r20, r24
     dd4:	87 01       	movw	r16, r14
     dd6:	ff 24       	eor	r15, r15
     dd8:	ee 24       	eor	r14, r14
     dda:	ad a4       	ldd	r10, Y+45	; 0x2d
     ddc:	be a4       	ldd	r11, Y+46	; 0x2e
     dde:	cf a4       	ldd	r12, Y+47	; 0x2f
     de0:	d8 a8       	ldd	r13, Y+48	; 0x30
     de2:	c6 01       	movw	r24, r12
     de4:	aa 27       	eor	r26, r26
     de6:	bb 27       	eor	r27, r27
     de8:	57 01       	movw	r10, r14
     dea:	68 01       	movw	r12, r16
     dec:	a8 2a       	or	r10, r24
     dee:	b9 2a       	or	r11, r25
     df0:	ca 2a       	or	r12, r26
     df2:	db 2a       	or	r13, r27
     df4:	a2 16       	cp	r10, r18
     df6:	b3 06       	cpc	r11, r19
     df8:	c4 06       	cpc	r12, r20
     dfa:	d5 06       	cpc	r13, r21
     dfc:	00 f5       	brcc	.+64     	; 0xe3e <__stack+0x5df>
     dfe:	08 94       	sec
     e00:	21 08       	sbc	r2, r1
     e02:	31 08       	sbc	r3, r1
     e04:	41 08       	sbc	r4, r1
     e06:	51 08       	sbc	r5, r1
     e08:	ed a8       	ldd	r14, Y+53	; 0x35
     e0a:	fe a8       	ldd	r15, Y+54	; 0x36
     e0c:	0f a9       	ldd	r16, Y+55	; 0x37
     e0e:	18 ad       	ldd	r17, Y+56	; 0x38
     e10:	ae 0c       	add	r10, r14
     e12:	bf 1c       	adc	r11, r15
     e14:	c0 1e       	adc	r12, r16
     e16:	d1 1e       	adc	r13, r17
     e18:	ae 14       	cp	r10, r14
     e1a:	bf 04       	cpc	r11, r15
     e1c:	c0 06       	cpc	r12, r16
     e1e:	d1 06       	cpc	r13, r17
     e20:	70 f0       	brcs	.+28     	; 0xe3e <__stack+0x5df>
     e22:	a2 16       	cp	r10, r18
     e24:	b3 06       	cpc	r11, r19
     e26:	c4 06       	cpc	r12, r20
     e28:	d5 06       	cpc	r13, r21
     e2a:	48 f4       	brcc	.+18     	; 0xe3e <__stack+0x5df>
     e2c:	08 94       	sec
     e2e:	21 08       	sbc	r2, r1
     e30:	31 08       	sbc	r3, r1
     e32:	41 08       	sbc	r4, r1
     e34:	51 08       	sbc	r5, r1
     e36:	ae 0c       	add	r10, r14
     e38:	bf 1c       	adc	r11, r15
     e3a:	c0 1e       	adc	r12, r16
     e3c:	d1 1e       	adc	r13, r17
     e3e:	a2 1a       	sub	r10, r18
     e40:	b3 0a       	sbc	r11, r19
     e42:	c4 0a       	sbc	r12, r20
     e44:	d5 0a       	sbc	r13, r21
     e46:	c6 01       	movw	r24, r12
     e48:	b5 01       	movw	r22, r10
     e4a:	a4 01       	movw	r20, r8
     e4c:	93 01       	movw	r18, r6
     e4e:	0e 94 c9 2a 	call	0x5592	; 0x5592 <__udivmodsi4>
     e52:	7b 01       	movw	r14, r22
     e54:	8c 01       	movw	r16, r24
     e56:	c6 01       	movw	r24, r12
     e58:	b5 01       	movw	r22, r10
     e5a:	a4 01       	movw	r20, r8
     e5c:	93 01       	movw	r18, r6
     e5e:	0e 94 c9 2a 	call	0x5592	; 0x5592 <__udivmodsi4>
     e62:	c9 01       	movw	r24, r18
     e64:	da 01       	movw	r26, r20
     e66:	3c 01       	movw	r6, r24
     e68:	4d 01       	movw	r8, r26
     e6a:	c4 01       	movw	r24, r8
     e6c:	b3 01       	movw	r22, r6
     e6e:	a5 96       	adiw	r28, 0x25	; 37
     e70:	2c ad       	ldd	r18, Y+60	; 0x3c
     e72:	3d ad       	ldd	r19, Y+61	; 0x3d
     e74:	4e ad       	ldd	r20, Y+62	; 0x3e
     e76:	5f ad       	ldd	r21, Y+63	; 0x3f
     e78:	a5 97       	sbiw	r28, 0x25	; 37
     e7a:	0e 94 aa 2a 	call	0x5554	; 0x5554 <__mulsi3>
     e7e:	9b 01       	movw	r18, r22
     e80:	ac 01       	movw	r20, r24
     e82:	87 01       	movw	r16, r14
     e84:	ff 24       	eor	r15, r15
     e86:	ee 24       	eor	r14, r14
     e88:	8d a5       	ldd	r24, Y+45	; 0x2d
     e8a:	9e a5       	ldd	r25, Y+46	; 0x2e
     e8c:	af a5       	ldd	r26, Y+47	; 0x2f
     e8e:	b8 a9       	ldd	r27, Y+48	; 0x30
     e90:	a0 70       	andi	r26, 0x00	; 0
     e92:	b0 70       	andi	r27, 0x00	; 0
     e94:	57 01       	movw	r10, r14
     e96:	68 01       	movw	r12, r16
     e98:	a8 2a       	or	r10, r24
     e9a:	b9 2a       	or	r11, r25
     e9c:	ca 2a       	or	r12, r26
     e9e:	db 2a       	or	r13, r27
     ea0:	a2 16       	cp	r10, r18
     ea2:	b3 06       	cpc	r11, r19
     ea4:	c4 06       	cpc	r12, r20
     ea6:	d5 06       	cpc	r13, r21
     ea8:	00 f5       	brcc	.+64     	; 0xeea <__stack+0x68b>
     eaa:	08 94       	sec
     eac:	61 08       	sbc	r6, r1
     eae:	71 08       	sbc	r7, r1
     eb0:	81 08       	sbc	r8, r1
     eb2:	91 08       	sbc	r9, r1
     eb4:	6d a9       	ldd	r22, Y+53	; 0x35
     eb6:	7e a9       	ldd	r23, Y+54	; 0x36
     eb8:	8f a9       	ldd	r24, Y+55	; 0x37
     eba:	98 ad       	ldd	r25, Y+56	; 0x38
     ebc:	a6 0e       	add	r10, r22
     ebe:	b7 1e       	adc	r11, r23
     ec0:	c8 1e       	adc	r12, r24
     ec2:	d9 1e       	adc	r13, r25
     ec4:	a6 16       	cp	r10, r22
     ec6:	b7 06       	cpc	r11, r23
     ec8:	c8 06       	cpc	r12, r24
     eca:	d9 06       	cpc	r13, r25
     ecc:	70 f0       	brcs	.+28     	; 0xeea <__stack+0x68b>
     ece:	a2 16       	cp	r10, r18
     ed0:	b3 06       	cpc	r11, r19
     ed2:	c4 06       	cpc	r12, r20
     ed4:	d5 06       	cpc	r13, r21
     ed6:	48 f4       	brcc	.+18     	; 0xeea <__stack+0x68b>
     ed8:	08 94       	sec
     eda:	61 08       	sbc	r6, r1
     edc:	71 08       	sbc	r7, r1
     ede:	81 08       	sbc	r8, r1
     ee0:	91 08       	sbc	r9, r1
     ee2:	a6 0e       	add	r10, r22
     ee4:	b7 1e       	adc	r11, r23
     ee6:	c8 1e       	adc	r12, r24
     ee8:	d9 1e       	adc	r13, r25
     eea:	d6 01       	movw	r26, r12
     eec:	c5 01       	movw	r24, r10
     eee:	82 1b       	sub	r24, r18
     ef0:	93 0b       	sbc	r25, r19
     ef2:	a4 0b       	sbc	r26, r20
     ef4:	b5 0b       	sbc	r27, r21
     ef6:	89 a7       	std	Y+41, r24	; 0x29
     ef8:	9a a7       	std	Y+42, r25	; 0x2a
     efa:	ab a7       	std	Y+43, r26	; 0x2b
     efc:	bc a7       	std	Y+44, r27	; 0x2c
     efe:	d1 01       	movw	r26, r2
     f00:	99 27       	eor	r25, r25
     f02:	88 27       	eor	r24, r24
     f04:	64 01       	movw	r12, r8
     f06:	53 01       	movw	r10, r6
     f08:	a8 2a       	or	r10, r24
     f0a:	b9 2a       	or	r11, r25
     f0c:	ca 2a       	or	r12, r26
     f0e:	db 2a       	or	r13, r27
     f10:	25 96       	adiw	r28, 0x05	; 5
     f12:	ac ae       	std	Y+60, r10	; 0x3c
     f14:	bd ae       	std	Y+61, r11	; 0x3d
     f16:	ce ae       	std	Y+62, r12	; 0x3e
     f18:	df ae       	std	Y+63, r13	; 0x3f
     f1a:	25 97       	sbiw	r28, 0x05	; 5
     f1c:	86 01       	movw	r16, r12
     f1e:	75 01       	movw	r14, r10
     f20:	2f ef       	ldi	r18, 0xFF	; 255
     f22:	3f ef       	ldi	r19, 0xFF	; 255
     f24:	40 e0       	ldi	r20, 0x00	; 0
     f26:	50 e0       	ldi	r21, 0x00	; 0
     f28:	e2 22       	and	r14, r18
     f2a:	f3 22       	and	r15, r19
     f2c:	04 23       	and	r16, r20
     f2e:	15 23       	and	r17, r21
     f30:	a6 01       	movw	r20, r12
     f32:	66 27       	eor	r22, r22
     f34:	77 27       	eor	r23, r23
     f36:	ad 96       	adiw	r28, 0x2d	; 45
     f38:	4c af       	std	Y+60, r20	; 0x3c
     f3a:	5d af       	std	Y+61, r21	; 0x3d
     f3c:	6e af       	std	Y+62, r22	; 0x3e
     f3e:	7f af       	std	Y+63, r23	; 0x3f
     f40:	ad 97       	sbiw	r28, 0x2d	; 45
     f42:	a9 a8       	ldd	r10, Y+49	; 0x31
     f44:	ba a8       	ldd	r11, Y+50	; 0x32
     f46:	cb a8       	ldd	r12, Y+51	; 0x33
     f48:	dc a8       	ldd	r13, Y+52	; 0x34
     f4a:	6f ef       	ldi	r22, 0xFF	; 255
     f4c:	7f ef       	ldi	r23, 0xFF	; 255
     f4e:	80 e0       	ldi	r24, 0x00	; 0
     f50:	90 e0       	ldi	r25, 0x00	; 0
     f52:	a6 22       	and	r10, r22
     f54:	b7 22       	and	r11, r23
     f56:	c8 22       	and	r12, r24
     f58:	d9 22       	and	r13, r25
     f5a:	89 a9       	ldd	r24, Y+49	; 0x31
     f5c:	9a a9       	ldd	r25, Y+50	; 0x32
     f5e:	ab a9       	ldd	r26, Y+51	; 0x33
     f60:	bc a9       	ldd	r27, Y+52	; 0x34
     f62:	1d 01       	movw	r2, r26
     f64:	44 24       	eor	r4, r4
     f66:	55 24       	eor	r5, r5
     f68:	c8 01       	movw	r24, r16
     f6a:	b7 01       	movw	r22, r14
     f6c:	a6 01       	movw	r20, r12
     f6e:	95 01       	movw	r18, r10
     f70:	0e 94 aa 2a 	call	0x5554	; 0x5554 <__mulsi3>
     f74:	a9 96       	adiw	r28, 0x29	; 41
     f76:	6c af       	std	Y+60, r22	; 0x3c
     f78:	7d af       	std	Y+61, r23	; 0x3d
     f7a:	8e af       	std	Y+62, r24	; 0x3e
     f7c:	9f af       	std	Y+63, r25	; 0x3f
     f7e:	a9 97       	sbiw	r28, 0x29	; 41
     f80:	c8 01       	movw	r24, r16
     f82:	b7 01       	movw	r22, r14
     f84:	a2 01       	movw	r20, r4
     f86:	91 01       	movw	r18, r2
     f88:	0e 94 aa 2a 	call	0x5554	; 0x5554 <__mulsi3>
     f8c:	3b 01       	movw	r6, r22
     f8e:	4c 01       	movw	r8, r24
     f90:	ad 96       	adiw	r28, 0x2d	; 45
     f92:	6c ad       	ldd	r22, Y+60	; 0x3c
     f94:	7d ad       	ldd	r23, Y+61	; 0x3d
     f96:	8e ad       	ldd	r24, Y+62	; 0x3e
     f98:	9f ad       	ldd	r25, Y+63	; 0x3f
     f9a:	ad 97       	sbiw	r28, 0x2d	; 45
     f9c:	a6 01       	movw	r20, r12
     f9e:	95 01       	movw	r18, r10
     fa0:	0e 94 aa 2a 	call	0x5554	; 0x5554 <__mulsi3>
     fa4:	7b 01       	movw	r14, r22
     fa6:	8c 01       	movw	r16, r24
     fa8:	ad 96       	adiw	r28, 0x2d	; 45
     faa:	6c ad       	ldd	r22, Y+60	; 0x3c
     fac:	7d ad       	ldd	r23, Y+61	; 0x3d
     fae:	8e ad       	ldd	r24, Y+62	; 0x3e
     fb0:	9f ad       	ldd	r25, Y+63	; 0x3f
     fb2:	ad 97       	sbiw	r28, 0x2d	; 45
     fb4:	a2 01       	movw	r20, r4
     fb6:	91 01       	movw	r18, r2
     fb8:	0e 94 aa 2a 	call	0x5554	; 0x5554 <__mulsi3>
     fbc:	5b 01       	movw	r10, r22
     fbe:	6c 01       	movw	r12, r24
     fc0:	a8 01       	movw	r20, r16
     fc2:	97 01       	movw	r18, r14
     fc4:	26 0d       	add	r18, r6
     fc6:	37 1d       	adc	r19, r7
     fc8:	48 1d       	adc	r20, r8
     fca:	59 1d       	adc	r21, r9
     fcc:	a9 96       	adiw	r28, 0x29	; 41
     fce:	6c ac       	ldd	r6, Y+60	; 0x3c
     fd0:	7d ac       	ldd	r7, Y+61	; 0x3d
     fd2:	8e ac       	ldd	r8, Y+62	; 0x3e
     fd4:	9f ac       	ldd	r9, Y+63	; 0x3f
     fd6:	a9 97       	sbiw	r28, 0x29	; 41
     fd8:	c4 01       	movw	r24, r8
     fda:	aa 27       	eor	r26, r26
     fdc:	bb 27       	eor	r27, r27
     fde:	28 0f       	add	r18, r24
     fe0:	39 1f       	adc	r19, r25
     fe2:	4a 1f       	adc	r20, r26
     fe4:	5b 1f       	adc	r21, r27
     fe6:	2e 15       	cp	r18, r14
     fe8:	3f 05       	cpc	r19, r15
     fea:	40 07       	cpc	r20, r16
     fec:	51 07       	cpc	r21, r17
     fee:	48 f4       	brcc	.+18     	; 0x1002 <__stack+0x7a3>
     ff0:	e1 2c       	mov	r14, r1
     ff2:	f1 2c       	mov	r15, r1
     ff4:	61 e0       	ldi	r22, 0x01	; 1
     ff6:	06 2f       	mov	r16, r22
     ff8:	11 2d       	mov	r17, r1
     ffa:	ae 0c       	add	r10, r14
     ffc:	bf 1c       	adc	r11, r15
     ffe:	c0 1e       	adc	r12, r16
    1000:	d1 1e       	adc	r13, r17
    1002:	ca 01       	movw	r24, r20
    1004:	aa 27       	eor	r26, r26
    1006:	bb 27       	eor	r27, r27
    1008:	bc 01       	movw	r22, r24
    100a:	cd 01       	movw	r24, r26
    100c:	6a 0d       	add	r22, r10
    100e:	7b 1d       	adc	r23, r11
    1010:	8c 1d       	adc	r24, r12
    1012:	9d 1d       	adc	r25, r13
    1014:	69 a4       	ldd	r6, Y+41	; 0x29
    1016:	7a a4       	ldd	r7, Y+42	; 0x2a
    1018:	8b a4       	ldd	r8, Y+43	; 0x2b
    101a:	9c a4       	ldd	r9, Y+44	; 0x2c
    101c:	66 16       	cp	r6, r22
    101e:	77 06       	cpc	r7, r23
    1020:	88 06       	cpc	r8, r24
    1022:	99 06       	cpc	r9, r25
    1024:	50 f1       	brcs	.+84     	; 0x107a <__stack+0x81b>
    1026:	66 15       	cp	r22, r6
    1028:	77 05       	cpc	r23, r7
    102a:	88 05       	cpc	r24, r8
    102c:	99 05       	cpc	r25, r9
    102e:	09 f0       	breq	.+2      	; 0x1032 <__stack+0x7d3>
    1030:	4d c0       	rjmp	.+154    	; 0x10cc <__stack+0x86d>
    1032:	d9 01       	movw	r26, r18
    1034:	99 27       	eor	r25, r25
    1036:	88 27       	eor	r24, r24
    1038:	a9 96       	adiw	r28, 0x29	; 41
    103a:	2c ad       	ldd	r18, Y+60	; 0x3c
    103c:	3d ad       	ldd	r19, Y+61	; 0x3d
    103e:	4e ad       	ldd	r20, Y+62	; 0x3e
    1040:	5f ad       	ldd	r21, Y+63	; 0x3f
    1042:	a9 97       	sbiw	r28, 0x29	; 41
    1044:	40 70       	andi	r20, 0x00	; 0
    1046:	50 70       	andi	r21, 0x00	; 0
    1048:	82 0f       	add	r24, r18
    104a:	93 1f       	adc	r25, r19
    104c:	a4 1f       	adc	r26, r20
    104e:	b5 1f       	adc	r27, r21
    1050:	21 96       	adiw	r28, 0x01	; 1
    1052:	2c ad       	ldd	r18, Y+60	; 0x3c
    1054:	3d ad       	ldd	r19, Y+61	; 0x3d
    1056:	4e ad       	ldd	r20, Y+62	; 0x3e
    1058:	5f ad       	ldd	r21, Y+63	; 0x3f
    105a:	21 97       	sbiw	r28, 0x01	; 1
    105c:	e2 96       	adiw	r28, 0x32	; 50
    105e:	0f ac       	ldd	r0, Y+63	; 0x3f
    1060:	e2 97       	sbiw	r28, 0x32	; 50
    1062:	04 c0       	rjmp	.+8      	; 0x106c <__stack+0x80d>
    1064:	22 0f       	add	r18, r18
    1066:	33 1f       	adc	r19, r19
    1068:	44 1f       	adc	r20, r20
    106a:	55 1f       	adc	r21, r21
    106c:	0a 94       	dec	r0
    106e:	d2 f7       	brpl	.-12     	; 0x1064 <__stack+0x805>
    1070:	28 17       	cp	r18, r24
    1072:	39 07       	cpc	r19, r25
    1074:	4a 07       	cpc	r20, r26
    1076:	5b 07       	cpc	r21, r27
    1078:	48 f5       	brcc	.+82     	; 0x10cc <__stack+0x86d>
    107a:	25 96       	adiw	r28, 0x05	; 5
    107c:	0c ad       	ldd	r16, Y+60	; 0x3c
    107e:	1d ad       	ldd	r17, Y+61	; 0x3d
    1080:	2e ad       	ldd	r18, Y+62	; 0x3e
    1082:	3f ad       	ldd	r19, Y+63	; 0x3f
    1084:	25 97       	sbiw	r28, 0x05	; 5
    1086:	01 50       	subi	r16, 0x01	; 1
    1088:	10 40       	sbci	r17, 0x00	; 0
    108a:	20 40       	sbci	r18, 0x00	; 0
    108c:	30 40       	sbci	r19, 0x00	; 0
    108e:	25 96       	adiw	r28, 0x05	; 5
    1090:	0c af       	std	Y+60, r16	; 0x3c
    1092:	1d af       	std	Y+61, r17	; 0x3d
    1094:	2e af       	std	Y+62, r18	; 0x3e
    1096:	3f af       	std	Y+63, r19	; 0x3f
    1098:	25 97       	sbiw	r28, 0x05	; 5
    109a:	18 c0       	rjmp	.+48     	; 0x10cc <__stack+0x86d>
    109c:	66 24       	eor	r6, r6
    109e:	77 24       	eor	r7, r7
    10a0:	43 01       	movw	r8, r6
    10a2:	21 e0       	ldi	r18, 0x01	; 1
    10a4:	30 e0       	ldi	r19, 0x00	; 0
    10a6:	40 e0       	ldi	r20, 0x00	; 0
    10a8:	50 e0       	ldi	r21, 0x00	; 0
    10aa:	25 96       	adiw	r28, 0x05	; 5
    10ac:	2c af       	std	Y+60, r18	; 0x3c
    10ae:	3d af       	std	Y+61, r19	; 0x3d
    10b0:	4e af       	std	Y+62, r20	; 0x3e
    10b2:	5f af       	std	Y+63, r21	; 0x3f
    10b4:	25 97       	sbiw	r28, 0x05	; 5
    10b6:	0d c0       	rjmp	.+26     	; 0x10d2 <__stack+0x873>
    10b8:	66 24       	eor	r6, r6
    10ba:	77 24       	eor	r7, r7
    10bc:	43 01       	movw	r8, r6
    10be:	25 96       	adiw	r28, 0x05	; 5
    10c0:	1c ae       	std	Y+60, r1	; 0x3c
    10c2:	1d ae       	std	Y+61, r1	; 0x3d
    10c4:	1e ae       	std	Y+62, r1	; 0x3e
    10c6:	1f ae       	std	Y+63, r1	; 0x3f
    10c8:	25 97       	sbiw	r28, 0x05	; 5
    10ca:	03 c0       	rjmp	.+6      	; 0x10d2 <__stack+0x873>
    10cc:	66 24       	eor	r6, r6
    10ce:	77 24       	eor	r7, r7
    10d0:	43 01       	movw	r8, r6
    10d2:	fe 01       	movw	r30, r28
    10d4:	b1 96       	adiw	r30, 0x21	; 33
    10d6:	88 e0       	ldi	r24, 0x08	; 8
    10d8:	df 01       	movw	r26, r30
    10da:	1d 92       	st	X+, r1
    10dc:	8a 95       	dec	r24
    10de:	e9 f7       	brne	.-6      	; 0x10da <__stack+0x87b>
    10e0:	25 96       	adiw	r28, 0x05	; 5
    10e2:	ac ac       	ldd	r10, Y+60	; 0x3c
    10e4:	bd ac       	ldd	r11, Y+61	; 0x3d
    10e6:	ce ac       	ldd	r12, Y+62	; 0x3e
    10e8:	df ac       	ldd	r13, Y+63	; 0x3f
    10ea:	25 97       	sbiw	r28, 0x05	; 5
    10ec:	a9 a2       	std	Y+33, r10	; 0x21
    10ee:	ba a2       	std	Y+34, r11	; 0x22
    10f0:	cb a2       	std	Y+35, r12	; 0x23
    10f2:	dc a2       	std	Y+36, r13	; 0x24
    10f4:	6d a2       	std	Y+37, r6	; 0x25
    10f6:	7e a2       	std	Y+38, r7	; 0x26
    10f8:	8f a2       	std	Y+39, r8	; 0x27
    10fa:	98 a6       	std	Y+40, r9	; 0x28
    10fc:	22 96       	adiw	r28, 0x02	; 2
    10fe:	2f ad       	ldd	r18, Y+63	; 0x3f
    1100:	22 97       	sbiw	r28, 0x02	; 2
    1102:	3a a1       	ldd	r19, Y+34	; 0x22
    1104:	4b a1       	ldd	r20, Y+35	; 0x23
    1106:	5c a1       	ldd	r21, Y+36	; 0x24
    1108:	66 2d       	mov	r22, r6
    110a:	7e a1       	ldd	r23, Y+38	; 0x26
    110c:	df a0       	ldd	r13, Y+39	; 0x27
    110e:	98 a5       	ldd	r25, Y+40	; 0x28
    1110:	e1 96       	adiw	r28, 0x31	; 49
    1112:	ec ac       	ldd	r14, Y+60	; 0x3c
    1114:	fd ac       	ldd	r15, Y+61	; 0x3d
    1116:	0e ad       	ldd	r16, Y+62	; 0x3e
    1118:	1f ad       	ldd	r17, Y+63	; 0x3f
    111a:	e1 97       	sbiw	r28, 0x31	; 49
    111c:	e1 14       	cp	r14, r1
    111e:	f1 04       	cpc	r15, r1
    1120:	01 05       	cpc	r16, r1
    1122:	11 05       	cpc	r17, r1
    1124:	09 f4       	brne	.+2      	; 0x1128 <__stack+0x8c9>
    1126:	56 c0       	rjmp	.+172    	; 0x11d4 <__stack+0x975>
    1128:	21 95       	neg	r18
    112a:	81 e0       	ldi	r24, 0x01	; 1
    112c:	12 16       	cp	r1, r18
    112e:	08 f0       	brcs	.+2      	; 0x1132 <__stack+0x8d3>
    1130:	80 e0       	ldi	r24, 0x00	; 0
    1132:	31 95       	neg	r19
    1134:	e1 e0       	ldi	r30, 0x01	; 1
    1136:	13 16       	cp	r1, r19
    1138:	08 f0       	brcs	.+2      	; 0x113c <__stack+0x8dd>
    113a:	e0 e0       	ldi	r30, 0x00	; 0
    113c:	93 2e       	mov	r9, r19
    113e:	98 1a       	sub	r9, r24
    1140:	81 e0       	ldi	r24, 0x01	; 1
    1142:	39 15       	cp	r19, r9
    1144:	08 f0       	brcs	.+2      	; 0x1148 <__stack+0x8e9>
    1146:	80 e0       	ldi	r24, 0x00	; 0
    1148:	e8 2b       	or	r30, r24
    114a:	41 95       	neg	r20
    114c:	f1 e0       	ldi	r31, 0x01	; 1
    114e:	14 16       	cp	r1, r20
    1150:	08 f0       	brcs	.+2      	; 0x1154 <__stack+0x8f5>
    1152:	f0 e0       	ldi	r31, 0x00	; 0
    1154:	a4 2e       	mov	r10, r20
    1156:	ae 1a       	sub	r10, r30
    1158:	81 e0       	ldi	r24, 0x01	; 1
    115a:	4a 15       	cp	r20, r10
    115c:	08 f0       	brcs	.+2      	; 0x1160 <__stack+0x901>
    115e:	80 e0       	ldi	r24, 0x00	; 0
    1160:	f8 2b       	or	r31, r24
    1162:	51 95       	neg	r21
    1164:	e1 e0       	ldi	r30, 0x01	; 1
    1166:	15 16       	cp	r1, r21
    1168:	08 f0       	brcs	.+2      	; 0x116c <__stack+0x90d>
    116a:	e0 e0       	ldi	r30, 0x00	; 0
    116c:	b5 2e       	mov	r11, r21
    116e:	bf 1a       	sub	r11, r31
    1170:	81 e0       	ldi	r24, 0x01	; 1
    1172:	5b 15       	cp	r21, r11
    1174:	08 f0       	brcs	.+2      	; 0x1178 <__stack+0x919>
    1176:	80 e0       	ldi	r24, 0x00	; 0
    1178:	e8 2b       	or	r30, r24
    117a:	61 95       	neg	r22
    117c:	f1 e0       	ldi	r31, 0x01	; 1
    117e:	16 16       	cp	r1, r22
    1180:	08 f0       	brcs	.+2      	; 0x1184 <__stack+0x925>
    1182:	f0 e0       	ldi	r31, 0x00	; 0
    1184:	a6 2f       	mov	r26, r22
    1186:	ae 1b       	sub	r26, r30
    1188:	81 e0       	ldi	r24, 0x01	; 1
    118a:	6a 17       	cp	r22, r26
    118c:	08 f0       	brcs	.+2      	; 0x1190 <__stack+0x931>
    118e:	80 e0       	ldi	r24, 0x00	; 0
    1190:	f8 2b       	or	r31, r24
    1192:	71 95       	neg	r23
    1194:	e1 e0       	ldi	r30, 0x01	; 1
    1196:	17 16       	cp	r1, r23
    1198:	08 f0       	brcs	.+2      	; 0x119c <__stack+0x93d>
    119a:	e0 e0       	ldi	r30, 0x00	; 0
    119c:	c7 2e       	mov	r12, r23
    119e:	cf 1a       	sub	r12, r31
    11a0:	81 e0       	ldi	r24, 0x01	; 1
    11a2:	7c 15       	cp	r23, r12
    11a4:	08 f0       	brcs	.+2      	; 0x11a8 <__stack+0x949>
    11a6:	80 e0       	ldi	r24, 0x00	; 0
    11a8:	e8 2b       	or	r30, r24
    11aa:	8d 2d       	mov	r24, r13
    11ac:	81 95       	neg	r24
    11ae:	f1 e0       	ldi	r31, 0x01	; 1
    11b0:	18 16       	cp	r1, r24
    11b2:	08 f0       	brcs	.+2      	; 0x11b6 <__stack+0x957>
    11b4:	f0 e0       	ldi	r31, 0x00	; 0
    11b6:	d8 2e       	mov	r13, r24
    11b8:	de 1a       	sub	r13, r30
    11ba:	e1 e0       	ldi	r30, 0x01	; 1
    11bc:	8d 15       	cp	r24, r13
    11be:	08 f0       	brcs	.+2      	; 0x11c2 <__stack+0x963>
    11c0:	e0 e0       	ldi	r30, 0x00	; 0
    11c2:	fe 2b       	or	r31, r30
    11c4:	89 2f       	mov	r24, r25
    11c6:	81 95       	neg	r24
    11c8:	39 2d       	mov	r19, r9
    11ca:	a5 01       	movw	r20, r10
    11cc:	6a 2f       	mov	r22, r26
    11ce:	7c 2d       	mov	r23, r12
    11d0:	98 2f       	mov	r25, r24
    11d2:	9f 1b       	sub	r25, r31
    11d4:	8d 2d       	mov	r24, r13
    11d6:	ce 58       	subi	r28, 0x8E	; 142
    11d8:	df 4f       	sbci	r29, 0xFF	; 255
    11da:	e2 e1       	ldi	r30, 0x12	; 18
    11dc:	0c 94 07 2b 	jmp	0x560e	; 0x560e <__epilogue_restores__>

000011e0 <__moddi3>:
    11e0:	a7 e7       	ldi	r26, 0x77	; 119
    11e2:	b0 e0       	ldi	r27, 0x00	; 0
    11e4:	e6 ef       	ldi	r30, 0xF6	; 246
    11e6:	f8 e0       	ldi	r31, 0x08	; 8
    11e8:	0c 94 eb 2a 	jmp	0x55d6	; 0x55d6 <__prologue_saves__>
    11ec:	98 2e       	mov	r9, r24
    11ee:	89 2e       	mov	r8, r25
    11f0:	71 2e       	mov	r7, r17
    11f2:	88 e0       	ldi	r24, 0x08	; 8
    11f4:	fe 01       	movw	r30, r28
    11f6:	31 96       	adiw	r30, 0x01	; 1
    11f8:	df 01       	movw	r26, r30
    11fa:	68 2e       	mov	r6, r24
    11fc:	1d 92       	st	X+, r1
    11fe:	6a 94       	dec	r6
    1200:	e9 f7       	brne	.-6      	; 0x11fc <__moddi3+0x1c>
    1202:	29 83       	std	Y+1, r18	; 0x01
    1204:	3a 83       	std	Y+2, r19	; 0x02
    1206:	4b 83       	std	Y+3, r20	; 0x03
    1208:	5c 83       	std	Y+4, r21	; 0x04
    120a:	6d 83       	std	Y+5, r22	; 0x05
    120c:	7e 83       	std	Y+6, r23	; 0x06
    120e:	9f 82       	std	Y+7, r9	; 0x07
    1210:	98 87       	std	Y+8, r25	; 0x08
    1212:	fe 01       	movw	r30, r28
    1214:	39 96       	adiw	r30, 0x09	; 9
    1216:	df 01       	movw	r26, r30
    1218:	1d 92       	st	X+, r1
    121a:	8a 95       	dec	r24
    121c:	e9 f7       	brne	.-6      	; 0x1218 <__moddi3+0x38>
    121e:	a9 86       	std	Y+9, r10	; 0x09
    1220:	ba 86       	std	Y+10, r11	; 0x0a
    1222:	cb 86       	std	Y+11, r12	; 0x0b
    1224:	dc 86       	std	Y+12, r13	; 0x0c
    1226:	ed 86       	std	Y+13, r14	; 0x0d
    1228:	fe 86       	std	Y+14, r15	; 0x0e
    122a:	0f 87       	std	Y+15, r16	; 0x0f
    122c:	18 8b       	std	Y+16, r17	; 0x10
    122e:	8d 81       	ldd	r24, Y+5	; 0x05
    1230:	9e 81       	ldd	r25, Y+6	; 0x06
    1232:	af 81       	ldd	r26, Y+7	; 0x07
    1234:	b8 85       	ldd	r27, Y+8	; 0x08
    1236:	b7 fd       	sbrc	r27, 7
    1238:	07 c0       	rjmp	.+14     	; 0x1248 <__moddi3+0x68>
    123a:	e1 96       	adiw	r28, 0x31	; 49
    123c:	1c ae       	std	Y+60, r1	; 0x3c
    123e:	1d ae       	std	Y+61, r1	; 0x3d
    1240:	1e ae       	std	Y+62, r1	; 0x3e
    1242:	1f ae       	std	Y+63, r1	; 0x3f
    1244:	e1 97       	sbiw	r28, 0x31	; 49
    1246:	64 c0       	rjmp	.+200    	; 0x1310 <__moddi3+0x130>
    1248:	21 95       	neg	r18
    124a:	81 e0       	ldi	r24, 0x01	; 1
    124c:	12 16       	cp	r1, r18
    124e:	08 f0       	brcs	.+2      	; 0x1252 <__moddi3+0x72>
    1250:	80 e0       	ldi	r24, 0x00	; 0
    1252:	31 95       	neg	r19
    1254:	91 e0       	ldi	r25, 0x01	; 1
    1256:	13 16       	cp	r1, r19
    1258:	08 f0       	brcs	.+2      	; 0x125c <__moddi3+0x7c>
    125a:	90 e0       	ldi	r25, 0x00	; 0
    125c:	b3 2f       	mov	r27, r19
    125e:	b8 1b       	sub	r27, r24
    1260:	81 e0       	ldi	r24, 0x01	; 1
    1262:	3b 17       	cp	r19, r27
    1264:	08 f0       	brcs	.+2      	; 0x1268 <__moddi3+0x88>
    1266:	80 e0       	ldi	r24, 0x00	; 0
    1268:	98 2b       	or	r25, r24
    126a:	41 95       	neg	r20
    126c:	31 e0       	ldi	r19, 0x01	; 1
    126e:	14 16       	cp	r1, r20
    1270:	08 f0       	brcs	.+2      	; 0x1274 <__moddi3+0x94>
    1272:	30 e0       	ldi	r19, 0x00	; 0
    1274:	a4 2f       	mov	r26, r20
    1276:	a9 1b       	sub	r26, r25
    1278:	81 e0       	ldi	r24, 0x01	; 1
    127a:	4a 17       	cp	r20, r26
    127c:	08 f0       	brcs	.+2      	; 0x1280 <__moddi3+0xa0>
    127e:	80 e0       	ldi	r24, 0x00	; 0
    1280:	38 2b       	or	r19, r24
    1282:	51 95       	neg	r21
    1284:	91 e0       	ldi	r25, 0x01	; 1
    1286:	15 16       	cp	r1, r21
    1288:	08 f0       	brcs	.+2      	; 0x128c <__moddi3+0xac>
    128a:	90 e0       	ldi	r25, 0x00	; 0
    128c:	f5 2f       	mov	r31, r21
    128e:	f3 1b       	sub	r31, r19
    1290:	81 e0       	ldi	r24, 0x01	; 1
    1292:	5f 17       	cp	r21, r31
    1294:	08 f0       	brcs	.+2      	; 0x1298 <__moddi3+0xb8>
    1296:	80 e0       	ldi	r24, 0x00	; 0
    1298:	98 2b       	or	r25, r24
    129a:	61 95       	neg	r22
    129c:	31 e0       	ldi	r19, 0x01	; 1
    129e:	16 16       	cp	r1, r22
    12a0:	08 f0       	brcs	.+2      	; 0x12a4 <__moddi3+0xc4>
    12a2:	30 e0       	ldi	r19, 0x00	; 0
    12a4:	e6 2f       	mov	r30, r22
    12a6:	e9 1b       	sub	r30, r25
    12a8:	81 e0       	ldi	r24, 0x01	; 1
    12aa:	6e 17       	cp	r22, r30
    12ac:	08 f0       	brcs	.+2      	; 0x12b0 <__moddi3+0xd0>
    12ae:	80 e0       	ldi	r24, 0x00	; 0
    12b0:	38 2b       	or	r19, r24
    12b2:	71 95       	neg	r23
    12b4:	41 e0       	ldi	r20, 0x01	; 1
    12b6:	17 16       	cp	r1, r23
    12b8:	08 f0       	brcs	.+2      	; 0x12bc <__moddi3+0xdc>
    12ba:	40 e0       	ldi	r20, 0x00	; 0
    12bc:	57 2f       	mov	r21, r23
    12be:	53 1b       	sub	r21, r19
    12c0:	81 e0       	ldi	r24, 0x01	; 1
    12c2:	75 17       	cp	r23, r21
    12c4:	08 f0       	brcs	.+2      	; 0x12c8 <__moddi3+0xe8>
    12c6:	80 e0       	ldi	r24, 0x00	; 0
    12c8:	48 2b       	or	r20, r24
    12ca:	89 2d       	mov	r24, r9
    12cc:	81 95       	neg	r24
    12ce:	91 e0       	ldi	r25, 0x01	; 1
    12d0:	18 16       	cp	r1, r24
    12d2:	08 f0       	brcs	.+2      	; 0x12d6 <__moddi3+0xf6>
    12d4:	90 e0       	ldi	r25, 0x00	; 0
    12d6:	68 2e       	mov	r6, r24
    12d8:	64 1a       	sub	r6, r20
    12da:	46 2d       	mov	r20, r6
    12dc:	31 e0       	ldi	r19, 0x01	; 1
    12de:	86 15       	cp	r24, r6
    12e0:	08 f0       	brcs	.+2      	; 0x12e4 <__moddi3+0x104>
    12e2:	30 e0       	ldi	r19, 0x00	; 0
    12e4:	93 2b       	or	r25, r19
    12e6:	88 2d       	mov	r24, r8
    12e8:	81 95       	neg	r24
    12ea:	89 1b       	sub	r24, r25
    12ec:	29 83       	std	Y+1, r18	; 0x01
    12ee:	ba 83       	std	Y+2, r27	; 0x02
    12f0:	ab 83       	std	Y+3, r26	; 0x03
    12f2:	fc 83       	std	Y+4, r31	; 0x04
    12f4:	ed 83       	std	Y+5, r30	; 0x05
    12f6:	5e 83       	std	Y+6, r21	; 0x06
    12f8:	4f 83       	std	Y+7, r20	; 0x07
    12fa:	88 87       	std	Y+8, r24	; 0x08
    12fc:	2f ef       	ldi	r18, 0xFF	; 255
    12fe:	3f ef       	ldi	r19, 0xFF	; 255
    1300:	4f ef       	ldi	r20, 0xFF	; 255
    1302:	5f ef       	ldi	r21, 0xFF	; 255
    1304:	e1 96       	adiw	r28, 0x31	; 49
    1306:	2c af       	std	Y+60, r18	; 0x3c
    1308:	3d af       	std	Y+61, r19	; 0x3d
    130a:	4e af       	std	Y+62, r20	; 0x3e
    130c:	5f af       	std	Y+63, r21	; 0x3f
    130e:	e1 97       	sbiw	r28, 0x31	; 49
    1310:	8d 85       	ldd	r24, Y+13	; 0x0d
    1312:	9e 85       	ldd	r25, Y+14	; 0x0e
    1314:	af 85       	ldd	r26, Y+15	; 0x0f
    1316:	b8 89       	ldd	r27, Y+16	; 0x10
    1318:	b7 ff       	sbrs	r27, 7
    131a:	5a c0       	rjmp	.+180    	; 0x13d0 <__moddi3+0x1f0>
    131c:	a1 94       	neg	r10
    131e:	81 e0       	ldi	r24, 0x01	; 1
    1320:	1a 14       	cp	r1, r10
    1322:	08 f0       	brcs	.+2      	; 0x1326 <__moddi3+0x146>
    1324:	80 e0       	ldi	r24, 0x00	; 0
    1326:	b1 94       	neg	r11
    1328:	91 e0       	ldi	r25, 0x01	; 1
    132a:	1b 14       	cp	r1, r11
    132c:	08 f0       	brcs	.+2      	; 0x1330 <__moddi3+0x150>
    132e:	90 e0       	ldi	r25, 0x00	; 0
    1330:	6b 2d       	mov	r22, r11
    1332:	68 1b       	sub	r22, r24
    1334:	81 e0       	ldi	r24, 0x01	; 1
    1336:	b6 16       	cp	r11, r22
    1338:	08 f0       	brcs	.+2      	; 0x133c <__moddi3+0x15c>
    133a:	80 e0       	ldi	r24, 0x00	; 0
    133c:	98 2b       	or	r25, r24
    133e:	c1 94       	neg	r12
    1340:	21 e0       	ldi	r18, 0x01	; 1
    1342:	1c 14       	cp	r1, r12
    1344:	08 f0       	brcs	.+2      	; 0x1348 <__moddi3+0x168>
    1346:	20 e0       	ldi	r18, 0x00	; 0
    1348:	5c 2d       	mov	r21, r12
    134a:	59 1b       	sub	r21, r25
    134c:	81 e0       	ldi	r24, 0x01	; 1
    134e:	c5 16       	cp	r12, r21
    1350:	08 f0       	brcs	.+2      	; 0x1354 <__moddi3+0x174>
    1352:	80 e0       	ldi	r24, 0x00	; 0
    1354:	28 2b       	or	r18, r24
    1356:	d1 94       	neg	r13
    1358:	91 e0       	ldi	r25, 0x01	; 1
    135a:	1d 14       	cp	r1, r13
    135c:	08 f0       	brcs	.+2      	; 0x1360 <__moddi3+0x180>
    135e:	90 e0       	ldi	r25, 0x00	; 0
    1360:	4d 2d       	mov	r20, r13
    1362:	42 1b       	sub	r20, r18
    1364:	81 e0       	ldi	r24, 0x01	; 1
    1366:	d4 16       	cp	r13, r20
    1368:	08 f0       	brcs	.+2      	; 0x136c <__moddi3+0x18c>
    136a:	80 e0       	ldi	r24, 0x00	; 0
    136c:	98 2b       	or	r25, r24
    136e:	e1 94       	neg	r14
    1370:	21 e0       	ldi	r18, 0x01	; 1
    1372:	1e 14       	cp	r1, r14
    1374:	08 f0       	brcs	.+2      	; 0x1378 <__moddi3+0x198>
    1376:	20 e0       	ldi	r18, 0x00	; 0
    1378:	3e 2d       	mov	r19, r14
    137a:	39 1b       	sub	r19, r25
    137c:	81 e0       	ldi	r24, 0x01	; 1
    137e:	e3 16       	cp	r14, r19
    1380:	08 f0       	brcs	.+2      	; 0x1384 <__moddi3+0x1a4>
    1382:	80 e0       	ldi	r24, 0x00	; 0
    1384:	28 2b       	or	r18, r24
    1386:	f1 94       	neg	r15
    1388:	91 e0       	ldi	r25, 0x01	; 1
    138a:	1f 14       	cp	r1, r15
    138c:	08 f0       	brcs	.+2      	; 0x1390 <__moddi3+0x1b0>
    138e:	90 e0       	ldi	r25, 0x00	; 0
    1390:	7f 2d       	mov	r23, r15
    1392:	72 1b       	sub	r23, r18
    1394:	27 2f       	mov	r18, r23
    1396:	81 e0       	ldi	r24, 0x01	; 1
    1398:	f7 16       	cp	r15, r23
    139a:	08 f0       	brcs	.+2      	; 0x139e <__moddi3+0x1be>
    139c:	80 e0       	ldi	r24, 0x00	; 0
    139e:	98 2b       	or	r25, r24
    13a0:	01 95       	neg	r16
    13a2:	11 e0       	ldi	r17, 0x01	; 1
    13a4:	10 16       	cp	r1, r16
    13a6:	08 f0       	brcs	.+2      	; 0x13aa <__moddi3+0x1ca>
    13a8:	10 e0       	ldi	r17, 0x00	; 0
    13aa:	80 2f       	mov	r24, r16
    13ac:	89 1b       	sub	r24, r25
    13ae:	98 2f       	mov	r25, r24
    13b0:	81 e0       	ldi	r24, 0x01	; 1
    13b2:	09 17       	cp	r16, r25
    13b4:	08 f0       	brcs	.+2      	; 0x13b8 <__moddi3+0x1d8>
    13b6:	80 e0       	ldi	r24, 0x00	; 0
    13b8:	18 2b       	or	r17, r24
    13ba:	87 2d       	mov	r24, r7
    13bc:	81 95       	neg	r24
    13be:	81 1b       	sub	r24, r17
    13c0:	a9 86       	std	Y+9, r10	; 0x09
    13c2:	6a 87       	std	Y+10, r22	; 0x0a
    13c4:	5b 87       	std	Y+11, r21	; 0x0b
    13c6:	4c 87       	std	Y+12, r20	; 0x0c
    13c8:	3d 87       	std	Y+13, r19	; 0x0d
    13ca:	2e 87       	std	Y+14, r18	; 0x0e
    13cc:	9f 87       	std	Y+15, r25	; 0x0f
    13ce:	88 8b       	std	Y+16, r24	; 0x10
    13d0:	99 81       	ldd	r25, Y+1	; 0x01
    13d2:	2a 81       	ldd	r18, Y+2	; 0x02
    13d4:	3b 81       	ldd	r19, Y+3	; 0x03
    13d6:	4c 81       	ldd	r20, Y+4	; 0x04
    13d8:	5d 81       	ldd	r21, Y+5	; 0x05
    13da:	6e 81       	ldd	r22, Y+6	; 0x06
    13dc:	7f 81       	ldd	r23, Y+7	; 0x07
    13de:	a8 85       	ldd	r26, Y+8	; 0x08
    13e0:	b9 85       	ldd	r27, Y+9	; 0x09
    13e2:	1a 85       	ldd	r17, Y+10	; 0x0a
    13e4:	0b 85       	ldd	r16, Y+11	; 0x0b
    13e6:	fc 84       	ldd	r15, Y+12	; 0x0c
    13e8:	ed 84       	ldd	r14, Y+13	; 0x0d
    13ea:	de 84       	ldd	r13, Y+14	; 0x0e
    13ec:	cf 84       	ldd	r12, Y+15	; 0x0f
    13ee:	b8 88       	ldd	r11, Y+16	; 0x10
    13f0:	88 e0       	ldi	r24, 0x08	; 8
    13f2:	e9 e1       	ldi	r30, 0x19	; 25
    13f4:	8e 2e       	mov	r8, r30
    13f6:	91 2c       	mov	r9, r1
    13f8:	8c 0e       	add	r8, r28
    13fa:	9d 1e       	adc	r9, r29
    13fc:	f4 01       	movw	r30, r8
    13fe:	68 2e       	mov	r6, r24
    1400:	11 92       	st	Z+, r1
    1402:	6a 94       	dec	r6
    1404:	e9 f7       	brne	.-6      	; 0x1400 <__moddi3+0x220>
    1406:	99 8f       	std	Y+25, r25	; 0x19
    1408:	2a 8f       	std	Y+26, r18	; 0x1a
    140a:	3b 8f       	std	Y+27, r19	; 0x1b
    140c:	4c 8f       	std	Y+28, r20	; 0x1c
    140e:	5d 8f       	std	Y+29, r21	; 0x1d
    1410:	6e 8f       	std	Y+30, r22	; 0x1e
    1412:	7f 8f       	std	Y+31, r23	; 0x1f
    1414:	a8 a3       	std	Y+32, r26	; 0x20
    1416:	9e 01       	movw	r18, r28
    1418:	2f 5d       	subi	r18, 0xDF	; 223
    141a:	3f 4f       	sbci	r19, 0xFF	; 255
    141c:	f9 01       	movw	r30, r18
    141e:	11 92       	st	Z+, r1
    1420:	8a 95       	dec	r24
    1422:	e9 f7       	brne	.-6      	; 0x141e <__moddi3+0x23e>
    1424:	b9 a3       	std	Y+33, r27	; 0x21
    1426:	1a a3       	std	Y+34, r17	; 0x22
    1428:	0b a3       	std	Y+35, r16	; 0x23
    142a:	fc a2       	std	Y+36, r15	; 0x24
    142c:	ed a2       	std	Y+37, r14	; 0x25
    142e:	de a2       	std	Y+38, r13	; 0x26
    1430:	cf a2       	std	Y+39, r12	; 0x27
    1432:	b8 a6       	std	Y+40, r11	; 0x28
    1434:	29 a0       	ldd	r2, Y+33	; 0x21
    1436:	3a a0       	ldd	r3, Y+34	; 0x22
    1438:	4b a0       	ldd	r4, Y+35	; 0x23
    143a:	5c a0       	ldd	r5, Y+36	; 0x24
    143c:	ad a0       	ldd	r10, Y+37	; 0x25
    143e:	be a0       	ldd	r11, Y+38	; 0x26
    1440:	cf a0       	ldd	r12, Y+39	; 0x27
    1442:	d8 a4       	ldd	r13, Y+40	; 0x28
    1444:	49 8d       	ldd	r20, Y+25	; 0x19
    1446:	5a 8d       	ldd	r21, Y+26	; 0x1a
    1448:	6b 8d       	ldd	r22, Y+27	; 0x1b
    144a:	7c 8d       	ldd	r23, Y+28	; 0x1c
    144c:	e5 96       	adiw	r28, 0x35	; 53
    144e:	4f af       	std	Y+63, r20	; 0x3f
    1450:	e5 97       	sbiw	r28, 0x35	; 53
    1452:	e6 96       	adiw	r28, 0x36	; 54
    1454:	5f af       	std	Y+63, r21	; 0x3f
    1456:	e6 97       	sbiw	r28, 0x36	; 54
    1458:	e7 96       	adiw	r28, 0x37	; 55
    145a:	6f af       	std	Y+63, r22	; 0x3f
    145c:	e7 97       	sbiw	r28, 0x37	; 55
    145e:	e8 96       	adiw	r28, 0x38	; 56
    1460:	7f af       	std	Y+63, r23	; 0x3f
    1462:	e8 97       	sbiw	r28, 0x38	; 56
    1464:	e8 96       	adiw	r28, 0x38	; 56
    1466:	6c ac       	ldd	r6, Y+60	; 0x3c
    1468:	7d ac       	ldd	r7, Y+61	; 0x3d
    146a:	8e ac       	ldd	r8, Y+62	; 0x3e
    146c:	9f ac       	ldd	r9, Y+63	; 0x3f
    146e:	e8 97       	sbiw	r28, 0x38	; 56
    1470:	2d 96       	adiw	r28, 0x0d	; 13
    1472:	6c ae       	std	Y+60, r6	; 0x3c
    1474:	7d ae       	std	Y+61, r7	; 0x3d
    1476:	8e ae       	std	Y+62, r8	; 0x3e
    1478:	9f ae       	std	Y+63, r9	; 0x3f
    147a:	2d 97       	sbiw	r28, 0x0d	; 13
    147c:	8d 8d       	ldd	r24, Y+29	; 0x1d
    147e:	9e 8d       	ldd	r25, Y+30	; 0x1e
    1480:	2f 8d       	ldd	r18, Y+31	; 0x1f
    1482:	38 a1       	ldd	r19, Y+32	; 0x20
    1484:	3c 01       	movw	r6, r24
    1486:	49 01       	movw	r8, r18
    1488:	61 96       	adiw	r28, 0x11	; 17
    148a:	6c ae       	std	Y+60, r6	; 0x3c
    148c:	7d ae       	std	Y+61, r7	; 0x3d
    148e:	8e ae       	std	Y+62, r8	; 0x3e
    1490:	9f ae       	std	Y+63, r9	; 0x3f
    1492:	61 97       	sbiw	r28, 0x11	; 17
    1494:	a1 14       	cp	r10, r1
    1496:	b1 04       	cpc	r11, r1
    1498:	c1 04       	cpc	r12, r1
    149a:	d1 04       	cpc	r13, r1
    149c:	09 f0       	breq	.+2      	; 0x14a0 <__moddi3+0x2c0>
    149e:	28 c3       	rjmp	.+1616   	; 0x1af0 <__moddi3+0x910>
    14a0:	62 14       	cp	r6, r2
    14a2:	73 04       	cpc	r7, r3
    14a4:	84 04       	cpc	r8, r4
    14a6:	95 04       	cpc	r9, r5
    14a8:	08 f0       	brcs	.+2      	; 0x14ac <__moddi3+0x2cc>
    14aa:	0e c1       	rjmp	.+540    	; 0x16c8 <__moddi3+0x4e8>
    14ac:	00 e0       	ldi	r16, 0x00	; 0
    14ae:	20 16       	cp	r2, r16
    14b0:	00 e0       	ldi	r16, 0x00	; 0
    14b2:	30 06       	cpc	r3, r16
    14b4:	01 e0       	ldi	r16, 0x01	; 1
    14b6:	40 06       	cpc	r4, r16
    14b8:	00 e0       	ldi	r16, 0x00	; 0
    14ba:	50 06       	cpc	r5, r16
    14bc:	88 f4       	brcc	.+34     	; 0x14e0 <__moddi3+0x300>
    14be:	1f ef       	ldi	r17, 0xFF	; 255
    14c0:	21 16       	cp	r2, r17
    14c2:	31 04       	cpc	r3, r1
    14c4:	41 04       	cpc	r4, r1
    14c6:	51 04       	cpc	r5, r1
    14c8:	39 f0       	breq	.+14     	; 0x14d8 <__moddi3+0x2f8>
    14ca:	30 f0       	brcs	.+12     	; 0x14d8 <__moddi3+0x2f8>
    14cc:	88 e0       	ldi	r24, 0x08	; 8
    14ce:	e8 2e       	mov	r14, r24
    14d0:	f1 2c       	mov	r15, r1
    14d2:	01 2d       	mov	r16, r1
    14d4:	11 2d       	mov	r17, r1
    14d6:	18 c0       	rjmp	.+48     	; 0x1508 <__moddi3+0x328>
    14d8:	ee 24       	eor	r14, r14
    14da:	ff 24       	eor	r15, r15
    14dc:	87 01       	movw	r16, r14
    14de:	14 c0       	rjmp	.+40     	; 0x1508 <__moddi3+0x328>
    14e0:	20 e0       	ldi	r18, 0x00	; 0
    14e2:	22 16       	cp	r2, r18
    14e4:	20 e0       	ldi	r18, 0x00	; 0
    14e6:	32 06       	cpc	r3, r18
    14e8:	20 e0       	ldi	r18, 0x00	; 0
    14ea:	42 06       	cpc	r4, r18
    14ec:	21 e0       	ldi	r18, 0x01	; 1
    14ee:	52 06       	cpc	r5, r18
    14f0:	30 f0       	brcs	.+12     	; 0x14fe <__moddi3+0x31e>
    14f2:	b8 e1       	ldi	r27, 0x18	; 24
    14f4:	eb 2e       	mov	r14, r27
    14f6:	f1 2c       	mov	r15, r1
    14f8:	01 2d       	mov	r16, r1
    14fa:	11 2d       	mov	r17, r1
    14fc:	05 c0       	rjmp	.+10     	; 0x1508 <__moddi3+0x328>
    14fe:	a0 e1       	ldi	r26, 0x10	; 16
    1500:	ea 2e       	mov	r14, r26
    1502:	f1 2c       	mov	r15, r1
    1504:	01 2d       	mov	r16, r1
    1506:	11 2d       	mov	r17, r1
    1508:	d2 01       	movw	r26, r4
    150a:	c1 01       	movw	r24, r2
    150c:	0e 2c       	mov	r0, r14
    150e:	04 c0       	rjmp	.+8      	; 0x1518 <__moddi3+0x338>
    1510:	b6 95       	lsr	r27
    1512:	a7 95       	ror	r26
    1514:	97 95       	ror	r25
    1516:	87 95       	ror	r24
    1518:	0a 94       	dec	r0
    151a:	d2 f7       	brpl	.-12     	; 0x1510 <__moddi3+0x330>
    151c:	84 58       	subi	r24, 0x84	; 132
    151e:	9f 4f       	sbci	r25, 0xFF	; 255
    1520:	dc 01       	movw	r26, r24
    1522:	2c 91       	ld	r18, X
    1524:	80 e2       	ldi	r24, 0x20	; 32
    1526:	90 e0       	ldi	r25, 0x00	; 0
    1528:	a0 e0       	ldi	r26, 0x00	; 0
    152a:	b0 e0       	ldi	r27, 0x00	; 0
    152c:	8e 19       	sub	r24, r14
    152e:	9f 09       	sbc	r25, r15
    1530:	a0 0b       	sbc	r26, r16
    1532:	b1 0b       	sbc	r27, r17
    1534:	5c 01       	movw	r10, r24
    1536:	6d 01       	movw	r12, r26
    1538:	a2 1a       	sub	r10, r18
    153a:	b1 08       	sbc	r11, r1
    153c:	c1 08       	sbc	r12, r1
    153e:	d1 08       	sbc	r13, r1
    1540:	65 96       	adiw	r28, 0x15	; 21
    1542:	ac ae       	std	Y+60, r10	; 0x3c
    1544:	bd ae       	std	Y+61, r11	; 0x3d
    1546:	ce ae       	std	Y+62, r12	; 0x3e
    1548:	df ae       	std	Y+63, r13	; 0x3f
    154a:	65 97       	sbiw	r28, 0x15	; 21
    154c:	a1 14       	cp	r10, r1
    154e:	b1 04       	cpc	r11, r1
    1550:	c1 04       	cpc	r12, r1
    1552:	d1 04       	cpc	r13, r1
    1554:	09 f4       	brne	.+2      	; 0x1558 <__moddi3+0x378>
    1556:	45 c0       	rjmp	.+138    	; 0x15e2 <__moddi3+0x402>
    1558:	62 96       	adiw	r28, 0x12	; 18
    155a:	6f ad       	ldd	r22, Y+63	; 0x3f
    155c:	62 97       	sbiw	r28, 0x12	; 18
    155e:	06 2e       	mov	r0, r22
    1560:	04 c0       	rjmp	.+8      	; 0x156a <__moddi3+0x38a>
    1562:	22 0c       	add	r2, r2
    1564:	33 1c       	adc	r3, r3
    1566:	44 1c       	adc	r4, r4
    1568:	55 1c       	adc	r5, r5
    156a:	0a 94       	dec	r0
    156c:	d2 f7       	brpl	.-12     	; 0x1562 <__moddi3+0x382>
    156e:	a4 01       	movw	r20, r8
    1570:	93 01       	movw	r18, r6
    1572:	06 2e       	mov	r0, r22
    1574:	04 c0       	rjmp	.+8      	; 0x157e <__moddi3+0x39e>
    1576:	22 0f       	add	r18, r18
    1578:	33 1f       	adc	r19, r19
    157a:	44 1f       	adc	r20, r20
    157c:	55 1f       	adc	r21, r21
    157e:	0a 94       	dec	r0
    1580:	d2 f7       	brpl	.-12     	; 0x1576 <__moddi3+0x396>
    1582:	80 e2       	ldi	r24, 0x20	; 32
    1584:	90 e0       	ldi	r25, 0x00	; 0
    1586:	8a 19       	sub	r24, r10
    1588:	9b 09       	sbc	r25, r11
    158a:	e8 96       	adiw	r28, 0x38	; 56
    158c:	cc ac       	ldd	r12, Y+60	; 0x3c
    158e:	dd ac       	ldd	r13, Y+61	; 0x3d
    1590:	ee ac       	ldd	r14, Y+62	; 0x3e
    1592:	ff ac       	ldd	r15, Y+63	; 0x3f
    1594:	e8 97       	sbiw	r28, 0x38	; 56
    1596:	04 c0       	rjmp	.+8      	; 0x15a0 <__moddi3+0x3c0>
    1598:	f6 94       	lsr	r15
    159a:	e7 94       	ror	r14
    159c:	d7 94       	ror	r13
    159e:	c7 94       	ror	r12
    15a0:	8a 95       	dec	r24
    15a2:	d2 f7       	brpl	.-12     	; 0x1598 <__moddi3+0x3b8>
    15a4:	87 01       	movw	r16, r14
    15a6:	76 01       	movw	r14, r12
    15a8:	e2 2a       	or	r14, r18
    15aa:	f3 2a       	or	r15, r19
    15ac:	04 2b       	or	r16, r20
    15ae:	15 2b       	or	r17, r21
    15b0:	61 96       	adiw	r28, 0x11	; 17
    15b2:	ec ae       	std	Y+60, r14	; 0x3c
    15b4:	fd ae       	std	Y+61, r15	; 0x3d
    15b6:	0e af       	std	Y+62, r16	; 0x3e
    15b8:	1f af       	std	Y+63, r17	; 0x3f
    15ba:	61 97       	sbiw	r28, 0x11	; 17
    15bc:	e8 96       	adiw	r28, 0x38	; 56
    15be:	0c ad       	ldd	r16, Y+60	; 0x3c
    15c0:	1d ad       	ldd	r17, Y+61	; 0x3d
    15c2:	2e ad       	ldd	r18, Y+62	; 0x3e
    15c4:	3f ad       	ldd	r19, Y+63	; 0x3f
    15c6:	e8 97       	sbiw	r28, 0x38	; 56
    15c8:	04 c0       	rjmp	.+8      	; 0x15d2 <__moddi3+0x3f2>
    15ca:	00 0f       	add	r16, r16
    15cc:	11 1f       	adc	r17, r17
    15ce:	22 1f       	adc	r18, r18
    15d0:	33 1f       	adc	r19, r19
    15d2:	6a 95       	dec	r22
    15d4:	d2 f7       	brpl	.-12     	; 0x15ca <__moddi3+0x3ea>
    15d6:	2d 96       	adiw	r28, 0x0d	; 13
    15d8:	0c af       	std	Y+60, r16	; 0x3c
    15da:	1d af       	std	Y+61, r17	; 0x3d
    15dc:	2e af       	std	Y+62, r18	; 0x3e
    15de:	3f af       	std	Y+63, r19	; 0x3f
    15e0:	2d 97       	sbiw	r28, 0x0d	; 13
    15e2:	32 01       	movw	r6, r4
    15e4:	88 24       	eor	r8, r8
    15e6:	99 24       	eor	r9, r9
    15e8:	a2 01       	movw	r20, r4
    15ea:	91 01       	movw	r18, r2
    15ec:	40 70       	andi	r20, 0x00	; 0
    15ee:	50 70       	andi	r21, 0x00	; 0
    15f0:	69 96       	adiw	r28, 0x19	; 25
    15f2:	2c af       	std	Y+60, r18	; 0x3c
    15f4:	3d af       	std	Y+61, r19	; 0x3d
    15f6:	4e af       	std	Y+62, r20	; 0x3e
    15f8:	5f af       	std	Y+63, r21	; 0x3f
    15fa:	69 97       	sbiw	r28, 0x19	; 25
    15fc:	61 96       	adiw	r28, 0x11	; 17
    15fe:	6c ad       	ldd	r22, Y+60	; 0x3c
    1600:	7d ad       	ldd	r23, Y+61	; 0x3d
    1602:	8e ad       	ldd	r24, Y+62	; 0x3e
    1604:	9f ad       	ldd	r25, Y+63	; 0x3f
    1606:	61 97       	sbiw	r28, 0x11	; 17
    1608:	a4 01       	movw	r20, r8
    160a:	93 01       	movw	r18, r6
    160c:	0e 94 c9 2a 	call	0x5592	; 0x5592 <__udivmodsi4>
    1610:	7b 01       	movw	r14, r22
    1612:	8c 01       	movw	r16, r24
    1614:	61 96       	adiw	r28, 0x11	; 17
    1616:	6c ad       	ldd	r22, Y+60	; 0x3c
    1618:	7d ad       	ldd	r23, Y+61	; 0x3d
    161a:	8e ad       	ldd	r24, Y+62	; 0x3e
    161c:	9f ad       	ldd	r25, Y+63	; 0x3f
    161e:	61 97       	sbiw	r28, 0x11	; 17
    1620:	a4 01       	movw	r20, r8
    1622:	93 01       	movw	r18, r6
    1624:	0e 94 c9 2a 	call	0x5592	; 0x5592 <__udivmodsi4>
    1628:	ca 01       	movw	r24, r20
    162a:	b9 01       	movw	r22, r18
    162c:	69 96       	adiw	r28, 0x19	; 25
    162e:	2c ad       	ldd	r18, Y+60	; 0x3c
    1630:	3d ad       	ldd	r19, Y+61	; 0x3d
    1632:	4e ad       	ldd	r20, Y+62	; 0x3e
    1634:	5f ad       	ldd	r21, Y+63	; 0x3f
    1636:	69 97       	sbiw	r28, 0x19	; 25
    1638:	0e 94 aa 2a 	call	0x5554	; 0x5554 <__mulsi3>
    163c:	9b 01       	movw	r18, r22
    163e:	ac 01       	movw	r20, r24
    1640:	87 01       	movw	r16, r14
    1642:	ff 24       	eor	r15, r15
    1644:	ee 24       	eor	r14, r14
    1646:	2d 96       	adiw	r28, 0x0d	; 13
    1648:	ac ac       	ldd	r10, Y+60	; 0x3c
    164a:	bd ac       	ldd	r11, Y+61	; 0x3d
    164c:	ce ac       	ldd	r12, Y+62	; 0x3e
    164e:	df ac       	ldd	r13, Y+63	; 0x3f
    1650:	2d 97       	sbiw	r28, 0x0d	; 13
    1652:	c6 01       	movw	r24, r12
    1654:	aa 27       	eor	r26, r26
    1656:	bb 27       	eor	r27, r27
    1658:	57 01       	movw	r10, r14
    165a:	68 01       	movw	r12, r16
    165c:	a8 2a       	or	r10, r24
    165e:	b9 2a       	or	r11, r25
    1660:	ca 2a       	or	r12, r26
    1662:	db 2a       	or	r13, r27
    1664:	a2 16       	cp	r10, r18
    1666:	b3 06       	cpc	r11, r19
    1668:	c4 06       	cpc	r12, r20
    166a:	d5 06       	cpc	r13, r21
    166c:	90 f4       	brcc	.+36     	; 0x1692 <__moddi3+0x4b2>
    166e:	a2 0c       	add	r10, r2
    1670:	b3 1c       	adc	r11, r3
    1672:	c4 1c       	adc	r12, r4
    1674:	d5 1c       	adc	r13, r5
    1676:	a2 14       	cp	r10, r2
    1678:	b3 04       	cpc	r11, r3
    167a:	c4 04       	cpc	r12, r4
    167c:	d5 04       	cpc	r13, r5
    167e:	48 f0       	brcs	.+18     	; 0x1692 <__moddi3+0x4b2>
    1680:	a2 16       	cp	r10, r18
    1682:	b3 06       	cpc	r11, r19
    1684:	c4 06       	cpc	r12, r20
    1686:	d5 06       	cpc	r13, r21
    1688:	20 f4       	brcc	.+8      	; 0x1692 <__moddi3+0x4b2>
    168a:	a2 0c       	add	r10, r2
    168c:	b3 1c       	adc	r11, r3
    168e:	c4 1c       	adc	r12, r4
    1690:	d5 1c       	adc	r13, r5
    1692:	a2 1a       	sub	r10, r18
    1694:	b3 0a       	sbc	r11, r19
    1696:	c4 0a       	sbc	r12, r20
    1698:	d5 0a       	sbc	r13, r21
    169a:	c6 01       	movw	r24, r12
    169c:	b5 01       	movw	r22, r10
    169e:	a4 01       	movw	r20, r8
    16a0:	93 01       	movw	r18, r6
    16a2:	0e 94 c9 2a 	call	0x5592	; 0x5592 <__udivmodsi4>
    16a6:	7b 01       	movw	r14, r22
    16a8:	8c 01       	movw	r16, r24
    16aa:	c6 01       	movw	r24, r12
    16ac:	b5 01       	movw	r22, r10
    16ae:	a4 01       	movw	r20, r8
    16b0:	93 01       	movw	r18, r6
    16b2:	0e 94 c9 2a 	call	0x5592	; 0x5592 <__udivmodsi4>
    16b6:	ca 01       	movw	r24, r20
    16b8:	b9 01       	movw	r22, r18
    16ba:	69 96       	adiw	r28, 0x19	; 25
    16bc:	2c ad       	ldd	r18, Y+60	; 0x3c
    16be:	3d ad       	ldd	r19, Y+61	; 0x3d
    16c0:	4e ad       	ldd	r20, Y+62	; 0x3e
    16c2:	5f ad       	ldd	r21, Y+63	; 0x3f
    16c4:	69 97       	sbiw	r28, 0x19	; 25
    16c6:	c8 c1       	rjmp	.+912    	; 0x1a58 <__moddi3+0x878>
    16c8:	21 14       	cp	r2, r1
    16ca:	31 04       	cpc	r3, r1
    16cc:	41 04       	cpc	r4, r1
    16ce:	51 04       	cpc	r5, r1
    16d0:	71 f4       	brne	.+28     	; 0x16ee <__moddi3+0x50e>
    16d2:	61 e0       	ldi	r22, 0x01	; 1
    16d4:	70 e0       	ldi	r23, 0x00	; 0
    16d6:	80 e0       	ldi	r24, 0x00	; 0
    16d8:	90 e0       	ldi	r25, 0x00	; 0
    16da:	20 e0       	ldi	r18, 0x00	; 0
    16dc:	30 e0       	ldi	r19, 0x00	; 0
    16de:	40 e0       	ldi	r20, 0x00	; 0
    16e0:	50 e0       	ldi	r21, 0x00	; 0
    16e2:	0e 94 c9 2a 	call	0x5592	; 0x5592 <__udivmodsi4>
    16e6:	c9 01       	movw	r24, r18
    16e8:	da 01       	movw	r26, r20
    16ea:	1c 01       	movw	r2, r24
    16ec:	2d 01       	movw	r4, r26
    16ee:	00 e0       	ldi	r16, 0x00	; 0
    16f0:	20 16       	cp	r2, r16
    16f2:	00 e0       	ldi	r16, 0x00	; 0
    16f4:	30 06       	cpc	r3, r16
    16f6:	01 e0       	ldi	r16, 0x01	; 1
    16f8:	40 06       	cpc	r4, r16
    16fa:	00 e0       	ldi	r16, 0x00	; 0
    16fc:	50 06       	cpc	r5, r16
    16fe:	88 f4       	brcc	.+34     	; 0x1722 <__moddi3+0x542>
    1700:	1f ef       	ldi	r17, 0xFF	; 255
    1702:	21 16       	cp	r2, r17
    1704:	31 04       	cpc	r3, r1
    1706:	41 04       	cpc	r4, r1
    1708:	51 04       	cpc	r5, r1
    170a:	39 f0       	breq	.+14     	; 0x171a <__moddi3+0x53a>
    170c:	30 f0       	brcs	.+12     	; 0x171a <__moddi3+0x53a>
    170e:	68 e0       	ldi	r22, 0x08	; 8
    1710:	e6 2e       	mov	r14, r22
    1712:	f1 2c       	mov	r15, r1
    1714:	01 2d       	mov	r16, r1
    1716:	11 2d       	mov	r17, r1
    1718:	18 c0       	rjmp	.+48     	; 0x174a <__moddi3+0x56a>
    171a:	ee 24       	eor	r14, r14
    171c:	ff 24       	eor	r15, r15
    171e:	87 01       	movw	r16, r14
    1720:	14 c0       	rjmp	.+40     	; 0x174a <__moddi3+0x56a>
    1722:	20 e0       	ldi	r18, 0x00	; 0
    1724:	22 16       	cp	r2, r18
    1726:	20 e0       	ldi	r18, 0x00	; 0
    1728:	32 06       	cpc	r3, r18
    172a:	20 e0       	ldi	r18, 0x00	; 0
    172c:	42 06       	cpc	r4, r18
    172e:	21 e0       	ldi	r18, 0x01	; 1
    1730:	52 06       	cpc	r5, r18
    1732:	30 f0       	brcs	.+12     	; 0x1740 <__moddi3+0x560>
    1734:	58 e1       	ldi	r21, 0x18	; 24
    1736:	e5 2e       	mov	r14, r21
    1738:	f1 2c       	mov	r15, r1
    173a:	01 2d       	mov	r16, r1
    173c:	11 2d       	mov	r17, r1
    173e:	05 c0       	rjmp	.+10     	; 0x174a <__moddi3+0x56a>
    1740:	40 e1       	ldi	r20, 0x10	; 16
    1742:	e4 2e       	mov	r14, r20
    1744:	f1 2c       	mov	r15, r1
    1746:	01 2d       	mov	r16, r1
    1748:	11 2d       	mov	r17, r1
    174a:	d2 01       	movw	r26, r4
    174c:	c1 01       	movw	r24, r2
    174e:	0e 2c       	mov	r0, r14
    1750:	04 c0       	rjmp	.+8      	; 0x175a <__moddi3+0x57a>
    1752:	b6 95       	lsr	r27
    1754:	a7 95       	ror	r26
    1756:	97 95       	ror	r25
    1758:	87 95       	ror	r24
    175a:	0a 94       	dec	r0
    175c:	d2 f7       	brpl	.-12     	; 0x1752 <__moddi3+0x572>
    175e:	84 58       	subi	r24, 0x84	; 132
    1760:	9f 4f       	sbci	r25, 0xFF	; 255
    1762:	dc 01       	movw	r26, r24
    1764:	2c 91       	ld	r18, X
    1766:	30 e2       	ldi	r19, 0x20	; 32
    1768:	a3 2e       	mov	r10, r19
    176a:	b1 2c       	mov	r11, r1
    176c:	c1 2c       	mov	r12, r1
    176e:	d1 2c       	mov	r13, r1
    1770:	d6 01       	movw	r26, r12
    1772:	c5 01       	movw	r24, r10
    1774:	8e 19       	sub	r24, r14
    1776:	9f 09       	sbc	r25, r15
    1778:	a0 0b       	sbc	r26, r16
    177a:	b1 0b       	sbc	r27, r17
    177c:	7c 01       	movw	r14, r24
    177e:	8d 01       	movw	r16, r26
    1780:	e2 1a       	sub	r14, r18
    1782:	f1 08       	sbc	r15, r1
    1784:	01 09       	sbc	r16, r1
    1786:	11 09       	sbc	r17, r1
    1788:	65 96       	adiw	r28, 0x15	; 21
    178a:	ec ae       	std	Y+60, r14	; 0x3c
    178c:	fd ae       	std	Y+61, r15	; 0x3d
    178e:	0e af       	std	Y+62, r16	; 0x3e
    1790:	1f af       	std	Y+63, r17	; 0x3f
    1792:	65 97       	sbiw	r28, 0x15	; 21
    1794:	e1 14       	cp	r14, r1
    1796:	f1 04       	cpc	r15, r1
    1798:	01 05       	cpc	r16, r1
    179a:	11 05       	cpc	r17, r1
    179c:	39 f4       	brne	.+14     	; 0x17ac <__moddi3+0x5cc>
    179e:	64 01       	movw	r12, r8
    17a0:	53 01       	movw	r10, r6
    17a2:	a2 18       	sub	r10, r2
    17a4:	b3 08       	sbc	r11, r3
    17a6:	c4 08       	sbc	r12, r4
    17a8:	d5 08       	sbc	r13, r5
    17aa:	ec c0       	rjmp	.+472    	; 0x1984 <__moddi3+0x7a4>
    17ac:	62 96       	adiw	r28, 0x12	; 18
    17ae:	ff ac       	ldd	r15, Y+63	; 0x3f
    17b0:	62 97       	sbiw	r28, 0x12	; 18
    17b2:	e4 96       	adiw	r28, 0x34	; 52
    17b4:	ff ae       	std	Y+63, r15	; 0x3f
    17b6:	e4 97       	sbiw	r28, 0x34	; 52
    17b8:	0f 2c       	mov	r0, r15
    17ba:	04 c0       	rjmp	.+8      	; 0x17c4 <__moddi3+0x5e4>
    17bc:	22 0c       	add	r2, r2
    17be:	33 1c       	adc	r3, r3
    17c0:	44 1c       	adc	r4, r4
    17c2:	55 1c       	adc	r5, r5
    17c4:	0a 94       	dec	r0
    17c6:	d2 f7       	brpl	.-12     	; 0x17bc <__moddi3+0x5dc>
    17c8:	8a 2d       	mov	r24, r10
    17ca:	8f 19       	sub	r24, r15
    17cc:	64 01       	movw	r12, r8
    17ce:	53 01       	movw	r10, r6
    17d0:	08 2e       	mov	r0, r24
    17d2:	04 c0       	rjmp	.+8      	; 0x17dc <__moddi3+0x5fc>
    17d4:	d6 94       	lsr	r13
    17d6:	c7 94       	ror	r12
    17d8:	b7 94       	ror	r11
    17da:	a7 94       	ror	r10
    17dc:	0a 94       	dec	r0
    17de:	d2 f7       	brpl	.-12     	; 0x17d4 <__moddi3+0x5f4>
    17e0:	a4 01       	movw	r20, r8
    17e2:	93 01       	movw	r18, r6
    17e4:	04 c0       	rjmp	.+8      	; 0x17ee <__moddi3+0x60e>
    17e6:	22 0f       	add	r18, r18
    17e8:	33 1f       	adc	r19, r19
    17ea:	44 1f       	adc	r20, r20
    17ec:	55 1f       	adc	r21, r21
    17ee:	fa 94       	dec	r15
    17f0:	d2 f7       	brpl	.-12     	; 0x17e6 <__moddi3+0x606>
    17f2:	e8 96       	adiw	r28, 0x38	; 56
    17f4:	6c ac       	ldd	r6, Y+60	; 0x3c
    17f6:	7d ac       	ldd	r7, Y+61	; 0x3d
    17f8:	8e ac       	ldd	r8, Y+62	; 0x3e
    17fa:	9f ac       	ldd	r9, Y+63	; 0x3f
    17fc:	e8 97       	sbiw	r28, 0x38	; 56
    17fe:	04 c0       	rjmp	.+8      	; 0x1808 <__moddi3+0x628>
    1800:	96 94       	lsr	r9
    1802:	87 94       	ror	r8
    1804:	77 94       	ror	r7
    1806:	67 94       	ror	r6
    1808:	8a 95       	dec	r24
    180a:	d2 f7       	brpl	.-12     	; 0x1800 <__moddi3+0x620>
    180c:	84 01       	movw	r16, r8
    180e:	73 01       	movw	r14, r6
    1810:	e2 2a       	or	r14, r18
    1812:	f3 2a       	or	r15, r19
    1814:	04 2b       	or	r16, r20
    1816:	15 2b       	or	r17, r21
    1818:	29 96       	adiw	r28, 0x09	; 9
    181a:	ec ae       	std	Y+60, r14	; 0x3c
    181c:	fd ae       	std	Y+61, r15	; 0x3d
    181e:	0e af       	std	Y+62, r16	; 0x3e
    1820:	1f af       	std	Y+63, r17	; 0x3f
    1822:	29 97       	sbiw	r28, 0x09	; 9
    1824:	32 01       	movw	r6, r4
    1826:	88 24       	eor	r8, r8
    1828:	99 24       	eor	r9, r9
    182a:	92 01       	movw	r18, r4
    182c:	81 01       	movw	r16, r2
    182e:	20 70       	andi	r18, 0x00	; 0
    1830:	30 70       	andi	r19, 0x00	; 0
    1832:	6d 96       	adiw	r28, 0x1d	; 29
    1834:	0c af       	std	Y+60, r16	; 0x3c
    1836:	1d af       	std	Y+61, r17	; 0x3d
    1838:	2e af       	std	Y+62, r18	; 0x3e
    183a:	3f af       	std	Y+63, r19	; 0x3f
    183c:	6d 97       	sbiw	r28, 0x1d	; 29
    183e:	c6 01       	movw	r24, r12
    1840:	b5 01       	movw	r22, r10
    1842:	a4 01       	movw	r20, r8
    1844:	93 01       	movw	r18, r6
    1846:	0e 94 c9 2a 	call	0x5592	; 0x5592 <__udivmodsi4>
    184a:	7b 01       	movw	r14, r22
    184c:	8c 01       	movw	r16, r24
    184e:	c6 01       	movw	r24, r12
    1850:	b5 01       	movw	r22, r10
    1852:	a4 01       	movw	r20, r8
    1854:	93 01       	movw	r18, r6
    1856:	0e 94 c9 2a 	call	0x5592	; 0x5592 <__udivmodsi4>
    185a:	ca 01       	movw	r24, r20
    185c:	b9 01       	movw	r22, r18
    185e:	6d 96       	adiw	r28, 0x1d	; 29
    1860:	2c ad       	ldd	r18, Y+60	; 0x3c
    1862:	3d ad       	ldd	r19, Y+61	; 0x3d
    1864:	4e ad       	ldd	r20, Y+62	; 0x3e
    1866:	5f ad       	ldd	r21, Y+63	; 0x3f
    1868:	6d 97       	sbiw	r28, 0x1d	; 29
    186a:	0e 94 aa 2a 	call	0x5554	; 0x5554 <__mulsi3>
    186e:	9b 01       	movw	r18, r22
    1870:	ac 01       	movw	r20, r24
    1872:	87 01       	movw	r16, r14
    1874:	ff 24       	eor	r15, r15
    1876:	ee 24       	eor	r14, r14
    1878:	29 96       	adiw	r28, 0x09	; 9
    187a:	ac ac       	ldd	r10, Y+60	; 0x3c
    187c:	bd ac       	ldd	r11, Y+61	; 0x3d
    187e:	ce ac       	ldd	r12, Y+62	; 0x3e
    1880:	df ac       	ldd	r13, Y+63	; 0x3f
    1882:	29 97       	sbiw	r28, 0x09	; 9
    1884:	c6 01       	movw	r24, r12
    1886:	aa 27       	eor	r26, r26
    1888:	bb 27       	eor	r27, r27
    188a:	5c 01       	movw	r10, r24
    188c:	6d 01       	movw	r12, r26
    188e:	ae 28       	or	r10, r14
    1890:	bf 28       	or	r11, r15
    1892:	c0 2a       	or	r12, r16
    1894:	d1 2a       	or	r13, r17
    1896:	a2 16       	cp	r10, r18
    1898:	b3 06       	cpc	r11, r19
    189a:	c4 06       	cpc	r12, r20
    189c:	d5 06       	cpc	r13, r21
    189e:	90 f4       	brcc	.+36     	; 0x18c4 <__moddi3+0x6e4>
    18a0:	a2 0c       	add	r10, r2
    18a2:	b3 1c       	adc	r11, r3
    18a4:	c4 1c       	adc	r12, r4
    18a6:	d5 1c       	adc	r13, r5
    18a8:	a2 14       	cp	r10, r2
    18aa:	b3 04       	cpc	r11, r3
    18ac:	c4 04       	cpc	r12, r4
    18ae:	d5 04       	cpc	r13, r5
    18b0:	48 f0       	brcs	.+18     	; 0x18c4 <__moddi3+0x6e4>
    18b2:	a2 16       	cp	r10, r18
    18b4:	b3 06       	cpc	r11, r19
    18b6:	c4 06       	cpc	r12, r20
    18b8:	d5 06       	cpc	r13, r21
    18ba:	20 f4       	brcc	.+8      	; 0x18c4 <__moddi3+0x6e4>
    18bc:	a2 0c       	add	r10, r2
    18be:	b3 1c       	adc	r11, r3
    18c0:	c4 1c       	adc	r12, r4
    18c2:	d5 1c       	adc	r13, r5
    18c4:	a2 1a       	sub	r10, r18
    18c6:	b3 0a       	sbc	r11, r19
    18c8:	c4 0a       	sbc	r12, r20
    18ca:	d5 0a       	sbc	r13, r21
    18cc:	c6 01       	movw	r24, r12
    18ce:	b5 01       	movw	r22, r10
    18d0:	a4 01       	movw	r20, r8
    18d2:	93 01       	movw	r18, r6
    18d4:	0e 94 c9 2a 	call	0x5592	; 0x5592 <__udivmodsi4>
    18d8:	7b 01       	movw	r14, r22
    18da:	8c 01       	movw	r16, r24
    18dc:	c6 01       	movw	r24, r12
    18de:	b5 01       	movw	r22, r10
    18e0:	a4 01       	movw	r20, r8
    18e2:	93 01       	movw	r18, r6
    18e4:	0e 94 c9 2a 	call	0x5592	; 0x5592 <__udivmodsi4>
    18e8:	ca 01       	movw	r24, r20
    18ea:	b9 01       	movw	r22, r18
    18ec:	6d 96       	adiw	r28, 0x1d	; 29
    18ee:	2c ad       	ldd	r18, Y+60	; 0x3c
    18f0:	3d ad       	ldd	r19, Y+61	; 0x3d
    18f2:	4e ad       	ldd	r20, Y+62	; 0x3e
    18f4:	5f ad       	ldd	r21, Y+63	; 0x3f
    18f6:	6d 97       	sbiw	r28, 0x1d	; 29
    18f8:	0e 94 aa 2a 	call	0x5554	; 0x5554 <__mulsi3>
    18fc:	9b 01       	movw	r18, r22
    18fe:	ac 01       	movw	r20, r24
    1900:	87 01       	movw	r16, r14
    1902:	ff 24       	eor	r15, r15
    1904:	ee 24       	eor	r14, r14
    1906:	29 96       	adiw	r28, 0x09	; 9
    1908:	8c ad       	ldd	r24, Y+60	; 0x3c
    190a:	9d ad       	ldd	r25, Y+61	; 0x3d
    190c:	ae ad       	ldd	r26, Y+62	; 0x3e
    190e:	bf ad       	ldd	r27, Y+63	; 0x3f
    1910:	29 97       	sbiw	r28, 0x09	; 9
    1912:	a0 70       	andi	r26, 0x00	; 0
    1914:	b0 70       	andi	r27, 0x00	; 0
    1916:	57 01       	movw	r10, r14
    1918:	68 01       	movw	r12, r16
    191a:	a8 2a       	or	r10, r24
    191c:	b9 2a       	or	r11, r25
    191e:	ca 2a       	or	r12, r26
    1920:	db 2a       	or	r13, r27
    1922:	a2 16       	cp	r10, r18
    1924:	b3 06       	cpc	r11, r19
    1926:	c4 06       	cpc	r12, r20
    1928:	d5 06       	cpc	r13, r21
    192a:	90 f4       	brcc	.+36     	; 0x1950 <__moddi3+0x770>
    192c:	a2 0c       	add	r10, r2
    192e:	b3 1c       	adc	r11, r3
    1930:	c4 1c       	adc	r12, r4
    1932:	d5 1c       	adc	r13, r5
    1934:	a2 14       	cp	r10, r2
    1936:	b3 04       	cpc	r11, r3
    1938:	c4 04       	cpc	r12, r4
    193a:	d5 04       	cpc	r13, r5
    193c:	48 f0       	brcs	.+18     	; 0x1950 <__moddi3+0x770>
    193e:	a2 16       	cp	r10, r18
    1940:	b3 06       	cpc	r11, r19
    1942:	c4 06       	cpc	r12, r20
    1944:	d5 06       	cpc	r13, r21
    1946:	20 f4       	brcc	.+8      	; 0x1950 <__moddi3+0x770>
    1948:	a2 0c       	add	r10, r2
    194a:	b3 1c       	adc	r11, r3
    194c:	c4 1c       	adc	r12, r4
    194e:	d5 1c       	adc	r13, r5
    1950:	e8 96       	adiw	r28, 0x38	; 56
    1952:	ec ac       	ldd	r14, Y+60	; 0x3c
    1954:	fd ac       	ldd	r15, Y+61	; 0x3d
    1956:	0e ad       	ldd	r16, Y+62	; 0x3e
    1958:	1f ad       	ldd	r17, Y+63	; 0x3f
    195a:	e8 97       	sbiw	r28, 0x38	; 56
    195c:	e4 96       	adiw	r28, 0x34	; 52
    195e:	0f ac       	ldd	r0, Y+63	; 0x3f
    1960:	e4 97       	sbiw	r28, 0x34	; 52
    1962:	04 c0       	rjmp	.+8      	; 0x196c <__moddi3+0x78c>
    1964:	ee 0c       	add	r14, r14
    1966:	ff 1c       	adc	r15, r15
    1968:	00 1f       	adc	r16, r16
    196a:	11 1f       	adc	r17, r17
    196c:	0a 94       	dec	r0
    196e:	d2 f7       	brpl	.-12     	; 0x1964 <__moddi3+0x784>
    1970:	2d 96       	adiw	r28, 0x0d	; 13
    1972:	ec ae       	std	Y+60, r14	; 0x3c
    1974:	fd ae       	std	Y+61, r15	; 0x3d
    1976:	0e af       	std	Y+62, r16	; 0x3e
    1978:	1f af       	std	Y+63, r17	; 0x3f
    197a:	2d 97       	sbiw	r28, 0x0d	; 13
    197c:	a2 1a       	sub	r10, r18
    197e:	b3 0a       	sbc	r11, r19
    1980:	c4 0a       	sbc	r12, r20
    1982:	d5 0a       	sbc	r13, r21
    1984:	32 01       	movw	r6, r4
    1986:	88 24       	eor	r8, r8
    1988:	99 24       	eor	r9, r9
    198a:	92 01       	movw	r18, r4
    198c:	81 01       	movw	r16, r2
    198e:	20 70       	andi	r18, 0x00	; 0
    1990:	30 70       	andi	r19, 0x00	; 0
    1992:	a1 96       	adiw	r28, 0x21	; 33
    1994:	0c af       	std	Y+60, r16	; 0x3c
    1996:	1d af       	std	Y+61, r17	; 0x3d
    1998:	2e af       	std	Y+62, r18	; 0x3e
    199a:	3f af       	std	Y+63, r19	; 0x3f
    199c:	a1 97       	sbiw	r28, 0x21	; 33
    199e:	c6 01       	movw	r24, r12
    19a0:	b5 01       	movw	r22, r10
    19a2:	a4 01       	movw	r20, r8
    19a4:	93 01       	movw	r18, r6
    19a6:	0e 94 c9 2a 	call	0x5592	; 0x5592 <__udivmodsi4>
    19aa:	7b 01       	movw	r14, r22
    19ac:	8c 01       	movw	r16, r24
    19ae:	c6 01       	movw	r24, r12
    19b0:	b5 01       	movw	r22, r10
    19b2:	a4 01       	movw	r20, r8
    19b4:	93 01       	movw	r18, r6
    19b6:	0e 94 c9 2a 	call	0x5592	; 0x5592 <__udivmodsi4>
    19ba:	ca 01       	movw	r24, r20
    19bc:	b9 01       	movw	r22, r18
    19be:	a1 96       	adiw	r28, 0x21	; 33
    19c0:	2c ad       	ldd	r18, Y+60	; 0x3c
    19c2:	3d ad       	ldd	r19, Y+61	; 0x3d
    19c4:	4e ad       	ldd	r20, Y+62	; 0x3e
    19c6:	5f ad       	ldd	r21, Y+63	; 0x3f
    19c8:	a1 97       	sbiw	r28, 0x21	; 33
    19ca:	0e 94 aa 2a 	call	0x5554	; 0x5554 <__mulsi3>
    19ce:	9b 01       	movw	r18, r22
    19d0:	ac 01       	movw	r20, r24
    19d2:	87 01       	movw	r16, r14
    19d4:	ff 24       	eor	r15, r15
    19d6:	ee 24       	eor	r14, r14
    19d8:	2d 96       	adiw	r28, 0x0d	; 13
    19da:	ac ac       	ldd	r10, Y+60	; 0x3c
    19dc:	bd ac       	ldd	r11, Y+61	; 0x3d
    19de:	ce ac       	ldd	r12, Y+62	; 0x3e
    19e0:	df ac       	ldd	r13, Y+63	; 0x3f
    19e2:	2d 97       	sbiw	r28, 0x0d	; 13
    19e4:	c6 01       	movw	r24, r12
    19e6:	aa 27       	eor	r26, r26
    19e8:	bb 27       	eor	r27, r27
    19ea:	57 01       	movw	r10, r14
    19ec:	68 01       	movw	r12, r16
    19ee:	a8 2a       	or	r10, r24
    19f0:	b9 2a       	or	r11, r25
    19f2:	ca 2a       	or	r12, r26
    19f4:	db 2a       	or	r13, r27
    19f6:	a2 16       	cp	r10, r18
    19f8:	b3 06       	cpc	r11, r19
    19fa:	c4 06       	cpc	r12, r20
    19fc:	d5 06       	cpc	r13, r21
    19fe:	90 f4       	brcc	.+36     	; 0x1a24 <__moddi3+0x844>
    1a00:	a2 0c       	add	r10, r2
    1a02:	b3 1c       	adc	r11, r3
    1a04:	c4 1c       	adc	r12, r4
    1a06:	d5 1c       	adc	r13, r5
    1a08:	a2 14       	cp	r10, r2
    1a0a:	b3 04       	cpc	r11, r3
    1a0c:	c4 04       	cpc	r12, r4
    1a0e:	d5 04       	cpc	r13, r5
    1a10:	48 f0       	brcs	.+18     	; 0x1a24 <__moddi3+0x844>
    1a12:	a2 16       	cp	r10, r18
    1a14:	b3 06       	cpc	r11, r19
    1a16:	c4 06       	cpc	r12, r20
    1a18:	d5 06       	cpc	r13, r21
    1a1a:	20 f4       	brcc	.+8      	; 0x1a24 <__moddi3+0x844>
    1a1c:	a2 0c       	add	r10, r2
    1a1e:	b3 1c       	adc	r11, r3
    1a20:	c4 1c       	adc	r12, r4
    1a22:	d5 1c       	adc	r13, r5
    1a24:	a2 1a       	sub	r10, r18
    1a26:	b3 0a       	sbc	r11, r19
    1a28:	c4 0a       	sbc	r12, r20
    1a2a:	d5 0a       	sbc	r13, r21
    1a2c:	c6 01       	movw	r24, r12
    1a2e:	b5 01       	movw	r22, r10
    1a30:	a4 01       	movw	r20, r8
    1a32:	93 01       	movw	r18, r6
    1a34:	0e 94 c9 2a 	call	0x5592	; 0x5592 <__udivmodsi4>
    1a38:	7b 01       	movw	r14, r22
    1a3a:	8c 01       	movw	r16, r24
    1a3c:	c6 01       	movw	r24, r12
    1a3e:	b5 01       	movw	r22, r10
    1a40:	a4 01       	movw	r20, r8
    1a42:	93 01       	movw	r18, r6
    1a44:	0e 94 c9 2a 	call	0x5592	; 0x5592 <__udivmodsi4>
    1a48:	ca 01       	movw	r24, r20
    1a4a:	b9 01       	movw	r22, r18
    1a4c:	a1 96       	adiw	r28, 0x21	; 33
    1a4e:	2c ad       	ldd	r18, Y+60	; 0x3c
    1a50:	3d ad       	ldd	r19, Y+61	; 0x3d
    1a52:	4e ad       	ldd	r20, Y+62	; 0x3e
    1a54:	5f ad       	ldd	r21, Y+63	; 0x3f
    1a56:	a1 97       	sbiw	r28, 0x21	; 33
    1a58:	0e 94 aa 2a 	call	0x5554	; 0x5554 <__mulsi3>
    1a5c:	9b 01       	movw	r18, r22
    1a5e:	ac 01       	movw	r20, r24
    1a60:	87 01       	movw	r16, r14
    1a62:	ff 24       	eor	r15, r15
    1a64:	ee 24       	eor	r14, r14
    1a66:	2d 96       	adiw	r28, 0x0d	; 13
    1a68:	8c ad       	ldd	r24, Y+60	; 0x3c
    1a6a:	9d ad       	ldd	r25, Y+61	; 0x3d
    1a6c:	ae ad       	ldd	r26, Y+62	; 0x3e
    1a6e:	bf ad       	ldd	r27, Y+63	; 0x3f
    1a70:	2d 97       	sbiw	r28, 0x0d	; 13
    1a72:	a0 70       	andi	r26, 0x00	; 0
    1a74:	b0 70       	andi	r27, 0x00	; 0
    1a76:	e8 2a       	or	r14, r24
    1a78:	f9 2a       	or	r15, r25
    1a7a:	0a 2b       	or	r16, r26
    1a7c:	1b 2b       	or	r17, r27
    1a7e:	e2 16       	cp	r14, r18
    1a80:	f3 06       	cpc	r15, r19
    1a82:	04 07       	cpc	r16, r20
    1a84:	15 07       	cpc	r17, r21
    1a86:	90 f4       	brcc	.+36     	; 0x1aac <__moddi3+0x8cc>
    1a88:	e2 0c       	add	r14, r2
    1a8a:	f3 1c       	adc	r15, r3
    1a8c:	04 1d       	adc	r16, r4
    1a8e:	15 1d       	adc	r17, r5
    1a90:	e2 14       	cp	r14, r2
    1a92:	f3 04       	cpc	r15, r3
    1a94:	04 05       	cpc	r16, r4
    1a96:	15 05       	cpc	r17, r5
    1a98:	48 f0       	brcs	.+18     	; 0x1aac <__moddi3+0x8cc>
    1a9a:	e2 16       	cp	r14, r18
    1a9c:	f3 06       	cpc	r15, r19
    1a9e:	04 07       	cpc	r16, r20
    1aa0:	15 07       	cpc	r17, r21
    1aa2:	20 f4       	brcc	.+8      	; 0x1aac <__moddi3+0x8cc>
    1aa4:	e2 0c       	add	r14, r2
    1aa6:	f3 1c       	adc	r15, r3
    1aa8:	04 1d       	adc	r16, r4
    1aaa:	15 1d       	adc	r17, r5
    1aac:	e2 1a       	sub	r14, r18
    1aae:	f3 0a       	sbc	r15, r19
    1ab0:	04 0b       	sbc	r16, r20
    1ab2:	15 0b       	sbc	r17, r21
    1ab4:	d8 01       	movw	r26, r16
    1ab6:	c7 01       	movw	r24, r14
    1ab8:	62 96       	adiw	r28, 0x12	; 18
    1aba:	0f ac       	ldd	r0, Y+63	; 0x3f
    1abc:	62 97       	sbiw	r28, 0x12	; 18
    1abe:	04 c0       	rjmp	.+8      	; 0x1ac8 <__moddi3+0x8e8>
    1ac0:	b6 95       	lsr	r27
    1ac2:	a7 95       	ror	r26
    1ac4:	97 95       	ror	r25
    1ac6:	87 95       	ror	r24
    1ac8:	0a 94       	dec	r0
    1aca:	d2 f7       	brpl	.-12     	; 0x1ac0 <__moddi3+0x8e0>
    1acc:	89 a7       	std	Y+41, r24	; 0x29
    1ace:	9a a7       	std	Y+42, r25	; 0x2a
    1ad0:	ab a7       	std	Y+43, r26	; 0x2b
    1ad2:	bc a7       	std	Y+44, r27	; 0x2c
    1ad4:	1d a6       	std	Y+45, r1	; 0x2d
    1ad6:	1e a6       	std	Y+46, r1	; 0x2e
    1ad8:	1f a6       	std	Y+47, r1	; 0x2f
    1ada:	18 aa       	std	Y+48, r1	; 0x30
    1adc:	89 8b       	std	Y+17, r24	; 0x11
    1ade:	8a a5       	ldd	r24, Y+42	; 0x2a
    1ae0:	8a 8b       	std	Y+18, r24	; 0x12
    1ae2:	8b a5       	ldd	r24, Y+43	; 0x2b
    1ae4:	8b 8b       	std	Y+19, r24	; 0x13
    1ae6:	8c a5       	ldd	r24, Y+44	; 0x2c
    1ae8:	8c 8b       	std	Y+20, r24	; 0x14
    1aea:	8d a5       	ldd	r24, Y+45	; 0x2d
    1aec:	8d 8b       	std	Y+21, r24	; 0x15
    1aee:	2f c3       	rjmp	.+1630   	; 0x214e <__moddi3+0xf6e>
    1af0:	6a 14       	cp	r6, r10
    1af2:	7b 04       	cpc	r7, r11
    1af4:	8c 04       	cpc	r8, r12
    1af6:	9d 04       	cpc	r9, r13
    1af8:	48 f4       	brcc	.+18     	; 0x1b0c <__moddi3+0x92c>
    1afa:	49 8b       	std	Y+17, r20	; 0x11
    1afc:	5a 8b       	std	Y+18, r21	; 0x12
    1afe:	6b 8b       	std	Y+19, r22	; 0x13
    1b00:	7c 8b       	std	Y+20, r23	; 0x14
    1b02:	8d 8b       	std	Y+21, r24	; 0x15
    1b04:	9e 8b       	std	Y+22, r25	; 0x16
    1b06:	2f 8b       	std	Y+23, r18	; 0x17
    1b08:	38 8f       	std	Y+24, r19	; 0x18
    1b0a:	27 c3       	rjmp	.+1614   	; 0x215a <__moddi3+0xf7a>
    1b0c:	00 e0       	ldi	r16, 0x00	; 0
    1b0e:	a0 16       	cp	r10, r16
    1b10:	00 e0       	ldi	r16, 0x00	; 0
    1b12:	b0 06       	cpc	r11, r16
    1b14:	01 e0       	ldi	r16, 0x01	; 1
    1b16:	c0 06       	cpc	r12, r16
    1b18:	00 e0       	ldi	r16, 0x00	; 0
    1b1a:	d0 06       	cpc	r13, r16
    1b1c:	88 f4       	brcc	.+34     	; 0x1b40 <__moddi3+0x960>
    1b1e:	1f ef       	ldi	r17, 0xFF	; 255
    1b20:	a1 16       	cp	r10, r17
    1b22:	b1 04       	cpc	r11, r1
    1b24:	c1 04       	cpc	r12, r1
    1b26:	d1 04       	cpc	r13, r1
    1b28:	39 f0       	breq	.+14     	; 0x1b38 <__moddi3+0x958>
    1b2a:	30 f0       	brcs	.+12     	; 0x1b38 <__moddi3+0x958>
    1b2c:	28 e0       	ldi	r18, 0x08	; 8
    1b2e:	e2 2e       	mov	r14, r18
    1b30:	f1 2c       	mov	r15, r1
    1b32:	01 2d       	mov	r16, r1
    1b34:	11 2d       	mov	r17, r1
    1b36:	18 c0       	rjmp	.+48     	; 0x1b68 <__moddi3+0x988>
    1b38:	ee 24       	eor	r14, r14
    1b3a:	ff 24       	eor	r15, r15
    1b3c:	87 01       	movw	r16, r14
    1b3e:	14 c0       	rjmp	.+40     	; 0x1b68 <__moddi3+0x988>
    1b40:	20 e0       	ldi	r18, 0x00	; 0
    1b42:	a2 16       	cp	r10, r18
    1b44:	20 e0       	ldi	r18, 0x00	; 0
    1b46:	b2 06       	cpc	r11, r18
    1b48:	20 e0       	ldi	r18, 0x00	; 0
    1b4a:	c2 06       	cpc	r12, r18
    1b4c:	21 e0       	ldi	r18, 0x01	; 1
    1b4e:	d2 06       	cpc	r13, r18
    1b50:	30 f0       	brcs	.+12     	; 0x1b5e <__moddi3+0x97e>
    1b52:	98 e1       	ldi	r25, 0x18	; 24
    1b54:	e9 2e       	mov	r14, r25
    1b56:	f1 2c       	mov	r15, r1
    1b58:	01 2d       	mov	r16, r1
    1b5a:	11 2d       	mov	r17, r1
    1b5c:	05 c0       	rjmp	.+10     	; 0x1b68 <__moddi3+0x988>
    1b5e:	80 e1       	ldi	r24, 0x10	; 16
    1b60:	e8 2e       	mov	r14, r24
    1b62:	f1 2c       	mov	r15, r1
    1b64:	01 2d       	mov	r16, r1
    1b66:	11 2d       	mov	r17, r1
    1b68:	d6 01       	movw	r26, r12
    1b6a:	c5 01       	movw	r24, r10
    1b6c:	0e 2c       	mov	r0, r14
    1b6e:	04 c0       	rjmp	.+8      	; 0x1b78 <__moddi3+0x998>
    1b70:	b6 95       	lsr	r27
    1b72:	a7 95       	ror	r26
    1b74:	97 95       	ror	r25
    1b76:	87 95       	ror	r24
    1b78:	0a 94       	dec	r0
    1b7a:	d2 f7       	brpl	.-12     	; 0x1b70 <__moddi3+0x990>
    1b7c:	84 58       	subi	r24, 0x84	; 132
    1b7e:	9f 4f       	sbci	r25, 0xFF	; 255
    1b80:	dc 01       	movw	r26, r24
    1b82:	2c 91       	ld	r18, X
    1b84:	80 e2       	ldi	r24, 0x20	; 32
    1b86:	90 e0       	ldi	r25, 0x00	; 0
    1b88:	a0 e0       	ldi	r26, 0x00	; 0
    1b8a:	b0 e0       	ldi	r27, 0x00	; 0
    1b8c:	8e 19       	sub	r24, r14
    1b8e:	9f 09       	sbc	r25, r15
    1b90:	a0 0b       	sbc	r26, r16
    1b92:	b1 0b       	sbc	r27, r17
    1b94:	82 1b       	sub	r24, r18
    1b96:	91 09       	sbc	r25, r1
    1b98:	a1 09       	sbc	r26, r1
    1b9a:	b1 09       	sbc	r27, r1
    1b9c:	00 97       	sbiw	r24, 0x00	; 0
    1b9e:	a1 05       	cpc	r26, r1
    1ba0:	b1 05       	cpc	r27, r1
    1ba2:	09 f0       	breq	.+2      	; 0x1ba6 <__moddi3+0x9c6>
    1ba4:	59 c0       	rjmp	.+178    	; 0x1c58 <__moddi3+0xa78>
    1ba6:	a6 14       	cp	r10, r6
    1ba8:	b7 04       	cpc	r11, r7
    1baa:	c8 04       	cpc	r12, r8
    1bac:	d9 04       	cpc	r13, r9
    1bae:	70 f0       	brcs	.+28     	; 0x1bcc <__moddi3+0x9ec>
    1bb0:	e8 96       	adiw	r28, 0x38	; 56
    1bb2:	ec ac       	ldd	r14, Y+60	; 0x3c
    1bb4:	fd ac       	ldd	r15, Y+61	; 0x3d
    1bb6:	0e ad       	ldd	r16, Y+62	; 0x3e
    1bb8:	1f ad       	ldd	r17, Y+63	; 0x3f
    1bba:	e8 97       	sbiw	r28, 0x38	; 56
    1bbc:	e2 14       	cp	r14, r2
    1bbe:	f3 04       	cpc	r15, r3
    1bc0:	04 05       	cpc	r16, r4
    1bc2:	15 05       	cpc	r17, r5
    1bc4:	18 f4       	brcc	.+6      	; 0x1bcc <__moddi3+0x9ec>
    1bc6:	d8 01       	movw	r26, r16
    1bc8:	c7 01       	movw	r24, r14
    1bca:	2f c0       	rjmp	.+94     	; 0x1c2a <__moddi3+0xa4a>
    1bcc:	e8 96       	adiw	r28, 0x38	; 56
    1bce:	8c ad       	ldd	r24, Y+60	; 0x3c
    1bd0:	9d ad       	ldd	r25, Y+61	; 0x3d
    1bd2:	ae ad       	ldd	r26, Y+62	; 0x3e
    1bd4:	bf ad       	ldd	r27, Y+63	; 0x3f
    1bd6:	e8 97       	sbiw	r28, 0x38	; 56
    1bd8:	82 19       	sub	r24, r2
    1bda:	93 09       	sbc	r25, r3
    1bdc:	a4 09       	sbc	r26, r4
    1bde:	b5 09       	sbc	r27, r5
    1be0:	a4 01       	movw	r20, r8
    1be2:	93 01       	movw	r18, r6
    1be4:	2a 19       	sub	r18, r10
    1be6:	3b 09       	sbc	r19, r11
    1be8:	4c 09       	sbc	r20, r12
    1bea:	5d 09       	sbc	r21, r13
    1bec:	aa 24       	eor	r10, r10
    1bee:	bb 24       	eor	r11, r11
    1bf0:	65 01       	movw	r12, r10
    1bf2:	e8 96       	adiw	r28, 0x38	; 56
    1bf4:	6c ac       	ldd	r6, Y+60	; 0x3c
    1bf6:	7d ac       	ldd	r7, Y+61	; 0x3d
    1bf8:	8e ac       	ldd	r8, Y+62	; 0x3e
    1bfa:	9f ac       	ldd	r9, Y+63	; 0x3f
    1bfc:	e8 97       	sbiw	r28, 0x38	; 56
    1bfe:	68 16       	cp	r6, r24
    1c00:	79 06       	cpc	r7, r25
    1c02:	8a 06       	cpc	r8, r26
    1c04:	9b 06       	cpc	r9, r27
    1c06:	28 f4       	brcc	.+10     	; 0x1c12 <__moddi3+0xa32>
    1c08:	11 e0       	ldi	r17, 0x01	; 1
    1c0a:	a1 2e       	mov	r10, r17
    1c0c:	b1 2c       	mov	r11, r1
    1c0e:	c1 2c       	mov	r12, r1
    1c10:	d1 2c       	mov	r13, r1
    1c12:	79 01       	movw	r14, r18
    1c14:	8a 01       	movw	r16, r20
    1c16:	ea 18       	sub	r14, r10
    1c18:	fb 08       	sbc	r15, r11
    1c1a:	0c 09       	sbc	r16, r12
    1c1c:	1d 09       	sbc	r17, r13
    1c1e:	61 96       	adiw	r28, 0x11	; 17
    1c20:	ec ae       	std	Y+60, r14	; 0x3c
    1c22:	fd ae       	std	Y+61, r15	; 0x3d
    1c24:	0e af       	std	Y+62, r16	; 0x3e
    1c26:	1f af       	std	Y+63, r17	; 0x3f
    1c28:	61 97       	sbiw	r28, 0x11	; 17
    1c2a:	89 a7       	std	Y+41, r24	; 0x29
    1c2c:	9a a7       	std	Y+42, r25	; 0x2a
    1c2e:	ab a7       	std	Y+43, r26	; 0x2b
    1c30:	bc a7       	std	Y+44, r27	; 0x2c
    1c32:	61 96       	adiw	r28, 0x11	; 17
    1c34:	0c ad       	ldd	r16, Y+60	; 0x3c
    1c36:	1d ad       	ldd	r17, Y+61	; 0x3d
    1c38:	2e ad       	ldd	r18, Y+62	; 0x3e
    1c3a:	3f ad       	ldd	r19, Y+63	; 0x3f
    1c3c:	61 97       	sbiw	r28, 0x11	; 17
    1c3e:	0d a7       	std	Y+45, r16	; 0x2d
    1c40:	1e a7       	std	Y+46, r17	; 0x2e
    1c42:	2f a7       	std	Y+47, r18	; 0x2f
    1c44:	38 ab       	std	Y+48, r19	; 0x30
    1c46:	89 8b       	std	Y+17, r24	; 0x11
    1c48:	8a a5       	ldd	r24, Y+42	; 0x2a
    1c4a:	8a 8b       	std	Y+18, r24	; 0x12
    1c4c:	8b a5       	ldd	r24, Y+43	; 0x2b
    1c4e:	8b 8b       	std	Y+19, r24	; 0x13
    1c50:	8c a5       	ldd	r24, Y+44	; 0x2c
    1c52:	8c 8b       	std	Y+20, r24	; 0x14
    1c54:	0d 8b       	std	Y+21, r16	; 0x15
    1c56:	7b c2       	rjmp	.+1270   	; 0x214e <__moddi3+0xf6e>
    1c58:	e3 96       	adiw	r28, 0x33	; 51
    1c5a:	8f af       	std	Y+63, r24	; 0x3f
    1c5c:	e3 97       	sbiw	r28, 0x33	; 51
    1c5e:	a6 01       	movw	r20, r12
    1c60:	95 01       	movw	r18, r10
    1c62:	08 2e       	mov	r0, r24
    1c64:	04 c0       	rjmp	.+8      	; 0x1c6e <__moddi3+0xa8e>
    1c66:	22 0f       	add	r18, r18
    1c68:	33 1f       	adc	r19, r19
    1c6a:	44 1f       	adc	r20, r20
    1c6c:	55 1f       	adc	r21, r21
    1c6e:	0a 94       	dec	r0
    1c70:	d2 f7       	brpl	.-12     	; 0x1c66 <__moddi3+0xa86>
    1c72:	10 e2       	ldi	r17, 0x20	; 32
    1c74:	18 1b       	sub	r17, r24
    1c76:	e2 96       	adiw	r28, 0x32	; 50
    1c78:	1f af       	std	Y+63, r17	; 0x3f
    1c7a:	e2 97       	sbiw	r28, 0x32	; 50
    1c7c:	d2 01       	movw	r26, r4
    1c7e:	c1 01       	movw	r24, r2
    1c80:	01 2e       	mov	r0, r17
    1c82:	04 c0       	rjmp	.+8      	; 0x1c8c <__moddi3+0xaac>
    1c84:	b6 95       	lsr	r27
    1c86:	a7 95       	ror	r26
    1c88:	97 95       	ror	r25
    1c8a:	87 95       	ror	r24
    1c8c:	0a 94       	dec	r0
    1c8e:	d2 f7       	brpl	.-12     	; 0x1c84 <__moddi3+0xaa4>
    1c90:	5c 01       	movw	r10, r24
    1c92:	6d 01       	movw	r12, r26
    1c94:	a2 2a       	or	r10, r18
    1c96:	b3 2a       	or	r11, r19
    1c98:	c4 2a       	or	r12, r20
    1c9a:	d5 2a       	or	r13, r21
    1c9c:	25 96       	adiw	r28, 0x05	; 5
    1c9e:	ac ae       	std	Y+60, r10	; 0x3c
    1ca0:	bd ae       	std	Y+61, r11	; 0x3d
    1ca2:	ce ae       	std	Y+62, r12	; 0x3e
    1ca4:	df ae       	std	Y+63, r13	; 0x3f
    1ca6:	25 97       	sbiw	r28, 0x05	; 5
    1ca8:	72 01       	movw	r14, r4
    1caa:	61 01       	movw	r12, r2
    1cac:	e3 96       	adiw	r28, 0x33	; 51
    1cae:	0f ac       	ldd	r0, Y+63	; 0x3f
    1cb0:	e3 97       	sbiw	r28, 0x33	; 51
    1cb2:	04 c0       	rjmp	.+8      	; 0x1cbc <__moddi3+0xadc>
    1cb4:	cc 0c       	add	r12, r12
    1cb6:	dd 1c       	adc	r13, r13
    1cb8:	ee 1c       	adc	r14, r14
    1cba:	ff 1c       	adc	r15, r15
    1cbc:	0a 94       	dec	r0
    1cbe:	d2 f7       	brpl	.-12     	; 0x1cb4 <__moddi3+0xad4>
    1cc0:	21 96       	adiw	r28, 0x01	; 1
    1cc2:	cc ae       	std	Y+60, r12	; 0x3c
    1cc4:	dd ae       	std	Y+61, r13	; 0x3d
    1cc6:	ee ae       	std	Y+62, r14	; 0x3e
    1cc8:	ff ae       	std	Y+63, r15	; 0x3f
    1cca:	21 97       	sbiw	r28, 0x01	; 1
    1ccc:	64 01       	movw	r12, r8
    1cce:	53 01       	movw	r10, r6
    1cd0:	01 2e       	mov	r0, r17
    1cd2:	04 c0       	rjmp	.+8      	; 0x1cdc <__moddi3+0xafc>
    1cd4:	d6 94       	lsr	r13
    1cd6:	c7 94       	ror	r12
    1cd8:	b7 94       	ror	r11
    1cda:	a7 94       	ror	r10
    1cdc:	0a 94       	dec	r0
    1cde:	d2 f7       	brpl	.-12     	; 0x1cd4 <__moddi3+0xaf4>
    1ce0:	a4 01       	movw	r20, r8
    1ce2:	93 01       	movw	r18, r6
    1ce4:	e3 96       	adiw	r28, 0x33	; 51
    1ce6:	0f ac       	ldd	r0, Y+63	; 0x3f
    1ce8:	e3 97       	sbiw	r28, 0x33	; 51
    1cea:	04 c0       	rjmp	.+8      	; 0x1cf4 <__moddi3+0xb14>
    1cec:	22 0f       	add	r18, r18
    1cee:	33 1f       	adc	r19, r19
    1cf0:	44 1f       	adc	r20, r20
    1cf2:	55 1f       	adc	r21, r21
    1cf4:	0a 94       	dec	r0
    1cf6:	d2 f7       	brpl	.-12     	; 0x1cec <__moddi3+0xb0c>
    1cf8:	e8 96       	adiw	r28, 0x38	; 56
    1cfa:	8c ad       	ldd	r24, Y+60	; 0x3c
    1cfc:	9d ad       	ldd	r25, Y+61	; 0x3d
    1cfe:	ae ad       	ldd	r26, Y+62	; 0x3e
    1d00:	bf ad       	ldd	r27, Y+63	; 0x3f
    1d02:	e8 97       	sbiw	r28, 0x38	; 56
    1d04:	04 c0       	rjmp	.+8      	; 0x1d0e <__moddi3+0xb2e>
    1d06:	b6 95       	lsr	r27
    1d08:	a7 95       	ror	r26
    1d0a:	97 95       	ror	r25
    1d0c:	87 95       	ror	r24
    1d0e:	1a 95       	dec	r17
    1d10:	d2 f7       	brpl	.-12     	; 0x1d06 <__moddi3+0xb26>
    1d12:	7c 01       	movw	r14, r24
    1d14:	8d 01       	movw	r16, r26
    1d16:	e2 2a       	or	r14, r18
    1d18:	f3 2a       	or	r15, r19
    1d1a:	04 2b       	or	r16, r20
    1d1c:	15 2b       	or	r17, r21
    1d1e:	e9 ae       	std	Y+57, r14	; 0x39
    1d20:	fa ae       	std	Y+58, r15	; 0x3a
    1d22:	0b af       	std	Y+59, r16	; 0x3b
    1d24:	1c af       	std	Y+60, r17	; 0x3c
    1d26:	e8 96       	adiw	r28, 0x38	; 56
    1d28:	0c ad       	ldd	r16, Y+60	; 0x3c
    1d2a:	1d ad       	ldd	r17, Y+61	; 0x3d
    1d2c:	2e ad       	ldd	r18, Y+62	; 0x3e
    1d2e:	3f ad       	ldd	r19, Y+63	; 0x3f
    1d30:	e8 97       	sbiw	r28, 0x38	; 56
    1d32:	e3 96       	adiw	r28, 0x33	; 51
    1d34:	0f ac       	ldd	r0, Y+63	; 0x3f
    1d36:	e3 97       	sbiw	r28, 0x33	; 51
    1d38:	04 c0       	rjmp	.+8      	; 0x1d42 <__moddi3+0xb62>
    1d3a:	00 0f       	add	r16, r16
    1d3c:	11 1f       	adc	r17, r17
    1d3e:	22 1f       	adc	r18, r18
    1d40:	33 1f       	adc	r19, r19
    1d42:	0a 94       	dec	r0
    1d44:	d2 f7       	brpl	.-12     	; 0x1d3a <__moddi3+0xb5a>
    1d46:	0d ab       	std	Y+53, r16	; 0x35
    1d48:	1e ab       	std	Y+54, r17	; 0x36
    1d4a:	2f ab       	std	Y+55, r18	; 0x37
    1d4c:	38 af       	std	Y+56, r19	; 0x38
    1d4e:	25 96       	adiw	r28, 0x05	; 5
    1d50:	2c ad       	ldd	r18, Y+60	; 0x3c
    1d52:	3d ad       	ldd	r19, Y+61	; 0x3d
    1d54:	4e ad       	ldd	r20, Y+62	; 0x3e
    1d56:	5f ad       	ldd	r21, Y+63	; 0x3f
    1d58:	25 97       	sbiw	r28, 0x05	; 5
    1d5a:	3a 01       	movw	r6, r20
    1d5c:	88 24       	eor	r8, r8
    1d5e:	99 24       	eor	r9, r9
    1d60:	40 70       	andi	r20, 0x00	; 0
    1d62:	50 70       	andi	r21, 0x00	; 0
    1d64:	a5 96       	adiw	r28, 0x25	; 37
    1d66:	2c af       	std	Y+60, r18	; 0x3c
    1d68:	3d af       	std	Y+61, r19	; 0x3d
    1d6a:	4e af       	std	Y+62, r20	; 0x3e
    1d6c:	5f af       	std	Y+63, r21	; 0x3f
    1d6e:	a5 97       	sbiw	r28, 0x25	; 37
    1d70:	c6 01       	movw	r24, r12
    1d72:	b5 01       	movw	r22, r10
    1d74:	a4 01       	movw	r20, r8
    1d76:	93 01       	movw	r18, r6
    1d78:	0e 94 c9 2a 	call	0x5592	; 0x5592 <__udivmodsi4>
    1d7c:	7b 01       	movw	r14, r22
    1d7e:	8c 01       	movw	r16, r24
    1d80:	c6 01       	movw	r24, r12
    1d82:	b5 01       	movw	r22, r10
    1d84:	a4 01       	movw	r20, r8
    1d86:	93 01       	movw	r18, r6
    1d88:	0e 94 c9 2a 	call	0x5592	; 0x5592 <__udivmodsi4>
    1d8c:	c9 01       	movw	r24, r18
    1d8e:	da 01       	movw	r26, r20
    1d90:	1c 01       	movw	r2, r24
    1d92:	2d 01       	movw	r4, r26
    1d94:	c2 01       	movw	r24, r4
    1d96:	b1 01       	movw	r22, r2
    1d98:	a5 96       	adiw	r28, 0x25	; 37
    1d9a:	2c ad       	ldd	r18, Y+60	; 0x3c
    1d9c:	3d ad       	ldd	r19, Y+61	; 0x3d
    1d9e:	4e ad       	ldd	r20, Y+62	; 0x3e
    1da0:	5f ad       	ldd	r21, Y+63	; 0x3f
    1da2:	a5 97       	sbiw	r28, 0x25	; 37
    1da4:	0e 94 aa 2a 	call	0x5554	; 0x5554 <__mulsi3>
    1da8:	9b 01       	movw	r18, r22
    1daa:	ac 01       	movw	r20, r24
    1dac:	87 01       	movw	r16, r14
    1dae:	ff 24       	eor	r15, r15
    1db0:	ee 24       	eor	r14, r14
    1db2:	a9 ac       	ldd	r10, Y+57	; 0x39
    1db4:	ba ac       	ldd	r11, Y+58	; 0x3a
    1db6:	cb ac       	ldd	r12, Y+59	; 0x3b
    1db8:	dc ac       	ldd	r13, Y+60	; 0x3c
    1dba:	c6 01       	movw	r24, r12
    1dbc:	aa 27       	eor	r26, r26
    1dbe:	bb 27       	eor	r27, r27
    1dc0:	57 01       	movw	r10, r14
    1dc2:	68 01       	movw	r12, r16
    1dc4:	a8 2a       	or	r10, r24
    1dc6:	b9 2a       	or	r11, r25
    1dc8:	ca 2a       	or	r12, r26
    1dca:	db 2a       	or	r13, r27
    1dcc:	a2 16       	cp	r10, r18
    1dce:	b3 06       	cpc	r11, r19
    1dd0:	c4 06       	cpc	r12, r20
    1dd2:	d5 06       	cpc	r13, r21
    1dd4:	10 f5       	brcc	.+68     	; 0x1e1a <__moddi3+0xc3a>
    1dd6:	08 94       	sec
    1dd8:	21 08       	sbc	r2, r1
    1dda:	31 08       	sbc	r3, r1
    1ddc:	41 08       	sbc	r4, r1
    1dde:	51 08       	sbc	r5, r1
    1de0:	25 96       	adiw	r28, 0x05	; 5
    1de2:	ec ac       	ldd	r14, Y+60	; 0x3c
    1de4:	fd ac       	ldd	r15, Y+61	; 0x3d
    1de6:	0e ad       	ldd	r16, Y+62	; 0x3e
    1de8:	1f ad       	ldd	r17, Y+63	; 0x3f
    1dea:	25 97       	sbiw	r28, 0x05	; 5
    1dec:	ae 0c       	add	r10, r14
    1dee:	bf 1c       	adc	r11, r15
    1df0:	c0 1e       	adc	r12, r16
    1df2:	d1 1e       	adc	r13, r17
    1df4:	ae 14       	cp	r10, r14
    1df6:	bf 04       	cpc	r11, r15
    1df8:	c0 06       	cpc	r12, r16
    1dfa:	d1 06       	cpc	r13, r17
    1dfc:	70 f0       	brcs	.+28     	; 0x1e1a <__moddi3+0xc3a>
    1dfe:	a2 16       	cp	r10, r18
    1e00:	b3 06       	cpc	r11, r19
    1e02:	c4 06       	cpc	r12, r20
    1e04:	d5 06       	cpc	r13, r21
    1e06:	48 f4       	brcc	.+18     	; 0x1e1a <__moddi3+0xc3a>
    1e08:	08 94       	sec
    1e0a:	21 08       	sbc	r2, r1
    1e0c:	31 08       	sbc	r3, r1
    1e0e:	41 08       	sbc	r4, r1
    1e10:	51 08       	sbc	r5, r1
    1e12:	ae 0c       	add	r10, r14
    1e14:	bf 1c       	adc	r11, r15
    1e16:	c0 1e       	adc	r12, r16
    1e18:	d1 1e       	adc	r13, r17
    1e1a:	a2 1a       	sub	r10, r18
    1e1c:	b3 0a       	sbc	r11, r19
    1e1e:	c4 0a       	sbc	r12, r20
    1e20:	d5 0a       	sbc	r13, r21
    1e22:	c6 01       	movw	r24, r12
    1e24:	b5 01       	movw	r22, r10
    1e26:	a4 01       	movw	r20, r8
    1e28:	93 01       	movw	r18, r6
    1e2a:	0e 94 c9 2a 	call	0x5592	; 0x5592 <__udivmodsi4>
    1e2e:	7b 01       	movw	r14, r22
    1e30:	8c 01       	movw	r16, r24
    1e32:	c6 01       	movw	r24, r12
    1e34:	b5 01       	movw	r22, r10
    1e36:	a4 01       	movw	r20, r8
    1e38:	93 01       	movw	r18, r6
    1e3a:	0e 94 c9 2a 	call	0x5592	; 0x5592 <__udivmodsi4>
    1e3e:	c9 01       	movw	r24, r18
    1e40:	da 01       	movw	r26, r20
    1e42:	3c 01       	movw	r6, r24
    1e44:	4d 01       	movw	r8, r26
    1e46:	c4 01       	movw	r24, r8
    1e48:	b3 01       	movw	r22, r6
    1e4a:	a5 96       	adiw	r28, 0x25	; 37
    1e4c:	2c ad       	ldd	r18, Y+60	; 0x3c
    1e4e:	3d ad       	ldd	r19, Y+61	; 0x3d
    1e50:	4e ad       	ldd	r20, Y+62	; 0x3e
    1e52:	5f ad       	ldd	r21, Y+63	; 0x3f
    1e54:	a5 97       	sbiw	r28, 0x25	; 37
    1e56:	0e 94 aa 2a 	call	0x5554	; 0x5554 <__mulsi3>
    1e5a:	9b 01       	movw	r18, r22
    1e5c:	ac 01       	movw	r20, r24
    1e5e:	87 01       	movw	r16, r14
    1e60:	ff 24       	eor	r15, r15
    1e62:	ee 24       	eor	r14, r14
    1e64:	89 ad       	ldd	r24, Y+57	; 0x39
    1e66:	9a ad       	ldd	r25, Y+58	; 0x3a
    1e68:	ab ad       	ldd	r26, Y+59	; 0x3b
    1e6a:	bc ad       	ldd	r27, Y+60	; 0x3c
    1e6c:	a0 70       	andi	r26, 0x00	; 0
    1e6e:	b0 70       	andi	r27, 0x00	; 0
    1e70:	57 01       	movw	r10, r14
    1e72:	68 01       	movw	r12, r16
    1e74:	a8 2a       	or	r10, r24
    1e76:	b9 2a       	or	r11, r25
    1e78:	ca 2a       	or	r12, r26
    1e7a:	db 2a       	or	r13, r27
    1e7c:	a2 16       	cp	r10, r18
    1e7e:	b3 06       	cpc	r11, r19
    1e80:	c4 06       	cpc	r12, r20
    1e82:	d5 06       	cpc	r13, r21
    1e84:	10 f5       	brcc	.+68     	; 0x1eca <__moddi3+0xcea>
    1e86:	08 94       	sec
    1e88:	61 08       	sbc	r6, r1
    1e8a:	71 08       	sbc	r7, r1
    1e8c:	81 08       	sbc	r8, r1
    1e8e:	91 08       	sbc	r9, r1
    1e90:	25 96       	adiw	r28, 0x05	; 5
    1e92:	6c ad       	ldd	r22, Y+60	; 0x3c
    1e94:	7d ad       	ldd	r23, Y+61	; 0x3d
    1e96:	8e ad       	ldd	r24, Y+62	; 0x3e
    1e98:	9f ad       	ldd	r25, Y+63	; 0x3f
    1e9a:	25 97       	sbiw	r28, 0x05	; 5
    1e9c:	a6 0e       	add	r10, r22
    1e9e:	b7 1e       	adc	r11, r23
    1ea0:	c8 1e       	adc	r12, r24
    1ea2:	d9 1e       	adc	r13, r25
    1ea4:	a6 16       	cp	r10, r22
    1ea6:	b7 06       	cpc	r11, r23
    1ea8:	c8 06       	cpc	r12, r24
    1eaa:	d9 06       	cpc	r13, r25
    1eac:	70 f0       	brcs	.+28     	; 0x1eca <__moddi3+0xcea>
    1eae:	a2 16       	cp	r10, r18
    1eb0:	b3 06       	cpc	r11, r19
    1eb2:	c4 06       	cpc	r12, r20
    1eb4:	d5 06       	cpc	r13, r21
    1eb6:	48 f4       	brcc	.+18     	; 0x1eca <__moddi3+0xcea>
    1eb8:	08 94       	sec
    1eba:	61 08       	sbc	r6, r1
    1ebc:	71 08       	sbc	r7, r1
    1ebe:	81 08       	sbc	r8, r1
    1ec0:	91 08       	sbc	r9, r1
    1ec2:	a6 0e       	add	r10, r22
    1ec4:	b7 1e       	adc	r11, r23
    1ec6:	c8 1e       	adc	r12, r24
    1ec8:	d9 1e       	adc	r13, r25
    1eca:	d6 01       	movw	r26, r12
    1ecc:	c5 01       	movw	r24, r10
    1ece:	82 1b       	sub	r24, r18
    1ed0:	93 0b       	sbc	r25, r19
    1ed2:	a4 0b       	sbc	r26, r20
    1ed4:	b5 0b       	sbc	r27, r21
    1ed6:	89 ab       	std	Y+49, r24	; 0x31
    1ed8:	9a ab       	std	Y+50, r25	; 0x32
    1eda:	ab ab       	std	Y+51, r26	; 0x33
    1edc:	bc ab       	std	Y+52, r27	; 0x34
    1ede:	d1 01       	movw	r26, r2
    1ee0:	99 27       	eor	r25, r25
    1ee2:	88 27       	eor	r24, r24
    1ee4:	84 01       	movw	r16, r8
    1ee6:	73 01       	movw	r14, r6
    1ee8:	e8 2a       	or	r14, r24
    1eea:	f9 2a       	or	r15, r25
    1eec:	0a 2b       	or	r16, r26
    1eee:	1b 2b       	or	r17, r27
    1ef0:	8f ef       	ldi	r24, 0xFF	; 255
    1ef2:	a8 2e       	mov	r10, r24
    1ef4:	8f ef       	ldi	r24, 0xFF	; 255
    1ef6:	b8 2e       	mov	r11, r24
    1ef8:	c1 2c       	mov	r12, r1
    1efa:	d1 2c       	mov	r13, r1
    1efc:	ae 20       	and	r10, r14
    1efe:	bf 20       	and	r11, r15
    1f00:	c0 22       	and	r12, r16
    1f02:	d1 22       	and	r13, r17
    1f04:	78 01       	movw	r14, r16
    1f06:	00 27       	eor	r16, r16
    1f08:	11 27       	eor	r17, r17
    1f0a:	21 96       	adiw	r28, 0x01	; 1
    1f0c:	6c ac       	ldd	r6, Y+60	; 0x3c
    1f0e:	7d ac       	ldd	r7, Y+61	; 0x3d
    1f10:	8e ac       	ldd	r8, Y+62	; 0x3e
    1f12:	9f ac       	ldd	r9, Y+63	; 0x3f
    1f14:	21 97       	sbiw	r28, 0x01	; 1
    1f16:	2f ef       	ldi	r18, 0xFF	; 255
    1f18:	3f ef       	ldi	r19, 0xFF	; 255
    1f1a:	40 e0       	ldi	r20, 0x00	; 0
    1f1c:	50 e0       	ldi	r21, 0x00	; 0
    1f1e:	62 22       	and	r6, r18
    1f20:	73 22       	and	r7, r19
    1f22:	84 22       	and	r8, r20
    1f24:	95 22       	and	r9, r21
    1f26:	21 96       	adiw	r28, 0x01	; 1
    1f28:	6c ad       	ldd	r22, Y+60	; 0x3c
    1f2a:	7d ad       	ldd	r23, Y+61	; 0x3d
    1f2c:	8e ad       	ldd	r24, Y+62	; 0x3e
    1f2e:	9f ad       	ldd	r25, Y+63	; 0x3f
    1f30:	21 97       	sbiw	r28, 0x01	; 1
    1f32:	ac 01       	movw	r20, r24
    1f34:	66 27       	eor	r22, r22
    1f36:	77 27       	eor	r23, r23
    1f38:	ad 96       	adiw	r28, 0x2d	; 45
    1f3a:	4c af       	std	Y+60, r20	; 0x3c
    1f3c:	5d af       	std	Y+61, r21	; 0x3d
    1f3e:	6e af       	std	Y+62, r22	; 0x3e
    1f40:	7f af       	std	Y+63, r23	; 0x3f
    1f42:	ad 97       	sbiw	r28, 0x2d	; 45
    1f44:	c6 01       	movw	r24, r12
    1f46:	b5 01       	movw	r22, r10
    1f48:	a4 01       	movw	r20, r8
    1f4a:	93 01       	movw	r18, r6
    1f4c:	0e 94 aa 2a 	call	0x5554	; 0x5554 <__mulsi3>
    1f50:	a9 96       	adiw	r28, 0x29	; 41
    1f52:	6c af       	std	Y+60, r22	; 0x3c
    1f54:	7d af       	std	Y+61, r23	; 0x3d
    1f56:	8e af       	std	Y+62, r24	; 0x3e
    1f58:	9f af       	std	Y+63, r25	; 0x3f
    1f5a:	a9 97       	sbiw	r28, 0x29	; 41
    1f5c:	c6 01       	movw	r24, r12
    1f5e:	b5 01       	movw	r22, r10
    1f60:	ad 96       	adiw	r28, 0x2d	; 45
    1f62:	2c ad       	ldd	r18, Y+60	; 0x3c
    1f64:	3d ad       	ldd	r19, Y+61	; 0x3d
    1f66:	4e ad       	ldd	r20, Y+62	; 0x3e
    1f68:	5f ad       	ldd	r21, Y+63	; 0x3f
    1f6a:	ad 97       	sbiw	r28, 0x2d	; 45
    1f6c:	0e 94 aa 2a 	call	0x5554	; 0x5554 <__mulsi3>
    1f70:	1b 01       	movw	r2, r22
    1f72:	2c 01       	movw	r4, r24
    1f74:	c8 01       	movw	r24, r16
    1f76:	b7 01       	movw	r22, r14
    1f78:	a4 01       	movw	r20, r8
    1f7a:	93 01       	movw	r18, r6
    1f7c:	0e 94 aa 2a 	call	0x5554	; 0x5554 <__mulsi3>
    1f80:	5b 01       	movw	r10, r22
    1f82:	6c 01       	movw	r12, r24
    1f84:	c8 01       	movw	r24, r16
    1f86:	b7 01       	movw	r22, r14
    1f88:	ad 96       	adiw	r28, 0x2d	; 45
    1f8a:	2c ad       	ldd	r18, Y+60	; 0x3c
    1f8c:	3d ad       	ldd	r19, Y+61	; 0x3d
    1f8e:	4e ad       	ldd	r20, Y+62	; 0x3e
    1f90:	5f ad       	ldd	r21, Y+63	; 0x3f
    1f92:	ad 97       	sbiw	r28, 0x2d	; 45
    1f94:	0e 94 aa 2a 	call	0x5554	; 0x5554 <__mulsi3>
    1f98:	7b 01       	movw	r14, r22
    1f9a:	8c 01       	movw	r16, r24
    1f9c:	a6 01       	movw	r20, r12
    1f9e:	95 01       	movw	r18, r10
    1fa0:	22 0d       	add	r18, r2
    1fa2:	33 1d       	adc	r19, r3
    1fa4:	44 1d       	adc	r20, r4
    1fa6:	55 1d       	adc	r21, r5
    1fa8:	a9 96       	adiw	r28, 0x29	; 41
    1faa:	6c ac       	ldd	r6, Y+60	; 0x3c
    1fac:	7d ac       	ldd	r7, Y+61	; 0x3d
    1fae:	8e ac       	ldd	r8, Y+62	; 0x3e
    1fb0:	9f ac       	ldd	r9, Y+63	; 0x3f
    1fb2:	a9 97       	sbiw	r28, 0x29	; 41
    1fb4:	c4 01       	movw	r24, r8
    1fb6:	aa 27       	eor	r26, r26
    1fb8:	bb 27       	eor	r27, r27
    1fba:	28 0f       	add	r18, r24
    1fbc:	39 1f       	adc	r19, r25
    1fbe:	4a 1f       	adc	r20, r26
    1fc0:	5b 1f       	adc	r21, r27
    1fc2:	2a 15       	cp	r18, r10
    1fc4:	3b 05       	cpc	r19, r11
    1fc6:	4c 05       	cpc	r20, r12
    1fc8:	5d 05       	cpc	r21, r13
    1fca:	48 f4       	brcc	.+18     	; 0x1fde <__moddi3+0xdfe>
    1fcc:	81 2c       	mov	r8, r1
    1fce:	91 2c       	mov	r9, r1
    1fd0:	e1 e0       	ldi	r30, 0x01	; 1
    1fd2:	ae 2e       	mov	r10, r30
    1fd4:	b1 2c       	mov	r11, r1
    1fd6:	e8 0c       	add	r14, r8
    1fd8:	f9 1c       	adc	r15, r9
    1fda:	0a 1d       	adc	r16, r10
    1fdc:	1b 1d       	adc	r17, r11
    1fde:	ca 01       	movw	r24, r20
    1fe0:	aa 27       	eor	r26, r26
    1fe2:	bb 27       	eor	r27, r27
    1fe4:	57 01       	movw	r10, r14
    1fe6:	68 01       	movw	r12, r16
    1fe8:	a8 0e       	add	r10, r24
    1fea:	b9 1e       	adc	r11, r25
    1fec:	ca 1e       	adc	r12, r26
    1fee:	db 1e       	adc	r13, r27
    1ff0:	a9 01       	movw	r20, r18
    1ff2:	33 27       	eor	r19, r19
    1ff4:	22 27       	eor	r18, r18
    1ff6:	a9 96       	adiw	r28, 0x29	; 41
    1ff8:	8c ad       	ldd	r24, Y+60	; 0x3c
    1ffa:	9d ad       	ldd	r25, Y+61	; 0x3d
    1ffc:	ae ad       	ldd	r26, Y+62	; 0x3e
    1ffe:	bf ad       	ldd	r27, Y+63	; 0x3f
    2000:	a9 97       	sbiw	r28, 0x29	; 41
    2002:	a0 70       	andi	r26, 0x00	; 0
    2004:	b0 70       	andi	r27, 0x00	; 0
    2006:	28 0f       	add	r18, r24
    2008:	39 1f       	adc	r19, r25
    200a:	4a 1f       	adc	r20, r26
    200c:	5b 1f       	adc	r21, r27
    200e:	e9 a8       	ldd	r14, Y+49	; 0x31
    2010:	fa a8       	ldd	r15, Y+50	; 0x32
    2012:	0b a9       	ldd	r16, Y+51	; 0x33
    2014:	1c a9       	ldd	r17, Y+52	; 0x34
    2016:	ea 14       	cp	r14, r10
    2018:	fb 04       	cpc	r15, r11
    201a:	0c 05       	cpc	r16, r12
    201c:	1d 05       	cpc	r17, r13
    201e:	70 f0       	brcs	.+28     	; 0x203c <__moddi3+0xe5c>
    2020:	ae 14       	cp	r10, r14
    2022:	bf 04       	cpc	r11, r15
    2024:	c0 06       	cpc	r12, r16
    2026:	d1 06       	cpc	r13, r17
    2028:	89 f5       	brne	.+98     	; 0x208c <__moddi3+0xeac>
    202a:	6d a9       	ldd	r22, Y+53	; 0x35
    202c:	7e a9       	ldd	r23, Y+54	; 0x36
    202e:	8f a9       	ldd	r24, Y+55	; 0x37
    2030:	98 ad       	ldd	r25, Y+56	; 0x38
    2032:	62 17       	cp	r22, r18
    2034:	73 07       	cpc	r23, r19
    2036:	84 07       	cpc	r24, r20
    2038:	95 07       	cpc	r25, r21
    203a:	40 f5       	brcc	.+80     	; 0x208c <__moddi3+0xeac>
    203c:	da 01       	movw	r26, r20
    203e:	c9 01       	movw	r24, r18
    2040:	21 96       	adiw	r28, 0x01	; 1
    2042:	6c ac       	ldd	r6, Y+60	; 0x3c
    2044:	7d ac       	ldd	r7, Y+61	; 0x3d
    2046:	8e ac       	ldd	r8, Y+62	; 0x3e
    2048:	9f ac       	ldd	r9, Y+63	; 0x3f
    204a:	21 97       	sbiw	r28, 0x01	; 1
    204c:	86 19       	sub	r24, r6
    204e:	97 09       	sbc	r25, r7
    2050:	a8 09       	sbc	r26, r8
    2052:	b9 09       	sbc	r27, r9
    2054:	25 96       	adiw	r28, 0x05	; 5
    2056:	ec ac       	ldd	r14, Y+60	; 0x3c
    2058:	fd ac       	ldd	r15, Y+61	; 0x3d
    205a:	0e ad       	ldd	r16, Y+62	; 0x3e
    205c:	1f ad       	ldd	r17, Y+63	; 0x3f
    205e:	25 97       	sbiw	r28, 0x05	; 5
    2060:	ae 18       	sub	r10, r14
    2062:	bf 08       	sbc	r11, r15
    2064:	c0 0a       	sbc	r12, r16
    2066:	d1 0a       	sbc	r13, r17
    2068:	ee 24       	eor	r14, r14
    206a:	ff 24       	eor	r15, r15
    206c:	87 01       	movw	r16, r14
    206e:	28 17       	cp	r18, r24
    2070:	39 07       	cpc	r19, r25
    2072:	4a 07       	cpc	r20, r26
    2074:	5b 07       	cpc	r21, r27
    2076:	28 f4       	brcc	.+10     	; 0x2082 <__moddi3+0xea2>
    2078:	21 e0       	ldi	r18, 0x01	; 1
    207a:	e2 2e       	mov	r14, r18
    207c:	f1 2c       	mov	r15, r1
    207e:	01 2d       	mov	r16, r1
    2080:	11 2d       	mov	r17, r1
    2082:	ae 18       	sub	r10, r14
    2084:	bf 08       	sbc	r11, r15
    2086:	c0 0a       	sbc	r12, r16
    2088:	d1 0a       	sbc	r13, r17
    208a:	02 c0       	rjmp	.+4      	; 0x2090 <__moddi3+0xeb0>
    208c:	da 01       	movw	r26, r20
    208e:	c9 01       	movw	r24, r18
    2090:	6d a8       	ldd	r6, Y+53	; 0x35
    2092:	7e a8       	ldd	r7, Y+54	; 0x36
    2094:	8f a8       	ldd	r8, Y+55	; 0x37
    2096:	98 ac       	ldd	r9, Y+56	; 0x38
    2098:	68 1a       	sub	r6, r24
    209a:	79 0a       	sbc	r7, r25
    209c:	8a 0a       	sbc	r8, r26
    209e:	9b 0a       	sbc	r9, r27
    20a0:	09 a9       	ldd	r16, Y+49	; 0x31
    20a2:	1a a9       	ldd	r17, Y+50	; 0x32
    20a4:	2b a9       	ldd	r18, Y+51	; 0x33
    20a6:	3c a9       	ldd	r19, Y+52	; 0x34
    20a8:	0a 19       	sub	r16, r10
    20aa:	1b 09       	sbc	r17, r11
    20ac:	2c 09       	sbc	r18, r12
    20ae:	3d 09       	sbc	r19, r13
    20b0:	58 01       	movw	r10, r16
    20b2:	69 01       	movw	r12, r18
    20b4:	22 24       	eor	r2, r2
    20b6:	33 24       	eor	r3, r3
    20b8:	21 01       	movw	r4, r2
    20ba:	2d a9       	ldd	r18, Y+53	; 0x35
    20bc:	3e a9       	ldd	r19, Y+54	; 0x36
    20be:	4f a9       	ldd	r20, Y+55	; 0x37
    20c0:	58 ad       	ldd	r21, Y+56	; 0x38
    20c2:	26 15       	cp	r18, r6
    20c4:	37 05       	cpc	r19, r7
    20c6:	48 05       	cpc	r20, r8
    20c8:	59 05       	cpc	r21, r9
    20ca:	28 f4       	brcc	.+10     	; 0x20d6 <__moddi3+0xef6>
    20cc:	81 e0       	ldi	r24, 0x01	; 1
    20ce:	28 2e       	mov	r2, r24
    20d0:	31 2c       	mov	r3, r1
    20d2:	41 2c       	mov	r4, r1
    20d4:	51 2c       	mov	r5, r1
    20d6:	86 01       	movw	r16, r12
    20d8:	75 01       	movw	r14, r10
    20da:	e2 18       	sub	r14, r2
    20dc:	f3 08       	sbc	r15, r3
    20de:	04 09       	sbc	r16, r4
    20e0:	15 09       	sbc	r17, r5
    20e2:	a8 01       	movw	r20, r16
    20e4:	97 01       	movw	r18, r14
    20e6:	e2 96       	adiw	r28, 0x32	; 50
    20e8:	0f ac       	ldd	r0, Y+63	; 0x3f
    20ea:	e2 97       	sbiw	r28, 0x32	; 50
    20ec:	04 c0       	rjmp	.+8      	; 0x20f6 <__moddi3+0xf16>
    20ee:	22 0f       	add	r18, r18
    20f0:	33 1f       	adc	r19, r19
    20f2:	44 1f       	adc	r20, r20
    20f4:	55 1f       	adc	r21, r21
    20f6:	0a 94       	dec	r0
    20f8:	d2 f7       	brpl	.-12     	; 0x20ee <__moddi3+0xf0e>
    20fa:	d4 01       	movw	r26, r8
    20fc:	c3 01       	movw	r24, r6
    20fe:	e3 96       	adiw	r28, 0x33	; 51
    2100:	0f ac       	ldd	r0, Y+63	; 0x3f
    2102:	e3 97       	sbiw	r28, 0x33	; 51
    2104:	04 c0       	rjmp	.+8      	; 0x210e <__moddi3+0xf2e>
    2106:	b6 95       	lsr	r27
    2108:	a7 95       	ror	r26
    210a:	97 95       	ror	r25
    210c:	87 95       	ror	r24
    210e:	0a 94       	dec	r0
    2110:	d2 f7       	brpl	.-12     	; 0x2106 <__moddi3+0xf26>
    2112:	28 2b       	or	r18, r24
    2114:	39 2b       	or	r19, r25
    2116:	4a 2b       	or	r20, r26
    2118:	5b 2b       	or	r21, r27
    211a:	29 a7       	std	Y+41, r18	; 0x29
    211c:	3a a7       	std	Y+42, r19	; 0x2a
    211e:	4b a7       	std	Y+43, r20	; 0x2b
    2120:	5c a7       	std	Y+44, r21	; 0x2c
    2122:	e3 96       	adiw	r28, 0x33	; 51
    2124:	0f ac       	ldd	r0, Y+63	; 0x3f
    2126:	e3 97       	sbiw	r28, 0x33	; 51
    2128:	04 c0       	rjmp	.+8      	; 0x2132 <__moddi3+0xf52>
    212a:	16 95       	lsr	r17
    212c:	07 95       	ror	r16
    212e:	f7 94       	ror	r15
    2130:	e7 94       	ror	r14
    2132:	0a 94       	dec	r0
    2134:	d2 f7       	brpl	.-12     	; 0x212a <__moddi3+0xf4a>
    2136:	ed a6       	std	Y+45, r14	; 0x2d
    2138:	fe a6       	std	Y+46, r15	; 0x2e
    213a:	0f a7       	std	Y+47, r16	; 0x2f
    213c:	18 ab       	std	Y+48, r17	; 0x30
    213e:	29 8b       	std	Y+17, r18	; 0x11
    2140:	8a a5       	ldd	r24, Y+42	; 0x2a
    2142:	8a 8b       	std	Y+18, r24	; 0x12
    2144:	8b a5       	ldd	r24, Y+43	; 0x2b
    2146:	8b 8b       	std	Y+19, r24	; 0x13
    2148:	8c a5       	ldd	r24, Y+44	; 0x2c
    214a:	8c 8b       	std	Y+20, r24	; 0x14
    214c:	ed 8a       	std	Y+21, r14	; 0x15
    214e:	8e a5       	ldd	r24, Y+46	; 0x2e
    2150:	8e 8b       	std	Y+22, r24	; 0x16
    2152:	8f a5       	ldd	r24, Y+47	; 0x2f
    2154:	8f 8b       	std	Y+23, r24	; 0x17
    2156:	88 a9       	ldd	r24, Y+48	; 0x30
    2158:	88 8f       	std	Y+24, r24	; 0x18
    215a:	e1 96       	adiw	r28, 0x31	; 49
    215c:	4c ad       	ldd	r20, Y+60	; 0x3c
    215e:	5d ad       	ldd	r21, Y+61	; 0x3d
    2160:	6e ad       	ldd	r22, Y+62	; 0x3e
    2162:	7f ad       	ldd	r23, Y+63	; 0x3f
    2164:	e1 97       	sbiw	r28, 0x31	; 49
    2166:	41 15       	cp	r20, r1
    2168:	51 05       	cpc	r21, r1
    216a:	61 05       	cpc	r22, r1
    216c:	71 05       	cpc	r23, r1
    216e:	09 f4       	brne	.+2      	; 0x2172 <__moddi3+0xf92>
    2170:	67 c0       	rjmp	.+206    	; 0x2240 <__moddi3+0x1060>
    2172:	89 89       	ldd	r24, Y+17	; 0x11
    2174:	2a 89       	ldd	r18, Y+18	; 0x12
    2176:	3b 89       	ldd	r19, Y+19	; 0x13
    2178:	4c 89       	ldd	r20, Y+20	; 0x14
    217a:	5d 89       	ldd	r21, Y+21	; 0x15
    217c:	ae 89       	ldd	r26, Y+22	; 0x16
    217e:	bf 89       	ldd	r27, Y+23	; 0x17
    2180:	18 8d       	ldd	r17, Y+24	; 0x18
    2182:	f8 2f       	mov	r31, r24
    2184:	f1 95       	neg	r31
    2186:	91 e0       	ldi	r25, 0x01	; 1
    2188:	1f 16       	cp	r1, r31
    218a:	08 f0       	brcs	.+2      	; 0x218e <__moddi3+0xfae>
    218c:	90 e0       	ldi	r25, 0x00	; 0
    218e:	82 2f       	mov	r24, r18
    2190:	81 95       	neg	r24
    2192:	21 e0       	ldi	r18, 0x01	; 1
    2194:	18 16       	cp	r1, r24
    2196:	08 f0       	brcs	.+2      	; 0x219a <__moddi3+0xfba>
    2198:	20 e0       	ldi	r18, 0x00	; 0
    219a:	e8 2f       	mov	r30, r24
    219c:	e9 1b       	sub	r30, r25
    219e:	91 e0       	ldi	r25, 0x01	; 1
    21a0:	8e 17       	cp	r24, r30
    21a2:	08 f0       	brcs	.+2      	; 0x21a6 <__moddi3+0xfc6>
    21a4:	90 e0       	ldi	r25, 0x00	; 0
    21a6:	29 2b       	or	r18, r25
    21a8:	83 2f       	mov	r24, r19
    21aa:	81 95       	neg	r24
    21ac:	31 e0       	ldi	r19, 0x01	; 1
    21ae:	18 16       	cp	r1, r24
    21b0:	08 f0       	brcs	.+2      	; 0x21b4 <__moddi3+0xfd4>
    21b2:	30 e0       	ldi	r19, 0x00	; 0
    21b4:	78 2f       	mov	r23, r24
    21b6:	72 1b       	sub	r23, r18
    21b8:	91 e0       	ldi	r25, 0x01	; 1
    21ba:	87 17       	cp	r24, r23
    21bc:	08 f0       	brcs	.+2      	; 0x21c0 <__moddi3+0xfe0>
    21be:	90 e0       	ldi	r25, 0x00	; 0
    21c0:	39 2b       	or	r19, r25
    21c2:	84 2f       	mov	r24, r20
    21c4:	81 95       	neg	r24
    21c6:	21 e0       	ldi	r18, 0x01	; 1
    21c8:	18 16       	cp	r1, r24
    21ca:	08 f0       	brcs	.+2      	; 0x21ce <__moddi3+0xfee>
    21cc:	20 e0       	ldi	r18, 0x00	; 0
    21ce:	68 2f       	mov	r22, r24
    21d0:	63 1b       	sub	r22, r19
    21d2:	91 e0       	ldi	r25, 0x01	; 1
    21d4:	86 17       	cp	r24, r22
    21d6:	08 f0       	brcs	.+2      	; 0x21da <__moddi3+0xffa>
    21d8:	90 e0       	ldi	r25, 0x00	; 0
    21da:	29 2b       	or	r18, r25
    21dc:	85 2f       	mov	r24, r21
    21de:	81 95       	neg	r24
    21e0:	31 e0       	ldi	r19, 0x01	; 1
    21e2:	18 16       	cp	r1, r24
    21e4:	08 f0       	brcs	.+2      	; 0x21e8 <__moddi3+0x1008>
    21e6:	30 e0       	ldi	r19, 0x00	; 0
    21e8:	58 2f       	mov	r21, r24
    21ea:	52 1b       	sub	r21, r18
    21ec:	91 e0       	ldi	r25, 0x01	; 1
    21ee:	85 17       	cp	r24, r21
    21f0:	08 f0       	brcs	.+2      	; 0x21f4 <__moddi3+0x1014>
    21f2:	90 e0       	ldi	r25, 0x00	; 0
    21f4:	39 2b       	or	r19, r25
    21f6:	8a 2f       	mov	r24, r26
    21f8:	81 95       	neg	r24
    21fa:	21 e0       	ldi	r18, 0x01	; 1
    21fc:	18 16       	cp	r1, r24
    21fe:	08 f0       	brcs	.+2      	; 0x2202 <__moddi3+0x1022>
    2200:	20 e0       	ldi	r18, 0x00	; 0
    2202:	48 2f       	mov	r20, r24
    2204:	43 1b       	sub	r20, r19
    2206:	91 e0       	ldi	r25, 0x01	; 1
    2208:	84 17       	cp	r24, r20
    220a:	08 f0       	brcs	.+2      	; 0x220e <__moddi3+0x102e>
    220c:	90 e0       	ldi	r25, 0x00	; 0
    220e:	29 2b       	or	r18, r25
    2210:	8b 2f       	mov	r24, r27
    2212:	81 95       	neg	r24
    2214:	91 e0       	ldi	r25, 0x01	; 1
    2216:	18 16       	cp	r1, r24
    2218:	08 f0       	brcs	.+2      	; 0x221c <__moddi3+0x103c>
    221a:	90 e0       	ldi	r25, 0x00	; 0
    221c:	38 2f       	mov	r19, r24
    221e:	32 1b       	sub	r19, r18
    2220:	21 e0       	ldi	r18, 0x01	; 1
    2222:	83 17       	cp	r24, r19
    2224:	08 f0       	brcs	.+2      	; 0x2228 <__moddi3+0x1048>
    2226:	20 e0       	ldi	r18, 0x00	; 0
    2228:	92 2b       	or	r25, r18
    222a:	81 2f       	mov	r24, r17
    222c:	81 95       	neg	r24
    222e:	89 1b       	sub	r24, r25
    2230:	f9 8b       	std	Y+17, r31	; 0x11
    2232:	ea 8b       	std	Y+18, r30	; 0x12
    2234:	7b 8b       	std	Y+19, r23	; 0x13
    2236:	6c 8b       	std	Y+20, r22	; 0x14
    2238:	5d 8b       	std	Y+21, r21	; 0x15
    223a:	4e 8b       	std	Y+22, r20	; 0x16
    223c:	3f 8b       	std	Y+23, r19	; 0x17
    223e:	88 8f       	std	Y+24, r24	; 0x18
    2240:	29 89       	ldd	r18, Y+17	; 0x11
    2242:	3a 89       	ldd	r19, Y+18	; 0x12
    2244:	4b 89       	ldd	r20, Y+19	; 0x13
    2246:	5c 89       	ldd	r21, Y+20	; 0x14
    2248:	6d 89       	ldd	r22, Y+21	; 0x15
    224a:	7e 89       	ldd	r23, Y+22	; 0x16
    224c:	8f 89       	ldd	r24, Y+23	; 0x17
    224e:	98 8d       	ldd	r25, Y+24	; 0x18
    2250:	c9 58       	subi	r28, 0x89	; 137
    2252:	df 4f       	sbci	r29, 0xFF	; 255
    2254:	e2 e1       	ldi	r30, 0x12	; 18
    2256:	0c 94 07 2b 	jmp	0x560e	; 0x560e <__epilogue_restores__>

0000225a <__udivdi3>:
    225a:	ae e5       	ldi	r26, 0x5E	; 94
    225c:	b0 e0       	ldi	r27, 0x00	; 0
    225e:	e3 e3       	ldi	r30, 0x33	; 51
    2260:	f1 e1       	ldi	r31, 0x11	; 17
    2262:	0c 94 eb 2a 	jmp	0x55d6	; 0x55d6 <__prologue_saves__>
    2266:	a8 e0       	ldi	r26, 0x08	; 8
    2268:	4e 01       	movw	r8, r28
    226a:	08 94       	sec
    226c:	81 1c       	adc	r8, r1
    226e:	91 1c       	adc	r9, r1
    2270:	f4 01       	movw	r30, r8
    2272:	6a 2e       	mov	r6, r26
    2274:	11 92       	st	Z+, r1
    2276:	6a 94       	dec	r6
    2278:	e9 f7       	brne	.-6      	; 0x2274 <__udivdi3+0x1a>
    227a:	29 83       	std	Y+1, r18	; 0x01
    227c:	3a 83       	std	Y+2, r19	; 0x02
    227e:	4b 83       	std	Y+3, r20	; 0x03
    2280:	5c 83       	std	Y+4, r21	; 0x04
    2282:	6d 83       	std	Y+5, r22	; 0x05
    2284:	7e 83       	std	Y+6, r23	; 0x06
    2286:	8f 83       	std	Y+7, r24	; 0x07
    2288:	98 87       	std	Y+8, r25	; 0x08
    228a:	ce 01       	movw	r24, r28
    228c:	09 96       	adiw	r24, 0x09	; 9
    228e:	fc 01       	movw	r30, r24
    2290:	11 92       	st	Z+, r1
    2292:	aa 95       	dec	r26
    2294:	e9 f7       	brne	.-6      	; 0x2290 <__udivdi3+0x36>
    2296:	a9 86       	std	Y+9, r10	; 0x09
    2298:	ba 86       	std	Y+10, r11	; 0x0a
    229a:	cb 86       	std	Y+11, r12	; 0x0b
    229c:	dc 86       	std	Y+12, r13	; 0x0c
    229e:	ed 86       	std	Y+13, r14	; 0x0d
    22a0:	fe 86       	std	Y+14, r15	; 0x0e
    22a2:	0f 87       	std	Y+15, r16	; 0x0f
    22a4:	18 8b       	std	Y+16, r17	; 0x10
    22a6:	29 84       	ldd	r2, Y+9	; 0x09
    22a8:	3a 84       	ldd	r3, Y+10	; 0x0a
    22aa:	4b 84       	ldd	r4, Y+11	; 0x0b
    22ac:	5c 84       	ldd	r5, Y+12	; 0x0c
    22ae:	ed 84       	ldd	r14, Y+13	; 0x0d
    22b0:	fe 84       	ldd	r15, Y+14	; 0x0e
    22b2:	0f 85       	ldd	r16, Y+15	; 0x0f
    22b4:	18 89       	ldd	r17, Y+16	; 0x10
    22b6:	69 80       	ldd	r6, Y+1	; 0x01
    22b8:	7a 80       	ldd	r7, Y+2	; 0x02
    22ba:	8b 80       	ldd	r8, Y+3	; 0x03
    22bc:	9c 80       	ldd	r9, Y+4	; 0x04
    22be:	6d a6       	std	Y+45, r6	; 0x2d
    22c0:	7e a6       	std	Y+46, r7	; 0x2e
    22c2:	8f a6       	std	Y+47, r8	; 0x2f
    22c4:	98 aa       	std	Y+48, r9	; 0x30
    22c6:	6d 80       	ldd	r6, Y+5	; 0x05
    22c8:	7e 80       	ldd	r7, Y+6	; 0x06
    22ca:	8f 80       	ldd	r8, Y+7	; 0x07
    22cc:	98 84       	ldd	r9, Y+8	; 0x08
    22ce:	e1 14       	cp	r14, r1
    22d0:	f1 04       	cpc	r15, r1
    22d2:	01 05       	cpc	r16, r1
    22d4:	11 05       	cpc	r17, r1
    22d6:	09 f0       	breq	.+2      	; 0x22da <__udivdi3+0x80>
    22d8:	b3 c3       	rjmp	.+1894   	; 0x2a40 <__udivdi3+0x7e6>
    22da:	62 14       	cp	r6, r2
    22dc:	73 04       	cpc	r7, r3
    22de:	84 04       	cpc	r8, r4
    22e0:	95 04       	cpc	r9, r5
    22e2:	08 f0       	brcs	.+2      	; 0x22e6 <__udivdi3+0x8c>
    22e4:	3d c1       	rjmp	.+634    	; 0x2560 <__udivdi3+0x306>
    22e6:	00 e0       	ldi	r16, 0x00	; 0
    22e8:	20 16       	cp	r2, r16
    22ea:	00 e0       	ldi	r16, 0x00	; 0
    22ec:	30 06       	cpc	r3, r16
    22ee:	01 e0       	ldi	r16, 0x01	; 1
    22f0:	40 06       	cpc	r4, r16
    22f2:	00 e0       	ldi	r16, 0x00	; 0
    22f4:	50 06       	cpc	r5, r16
    22f6:	88 f4       	brcc	.+34     	; 0x231a <__udivdi3+0xc0>
    22f8:	1f ef       	ldi	r17, 0xFF	; 255
    22fa:	21 16       	cp	r2, r17
    22fc:	31 04       	cpc	r3, r1
    22fe:	41 04       	cpc	r4, r1
    2300:	51 04       	cpc	r5, r1
    2302:	39 f0       	breq	.+14     	; 0x2312 <__udivdi3+0xb8>
    2304:	30 f0       	brcs	.+12     	; 0x2312 <__udivdi3+0xb8>
    2306:	48 e0       	ldi	r20, 0x08	; 8
    2308:	e4 2e       	mov	r14, r20
    230a:	f1 2c       	mov	r15, r1
    230c:	01 2d       	mov	r16, r1
    230e:	11 2d       	mov	r17, r1
    2310:	18 c0       	rjmp	.+48     	; 0x2342 <__udivdi3+0xe8>
    2312:	ee 24       	eor	r14, r14
    2314:	ff 24       	eor	r15, r15
    2316:	87 01       	movw	r16, r14
    2318:	14 c0       	rjmp	.+40     	; 0x2342 <__udivdi3+0xe8>
    231a:	20 e0       	ldi	r18, 0x00	; 0
    231c:	22 16       	cp	r2, r18
    231e:	20 e0       	ldi	r18, 0x00	; 0
    2320:	32 06       	cpc	r3, r18
    2322:	20 e0       	ldi	r18, 0x00	; 0
    2324:	42 06       	cpc	r4, r18
    2326:	21 e0       	ldi	r18, 0x01	; 1
    2328:	52 06       	cpc	r5, r18
    232a:	30 f0       	brcs	.+12     	; 0x2338 <__udivdi3+0xde>
    232c:	38 e1       	ldi	r19, 0x18	; 24
    232e:	e3 2e       	mov	r14, r19
    2330:	f1 2c       	mov	r15, r1
    2332:	01 2d       	mov	r16, r1
    2334:	11 2d       	mov	r17, r1
    2336:	05 c0       	rjmp	.+10     	; 0x2342 <__udivdi3+0xe8>
    2338:	20 e1       	ldi	r18, 0x10	; 16
    233a:	e2 2e       	mov	r14, r18
    233c:	f1 2c       	mov	r15, r1
    233e:	01 2d       	mov	r16, r1
    2340:	11 2d       	mov	r17, r1
    2342:	d2 01       	movw	r26, r4
    2344:	c1 01       	movw	r24, r2
    2346:	0e 2c       	mov	r0, r14
    2348:	04 c0       	rjmp	.+8      	; 0x2352 <__udivdi3+0xf8>
    234a:	b6 95       	lsr	r27
    234c:	a7 95       	ror	r26
    234e:	97 95       	ror	r25
    2350:	87 95       	ror	r24
    2352:	0a 94       	dec	r0
    2354:	d2 f7       	brpl	.-12     	; 0x234a <__udivdi3+0xf0>
    2356:	84 58       	subi	r24, 0x84	; 132
    2358:	9f 4f       	sbci	r25, 0xFF	; 255
    235a:	dc 01       	movw	r26, r24
    235c:	2c 91       	ld	r18, X
    235e:	80 e2       	ldi	r24, 0x20	; 32
    2360:	90 e0       	ldi	r25, 0x00	; 0
    2362:	a0 e0       	ldi	r26, 0x00	; 0
    2364:	b0 e0       	ldi	r27, 0x00	; 0
    2366:	8e 19       	sub	r24, r14
    2368:	9f 09       	sbc	r25, r15
    236a:	a0 0b       	sbc	r26, r16
    236c:	b1 0b       	sbc	r27, r17
    236e:	7c 01       	movw	r14, r24
    2370:	8d 01       	movw	r16, r26
    2372:	e2 1a       	sub	r14, r18
    2374:	f1 08       	sbc	r15, r1
    2376:	01 09       	sbc	r16, r1
    2378:	11 09       	sbc	r17, r1
    237a:	e1 14       	cp	r14, r1
    237c:	f1 04       	cpc	r15, r1
    237e:	01 05       	cpc	r16, r1
    2380:	11 05       	cpc	r17, r1
    2382:	a1 f1       	breq	.+104    	; 0x23ec <__udivdi3+0x192>
    2384:	0e 2c       	mov	r0, r14
    2386:	04 c0       	rjmp	.+8      	; 0x2390 <__udivdi3+0x136>
    2388:	22 0c       	add	r2, r2
    238a:	33 1c       	adc	r3, r3
    238c:	44 1c       	adc	r4, r4
    238e:	55 1c       	adc	r5, r5
    2390:	0a 94       	dec	r0
    2392:	d2 f7       	brpl	.-12     	; 0x2388 <__udivdi3+0x12e>
    2394:	a4 01       	movw	r20, r8
    2396:	93 01       	movw	r18, r6
    2398:	0e 2c       	mov	r0, r14
    239a:	04 c0       	rjmp	.+8      	; 0x23a4 <__udivdi3+0x14a>
    239c:	22 0f       	add	r18, r18
    239e:	33 1f       	adc	r19, r19
    23a0:	44 1f       	adc	r20, r20
    23a2:	55 1f       	adc	r21, r21
    23a4:	0a 94       	dec	r0
    23a6:	d2 f7       	brpl	.-12     	; 0x239c <__udivdi3+0x142>
    23a8:	80 e2       	ldi	r24, 0x20	; 32
    23aa:	90 e0       	ldi	r25, 0x00	; 0
    23ac:	8e 19       	sub	r24, r14
    23ae:	9f 09       	sbc	r25, r15
    23b0:	6d a4       	ldd	r6, Y+45	; 0x2d
    23b2:	7e a4       	ldd	r7, Y+46	; 0x2e
    23b4:	8f a4       	ldd	r8, Y+47	; 0x2f
    23b6:	98 a8       	ldd	r9, Y+48	; 0x30
    23b8:	04 c0       	rjmp	.+8      	; 0x23c2 <__udivdi3+0x168>
    23ba:	96 94       	lsr	r9
    23bc:	87 94       	ror	r8
    23be:	77 94       	ror	r7
    23c0:	67 94       	ror	r6
    23c2:	8a 95       	dec	r24
    23c4:	d2 f7       	brpl	.-12     	; 0x23ba <__udivdi3+0x160>
    23c6:	62 2a       	or	r6, r18
    23c8:	73 2a       	or	r7, r19
    23ca:	84 2a       	or	r8, r20
    23cc:	95 2a       	or	r9, r21
    23ce:	ad a4       	ldd	r10, Y+45	; 0x2d
    23d0:	be a4       	ldd	r11, Y+46	; 0x2e
    23d2:	cf a4       	ldd	r12, Y+47	; 0x2f
    23d4:	d8 a8       	ldd	r13, Y+48	; 0x30
    23d6:	04 c0       	rjmp	.+8      	; 0x23e0 <__udivdi3+0x186>
    23d8:	aa 0c       	add	r10, r10
    23da:	bb 1c       	adc	r11, r11
    23dc:	cc 1c       	adc	r12, r12
    23de:	dd 1c       	adc	r13, r13
    23e0:	ea 94       	dec	r14
    23e2:	d2 f7       	brpl	.-12     	; 0x23d8 <__udivdi3+0x17e>
    23e4:	ad a6       	std	Y+45, r10	; 0x2d
    23e6:	be a6       	std	Y+46, r11	; 0x2e
    23e8:	cf a6       	std	Y+47, r12	; 0x2f
    23ea:	d8 aa       	std	Y+48, r13	; 0x30
    23ec:	62 01       	movw	r12, r4
    23ee:	ee 24       	eor	r14, r14
    23f0:	ff 24       	eor	r15, r15
    23f2:	cd aa       	std	Y+53, r12	; 0x35
    23f4:	de aa       	std	Y+54, r13	; 0x36
    23f6:	ef aa       	std	Y+55, r14	; 0x37
    23f8:	f8 ae       	std	Y+56, r15	; 0x38
    23fa:	92 01       	movw	r18, r4
    23fc:	81 01       	movw	r16, r2
    23fe:	20 70       	andi	r18, 0x00	; 0
    2400:	30 70       	andi	r19, 0x00	; 0
    2402:	09 af       	std	Y+57, r16	; 0x39
    2404:	1a af       	std	Y+58, r17	; 0x3a
    2406:	2b af       	std	Y+59, r18	; 0x3b
    2408:	3c af       	std	Y+60, r19	; 0x3c
    240a:	c4 01       	movw	r24, r8
    240c:	b3 01       	movw	r22, r6
    240e:	a7 01       	movw	r20, r14
    2410:	96 01       	movw	r18, r12
    2412:	0e 94 c9 2a 	call	0x5592	; 0x5592 <__udivmodsi4>
    2416:	7b 01       	movw	r14, r22
    2418:	8c 01       	movw	r16, r24
    241a:	c4 01       	movw	r24, r8
    241c:	b3 01       	movw	r22, r6
    241e:	2d a9       	ldd	r18, Y+53	; 0x35
    2420:	3e a9       	ldd	r19, Y+54	; 0x36
    2422:	4f a9       	ldd	r20, Y+55	; 0x37
    2424:	58 ad       	ldd	r21, Y+56	; 0x38
    2426:	0e 94 c9 2a 	call	0x5592	; 0x5592 <__udivmodsi4>
    242a:	c9 01       	movw	r24, r18
    242c:	da 01       	movw	r26, r20
    242e:	3c 01       	movw	r6, r24
    2430:	4d 01       	movw	r8, r26
    2432:	c4 01       	movw	r24, r8
    2434:	b3 01       	movw	r22, r6
    2436:	29 ad       	ldd	r18, Y+57	; 0x39
    2438:	3a ad       	ldd	r19, Y+58	; 0x3a
    243a:	4b ad       	ldd	r20, Y+59	; 0x3b
    243c:	5c ad       	ldd	r21, Y+60	; 0x3c
    243e:	0e 94 aa 2a 	call	0x5554	; 0x5554 <__mulsi3>
    2442:	9b 01       	movw	r18, r22
    2444:	ac 01       	movw	r20, r24
    2446:	87 01       	movw	r16, r14
    2448:	ff 24       	eor	r15, r15
    244a:	ee 24       	eor	r14, r14
    244c:	ad a4       	ldd	r10, Y+45	; 0x2d
    244e:	be a4       	ldd	r11, Y+46	; 0x2e
    2450:	cf a4       	ldd	r12, Y+47	; 0x2f
    2452:	d8 a8       	ldd	r13, Y+48	; 0x30
    2454:	c6 01       	movw	r24, r12
    2456:	aa 27       	eor	r26, r26
    2458:	bb 27       	eor	r27, r27
    245a:	57 01       	movw	r10, r14
    245c:	68 01       	movw	r12, r16
    245e:	a8 2a       	or	r10, r24
    2460:	b9 2a       	or	r11, r25
    2462:	ca 2a       	or	r12, r26
    2464:	db 2a       	or	r13, r27
    2466:	a2 16       	cp	r10, r18
    2468:	b3 06       	cpc	r11, r19
    246a:	c4 06       	cpc	r12, r20
    246c:	d5 06       	cpc	r13, r21
    246e:	e0 f4       	brcc	.+56     	; 0x24a8 <__udivdi3+0x24e>
    2470:	08 94       	sec
    2472:	61 08       	sbc	r6, r1
    2474:	71 08       	sbc	r7, r1
    2476:	81 08       	sbc	r8, r1
    2478:	91 08       	sbc	r9, r1
    247a:	a2 0c       	add	r10, r2
    247c:	b3 1c       	adc	r11, r3
    247e:	c4 1c       	adc	r12, r4
    2480:	d5 1c       	adc	r13, r5
    2482:	a2 14       	cp	r10, r2
    2484:	b3 04       	cpc	r11, r3
    2486:	c4 04       	cpc	r12, r4
    2488:	d5 04       	cpc	r13, r5
    248a:	70 f0       	brcs	.+28     	; 0x24a8 <__udivdi3+0x24e>
    248c:	a2 16       	cp	r10, r18
    248e:	b3 06       	cpc	r11, r19
    2490:	c4 06       	cpc	r12, r20
    2492:	d5 06       	cpc	r13, r21
    2494:	48 f4       	brcc	.+18     	; 0x24a8 <__udivdi3+0x24e>
    2496:	08 94       	sec
    2498:	61 08       	sbc	r6, r1
    249a:	71 08       	sbc	r7, r1
    249c:	81 08       	sbc	r8, r1
    249e:	91 08       	sbc	r9, r1
    24a0:	a2 0c       	add	r10, r2
    24a2:	b3 1c       	adc	r11, r3
    24a4:	c4 1c       	adc	r12, r4
    24a6:	d5 1c       	adc	r13, r5
    24a8:	a2 1a       	sub	r10, r18
    24aa:	b3 0a       	sbc	r11, r19
    24ac:	c4 0a       	sbc	r12, r20
    24ae:	d5 0a       	sbc	r13, r21
    24b0:	c6 01       	movw	r24, r12
    24b2:	b5 01       	movw	r22, r10
    24b4:	2d a9       	ldd	r18, Y+53	; 0x35
    24b6:	3e a9       	ldd	r19, Y+54	; 0x36
    24b8:	4f a9       	ldd	r20, Y+55	; 0x37
    24ba:	58 ad       	ldd	r21, Y+56	; 0x38
    24bc:	0e 94 c9 2a 	call	0x5592	; 0x5592 <__udivmodsi4>
    24c0:	7b 01       	movw	r14, r22
    24c2:	8c 01       	movw	r16, r24
    24c4:	c6 01       	movw	r24, r12
    24c6:	b5 01       	movw	r22, r10
    24c8:	2d a9       	ldd	r18, Y+53	; 0x35
    24ca:	3e a9       	ldd	r19, Y+54	; 0x36
    24cc:	4f a9       	ldd	r20, Y+55	; 0x37
    24ce:	58 ad       	ldd	r21, Y+56	; 0x38
    24d0:	0e 94 c9 2a 	call	0x5592	; 0x5592 <__udivmodsi4>
    24d4:	c9 01       	movw	r24, r18
    24d6:	da 01       	movw	r26, r20
    24d8:	5c 01       	movw	r10, r24
    24da:	6d 01       	movw	r12, r26
    24dc:	c6 01       	movw	r24, r12
    24de:	b5 01       	movw	r22, r10
    24e0:	29 ad       	ldd	r18, Y+57	; 0x39
    24e2:	3a ad       	ldd	r19, Y+58	; 0x3a
    24e4:	4b ad       	ldd	r20, Y+59	; 0x3b
    24e6:	5c ad       	ldd	r21, Y+60	; 0x3c
    24e8:	0e 94 aa 2a 	call	0x5554	; 0x5554 <__mulsi3>
    24ec:	9b 01       	movw	r18, r22
    24ee:	ac 01       	movw	r20, r24
    24f0:	87 01       	movw	r16, r14
    24f2:	ff 24       	eor	r15, r15
    24f4:	ee 24       	eor	r14, r14
    24f6:	8d a5       	ldd	r24, Y+45	; 0x2d
    24f8:	9e a5       	ldd	r25, Y+46	; 0x2e
    24fa:	af a5       	ldd	r26, Y+47	; 0x2f
    24fc:	b8 a9       	ldd	r27, Y+48	; 0x30
    24fe:	a0 70       	andi	r26, 0x00	; 0
    2500:	b0 70       	andi	r27, 0x00	; 0
    2502:	e8 2a       	or	r14, r24
    2504:	f9 2a       	or	r15, r25
    2506:	0a 2b       	or	r16, r26
    2508:	1b 2b       	or	r17, r27
    250a:	e2 16       	cp	r14, r18
    250c:	f3 06       	cpc	r15, r19
    250e:	04 07       	cpc	r16, r20
    2510:	15 07       	cpc	r17, r21
    2512:	c0 f4       	brcc	.+48     	; 0x2544 <__udivdi3+0x2ea>
    2514:	08 94       	sec
    2516:	a1 08       	sbc	r10, r1
    2518:	b1 08       	sbc	r11, r1
    251a:	c1 08       	sbc	r12, r1
    251c:	d1 08       	sbc	r13, r1
    251e:	e2 0c       	add	r14, r2
    2520:	f3 1c       	adc	r15, r3
    2522:	04 1d       	adc	r16, r4
    2524:	15 1d       	adc	r17, r5
    2526:	e2 14       	cp	r14, r2
    2528:	f3 04       	cpc	r15, r3
    252a:	04 05       	cpc	r16, r4
    252c:	15 05       	cpc	r17, r5
    252e:	50 f0       	brcs	.+20     	; 0x2544 <__udivdi3+0x2ea>
    2530:	e2 16       	cp	r14, r18
    2532:	f3 06       	cpc	r15, r19
    2534:	04 07       	cpc	r16, r20
    2536:	15 07       	cpc	r17, r21
    2538:	28 f4       	brcc	.+10     	; 0x2544 <__udivdi3+0x2ea>
    253a:	08 94       	sec
    253c:	a1 08       	sbc	r10, r1
    253e:	b1 08       	sbc	r11, r1
    2540:	c1 08       	sbc	r12, r1
    2542:	d1 08       	sbc	r13, r1
    2544:	d3 01       	movw	r26, r6
    2546:	99 27       	eor	r25, r25
    2548:	88 27       	eor	r24, r24
    254a:	86 01       	movw	r16, r12
    254c:	75 01       	movw	r14, r10
    254e:	e8 2a       	or	r14, r24
    2550:	f9 2a       	or	r15, r25
    2552:	0a 2b       	or	r16, r26
    2554:	1b 2b       	or	r17, r27
    2556:	e9 aa       	std	Y+49, r14	; 0x31
    2558:	fa aa       	std	Y+50, r15	; 0x32
    255a:	0b ab       	std	Y+51, r16	; 0x33
    255c:	1c ab       	std	Y+52, r17	; 0x34
    255e:	cf c4       	rjmp	.+2462   	; 0x2efe <__udivdi3+0xca4>
    2560:	21 14       	cp	r2, r1
    2562:	31 04       	cpc	r3, r1
    2564:	41 04       	cpc	r4, r1
    2566:	51 04       	cpc	r5, r1
    2568:	71 f4       	brne	.+28     	; 0x2586 <__udivdi3+0x32c>
    256a:	61 e0       	ldi	r22, 0x01	; 1
    256c:	70 e0       	ldi	r23, 0x00	; 0
    256e:	80 e0       	ldi	r24, 0x00	; 0
    2570:	90 e0       	ldi	r25, 0x00	; 0
    2572:	20 e0       	ldi	r18, 0x00	; 0
    2574:	30 e0       	ldi	r19, 0x00	; 0
    2576:	40 e0       	ldi	r20, 0x00	; 0
    2578:	50 e0       	ldi	r21, 0x00	; 0
    257a:	0e 94 c9 2a 	call	0x5592	; 0x5592 <__udivmodsi4>
    257e:	c9 01       	movw	r24, r18
    2580:	da 01       	movw	r26, r20
    2582:	1c 01       	movw	r2, r24
    2584:	2d 01       	movw	r4, r26
    2586:	00 e0       	ldi	r16, 0x00	; 0
    2588:	20 16       	cp	r2, r16
    258a:	00 e0       	ldi	r16, 0x00	; 0
    258c:	30 06       	cpc	r3, r16
    258e:	01 e0       	ldi	r16, 0x01	; 1
    2590:	40 06       	cpc	r4, r16
    2592:	00 e0       	ldi	r16, 0x00	; 0
    2594:	50 06       	cpc	r5, r16
    2596:	88 f4       	brcc	.+34     	; 0x25ba <__udivdi3+0x360>
    2598:	1f ef       	ldi	r17, 0xFF	; 255
    259a:	21 16       	cp	r2, r17
    259c:	31 04       	cpc	r3, r1
    259e:	41 04       	cpc	r4, r1
    25a0:	51 04       	cpc	r5, r1
    25a2:	31 f0       	breq	.+12     	; 0x25b0 <__udivdi3+0x356>
    25a4:	28 f0       	brcs	.+10     	; 0x25b0 <__udivdi3+0x356>
    25a6:	48 e0       	ldi	r20, 0x08	; 8
    25a8:	50 e0       	ldi	r21, 0x00	; 0
    25aa:	60 e0       	ldi	r22, 0x00	; 0
    25ac:	70 e0       	ldi	r23, 0x00	; 0
    25ae:	17 c0       	rjmp	.+46     	; 0x25de <__udivdi3+0x384>
    25b0:	40 e0       	ldi	r20, 0x00	; 0
    25b2:	50 e0       	ldi	r21, 0x00	; 0
    25b4:	60 e0       	ldi	r22, 0x00	; 0
    25b6:	70 e0       	ldi	r23, 0x00	; 0
    25b8:	12 c0       	rjmp	.+36     	; 0x25de <__udivdi3+0x384>
    25ba:	20 e0       	ldi	r18, 0x00	; 0
    25bc:	22 16       	cp	r2, r18
    25be:	20 e0       	ldi	r18, 0x00	; 0
    25c0:	32 06       	cpc	r3, r18
    25c2:	20 e0       	ldi	r18, 0x00	; 0
    25c4:	42 06       	cpc	r4, r18
    25c6:	21 e0       	ldi	r18, 0x01	; 1
    25c8:	52 06       	cpc	r5, r18
    25ca:	28 f0       	brcs	.+10     	; 0x25d6 <__udivdi3+0x37c>
    25cc:	48 e1       	ldi	r20, 0x18	; 24
    25ce:	50 e0       	ldi	r21, 0x00	; 0
    25d0:	60 e0       	ldi	r22, 0x00	; 0
    25d2:	70 e0       	ldi	r23, 0x00	; 0
    25d4:	04 c0       	rjmp	.+8      	; 0x25de <__udivdi3+0x384>
    25d6:	40 e1       	ldi	r20, 0x10	; 16
    25d8:	50 e0       	ldi	r21, 0x00	; 0
    25da:	60 e0       	ldi	r22, 0x00	; 0
    25dc:	70 e0       	ldi	r23, 0x00	; 0
    25de:	d2 01       	movw	r26, r4
    25e0:	c1 01       	movw	r24, r2
    25e2:	04 2e       	mov	r0, r20
    25e4:	04 c0       	rjmp	.+8      	; 0x25ee <__udivdi3+0x394>
    25e6:	b6 95       	lsr	r27
    25e8:	a7 95       	ror	r26
    25ea:	97 95       	ror	r25
    25ec:	87 95       	ror	r24
    25ee:	0a 94       	dec	r0
    25f0:	d2 f7       	brpl	.-12     	; 0x25e6 <__udivdi3+0x38c>
    25f2:	84 58       	subi	r24, 0x84	; 132
    25f4:	9f 4f       	sbci	r25, 0xFF	; 255
    25f6:	dc 01       	movw	r26, r24
    25f8:	2c 91       	ld	r18, X
    25fa:	e0 e2       	ldi	r30, 0x20	; 32
    25fc:	ee 2e       	mov	r14, r30
    25fe:	f1 2c       	mov	r15, r1
    2600:	01 2d       	mov	r16, r1
    2602:	11 2d       	mov	r17, r1
    2604:	d8 01       	movw	r26, r16
    2606:	c7 01       	movw	r24, r14
    2608:	84 1b       	sub	r24, r20
    260a:	95 0b       	sbc	r25, r21
    260c:	a6 0b       	sbc	r26, r22
    260e:	b7 0b       	sbc	r27, r23
    2610:	82 1b       	sub	r24, r18
    2612:	91 09       	sbc	r25, r1
    2614:	a1 09       	sbc	r26, r1
    2616:	b1 09       	sbc	r27, r1
    2618:	00 97       	sbiw	r24, 0x00	; 0
    261a:	a1 05       	cpc	r26, r1
    261c:	b1 05       	cpc	r27, r1
    261e:	61 f4       	brne	.+24     	; 0x2638 <__udivdi3+0x3de>
    2620:	64 01       	movw	r12, r8
    2622:	53 01       	movw	r10, r6
    2624:	a2 18       	sub	r10, r2
    2626:	b3 08       	sbc	r11, r3
    2628:	c4 08       	sbc	r12, r4
    262a:	d5 08       	sbc	r13, r5
    262c:	31 e0       	ldi	r19, 0x01	; 1
    262e:	63 2e       	mov	r6, r19
    2630:	71 2c       	mov	r7, r1
    2632:	81 2c       	mov	r8, r1
    2634:	91 2c       	mov	r9, r1
    2636:	1e c1       	rjmp	.+572    	; 0x2874 <__udivdi3+0x61a>
    2638:	6f 96       	adiw	r28, 0x1f	; 31
    263a:	8f af       	std	Y+63, r24	; 0x3f
    263c:	6f 97       	sbiw	r28, 0x1f	; 31
    263e:	08 2e       	mov	r0, r24
    2640:	04 c0       	rjmp	.+8      	; 0x264a <__udivdi3+0x3f0>
    2642:	22 0c       	add	r2, r2
    2644:	33 1c       	adc	r3, r3
    2646:	44 1c       	adc	r4, r4
    2648:	55 1c       	adc	r5, r5
    264a:	0a 94       	dec	r0
    264c:	d2 f7       	brpl	.-12     	; 0x2642 <__udivdi3+0x3e8>
    264e:	ee 2d       	mov	r30, r14
    2650:	e8 1b       	sub	r30, r24
    2652:	64 01       	movw	r12, r8
    2654:	53 01       	movw	r10, r6
    2656:	0e 2e       	mov	r0, r30
    2658:	04 c0       	rjmp	.+8      	; 0x2662 <__udivdi3+0x408>
    265a:	d6 94       	lsr	r13
    265c:	c7 94       	ror	r12
    265e:	b7 94       	ror	r11
    2660:	a7 94       	ror	r10
    2662:	0a 94       	dec	r0
    2664:	d2 f7       	brpl	.-12     	; 0x265a <__udivdi3+0x400>
    2666:	a4 01       	movw	r20, r8
    2668:	93 01       	movw	r18, r6
    266a:	6f 96       	adiw	r28, 0x1f	; 31
    266c:	0f ac       	ldd	r0, Y+63	; 0x3f
    266e:	6f 97       	sbiw	r28, 0x1f	; 31
    2670:	04 c0       	rjmp	.+8      	; 0x267a <__udivdi3+0x420>
    2672:	22 0f       	add	r18, r18
    2674:	33 1f       	adc	r19, r19
    2676:	44 1f       	adc	r20, r20
    2678:	55 1f       	adc	r21, r21
    267a:	0a 94       	dec	r0
    267c:	d2 f7       	brpl	.-12     	; 0x2672 <__udivdi3+0x418>
    267e:	6d a4       	ldd	r6, Y+45	; 0x2d
    2680:	7e a4       	ldd	r7, Y+46	; 0x2e
    2682:	8f a4       	ldd	r8, Y+47	; 0x2f
    2684:	98 a8       	ldd	r9, Y+48	; 0x30
    2686:	0e 2e       	mov	r0, r30
    2688:	04 c0       	rjmp	.+8      	; 0x2692 <__udivdi3+0x438>
    268a:	96 94       	lsr	r9
    268c:	87 94       	ror	r8
    268e:	77 94       	ror	r7
    2690:	67 94       	ror	r6
    2692:	0a 94       	dec	r0
    2694:	d2 f7       	brpl	.-12     	; 0x268a <__udivdi3+0x430>
    2696:	84 01       	movw	r16, r8
    2698:	73 01       	movw	r14, r6
    269a:	e2 2a       	or	r14, r18
    269c:	f3 2a       	or	r15, r19
    269e:	04 2b       	or	r16, r20
    26a0:	15 2b       	or	r17, r21
    26a2:	e9 a6       	std	Y+41, r14	; 0x29
    26a4:	fa a6       	std	Y+42, r15	; 0x2a
    26a6:	0b a7       	std	Y+43, r16	; 0x2b
    26a8:	1c a7       	std	Y+44, r17	; 0x2c
    26aa:	32 01       	movw	r6, r4
    26ac:	88 24       	eor	r8, r8
    26ae:	99 24       	eor	r9, r9
    26b0:	92 01       	movw	r18, r4
    26b2:	81 01       	movw	r16, r2
    26b4:	20 70       	andi	r18, 0x00	; 0
    26b6:	30 70       	andi	r19, 0x00	; 0
    26b8:	21 96       	adiw	r28, 0x01	; 1
    26ba:	0c af       	std	Y+60, r16	; 0x3c
    26bc:	1d af       	std	Y+61, r17	; 0x3d
    26be:	2e af       	std	Y+62, r18	; 0x3e
    26c0:	3f af       	std	Y+63, r19	; 0x3f
    26c2:	21 97       	sbiw	r28, 0x01	; 1
    26c4:	c6 01       	movw	r24, r12
    26c6:	b5 01       	movw	r22, r10
    26c8:	a4 01       	movw	r20, r8
    26ca:	93 01       	movw	r18, r6
    26cc:	0e 94 c9 2a 	call	0x5592	; 0x5592 <__udivmodsi4>
    26d0:	7b 01       	movw	r14, r22
    26d2:	8c 01       	movw	r16, r24
    26d4:	c6 01       	movw	r24, r12
    26d6:	b5 01       	movw	r22, r10
    26d8:	a4 01       	movw	r20, r8
    26da:	93 01       	movw	r18, r6
    26dc:	0e 94 c9 2a 	call	0x5592	; 0x5592 <__udivmodsi4>
    26e0:	c9 01       	movw	r24, r18
    26e2:	da 01       	movw	r26, r20
    26e4:	25 96       	adiw	r28, 0x05	; 5
    26e6:	8c af       	std	Y+60, r24	; 0x3c
    26e8:	9d af       	std	Y+61, r25	; 0x3d
    26ea:	ae af       	std	Y+62, r26	; 0x3e
    26ec:	bf af       	std	Y+63, r27	; 0x3f
    26ee:	25 97       	sbiw	r28, 0x05	; 5
    26f0:	bc 01       	movw	r22, r24
    26f2:	cd 01       	movw	r24, r26
    26f4:	21 96       	adiw	r28, 0x01	; 1
    26f6:	2c ad       	ldd	r18, Y+60	; 0x3c
    26f8:	3d ad       	ldd	r19, Y+61	; 0x3d
    26fa:	4e ad       	ldd	r20, Y+62	; 0x3e
    26fc:	5f ad       	ldd	r21, Y+63	; 0x3f
    26fe:	21 97       	sbiw	r28, 0x01	; 1
    2700:	0e 94 aa 2a 	call	0x5554	; 0x5554 <__mulsi3>
    2704:	9b 01       	movw	r18, r22
    2706:	ac 01       	movw	r20, r24
    2708:	87 01       	movw	r16, r14
    270a:	ff 24       	eor	r15, r15
    270c:	ee 24       	eor	r14, r14
    270e:	a9 a4       	ldd	r10, Y+41	; 0x29
    2710:	ba a4       	ldd	r11, Y+42	; 0x2a
    2712:	cb a4       	ldd	r12, Y+43	; 0x2b
    2714:	dc a4       	ldd	r13, Y+44	; 0x2c
    2716:	c6 01       	movw	r24, r12
    2718:	aa 27       	eor	r26, r26
    271a:	bb 27       	eor	r27, r27
    271c:	5c 01       	movw	r10, r24
    271e:	6d 01       	movw	r12, r26
    2720:	ae 28       	or	r10, r14
    2722:	bf 28       	or	r11, r15
    2724:	c0 2a       	or	r12, r16
    2726:	d1 2a       	or	r13, r17
    2728:	a2 16       	cp	r10, r18
    272a:	b3 06       	cpc	r11, r19
    272c:	c4 06       	cpc	r12, r20
    272e:	d5 06       	cpc	r13, r21
    2730:	60 f5       	brcc	.+88     	; 0x278a <__udivdi3+0x530>
    2732:	25 96       	adiw	r28, 0x05	; 5
    2734:	6c ad       	ldd	r22, Y+60	; 0x3c
    2736:	7d ad       	ldd	r23, Y+61	; 0x3d
    2738:	8e ad       	ldd	r24, Y+62	; 0x3e
    273a:	9f ad       	ldd	r25, Y+63	; 0x3f
    273c:	25 97       	sbiw	r28, 0x05	; 5
    273e:	61 50       	subi	r22, 0x01	; 1
    2740:	70 40       	sbci	r23, 0x00	; 0
    2742:	80 40       	sbci	r24, 0x00	; 0
    2744:	90 40       	sbci	r25, 0x00	; 0
    2746:	25 96       	adiw	r28, 0x05	; 5
    2748:	6c af       	std	Y+60, r22	; 0x3c
    274a:	7d af       	std	Y+61, r23	; 0x3d
    274c:	8e af       	std	Y+62, r24	; 0x3e
    274e:	9f af       	std	Y+63, r25	; 0x3f
    2750:	25 97       	sbiw	r28, 0x05	; 5
    2752:	a2 0c       	add	r10, r2
    2754:	b3 1c       	adc	r11, r3
    2756:	c4 1c       	adc	r12, r4
    2758:	d5 1c       	adc	r13, r5
    275a:	a2 14       	cp	r10, r2
    275c:	b3 04       	cpc	r11, r3
    275e:	c4 04       	cpc	r12, r4
    2760:	d5 04       	cpc	r13, r5
    2762:	98 f0       	brcs	.+38     	; 0x278a <__udivdi3+0x530>
    2764:	a2 16       	cp	r10, r18
    2766:	b3 06       	cpc	r11, r19
    2768:	c4 06       	cpc	r12, r20
    276a:	d5 06       	cpc	r13, r21
    276c:	70 f4       	brcc	.+28     	; 0x278a <__udivdi3+0x530>
    276e:	61 50       	subi	r22, 0x01	; 1
    2770:	70 40       	sbci	r23, 0x00	; 0
    2772:	80 40       	sbci	r24, 0x00	; 0
    2774:	90 40       	sbci	r25, 0x00	; 0
    2776:	25 96       	adiw	r28, 0x05	; 5
    2778:	6c af       	std	Y+60, r22	; 0x3c
    277a:	7d af       	std	Y+61, r23	; 0x3d
    277c:	8e af       	std	Y+62, r24	; 0x3e
    277e:	9f af       	std	Y+63, r25	; 0x3f
    2780:	25 97       	sbiw	r28, 0x05	; 5
    2782:	a2 0c       	add	r10, r2
    2784:	b3 1c       	adc	r11, r3
    2786:	c4 1c       	adc	r12, r4
    2788:	d5 1c       	adc	r13, r5
    278a:	a2 1a       	sub	r10, r18
    278c:	b3 0a       	sbc	r11, r19
    278e:	c4 0a       	sbc	r12, r20
    2790:	d5 0a       	sbc	r13, r21
    2792:	c6 01       	movw	r24, r12
    2794:	b5 01       	movw	r22, r10
    2796:	a4 01       	movw	r20, r8
    2798:	93 01       	movw	r18, r6
    279a:	0e 94 c9 2a 	call	0x5592	; 0x5592 <__udivmodsi4>
    279e:	7b 01       	movw	r14, r22
    27a0:	8c 01       	movw	r16, r24
    27a2:	c6 01       	movw	r24, r12
    27a4:	b5 01       	movw	r22, r10
    27a6:	a4 01       	movw	r20, r8
    27a8:	93 01       	movw	r18, r6
    27aa:	0e 94 c9 2a 	call	0x5592	; 0x5592 <__udivmodsi4>
    27ae:	c9 01       	movw	r24, r18
    27b0:	da 01       	movw	r26, r20
    27b2:	3c 01       	movw	r6, r24
    27b4:	4d 01       	movw	r8, r26
    27b6:	c4 01       	movw	r24, r8
    27b8:	b3 01       	movw	r22, r6
    27ba:	21 96       	adiw	r28, 0x01	; 1
    27bc:	2c ad       	ldd	r18, Y+60	; 0x3c
    27be:	3d ad       	ldd	r19, Y+61	; 0x3d
    27c0:	4e ad       	ldd	r20, Y+62	; 0x3e
    27c2:	5f ad       	ldd	r21, Y+63	; 0x3f
    27c4:	21 97       	sbiw	r28, 0x01	; 1
    27c6:	0e 94 aa 2a 	call	0x5554	; 0x5554 <__mulsi3>
    27ca:	9b 01       	movw	r18, r22
    27cc:	ac 01       	movw	r20, r24
    27ce:	87 01       	movw	r16, r14
    27d0:	ff 24       	eor	r15, r15
    27d2:	ee 24       	eor	r14, r14
    27d4:	89 a5       	ldd	r24, Y+41	; 0x29
    27d6:	9a a5       	ldd	r25, Y+42	; 0x2a
    27d8:	ab a5       	ldd	r26, Y+43	; 0x2b
    27da:	bc a5       	ldd	r27, Y+44	; 0x2c
    27dc:	a0 70       	andi	r26, 0x00	; 0
    27de:	b0 70       	andi	r27, 0x00	; 0
    27e0:	57 01       	movw	r10, r14
    27e2:	68 01       	movw	r12, r16
    27e4:	a8 2a       	or	r10, r24
    27e6:	b9 2a       	or	r11, r25
    27e8:	ca 2a       	or	r12, r26
    27ea:	db 2a       	or	r13, r27
    27ec:	a2 16       	cp	r10, r18
    27ee:	b3 06       	cpc	r11, r19
    27f0:	c4 06       	cpc	r12, r20
    27f2:	d5 06       	cpc	r13, r21
    27f4:	e0 f4       	brcc	.+56     	; 0x282e <__udivdi3+0x5d4>
    27f6:	08 94       	sec
    27f8:	61 08       	sbc	r6, r1
    27fa:	71 08       	sbc	r7, r1
    27fc:	81 08       	sbc	r8, r1
    27fe:	91 08       	sbc	r9, r1
    2800:	a2 0c       	add	r10, r2
    2802:	b3 1c       	adc	r11, r3
    2804:	c4 1c       	adc	r12, r4
    2806:	d5 1c       	adc	r13, r5
    2808:	a2 14       	cp	r10, r2
    280a:	b3 04       	cpc	r11, r3
    280c:	c4 04       	cpc	r12, r4
    280e:	d5 04       	cpc	r13, r5
    2810:	70 f0       	brcs	.+28     	; 0x282e <__udivdi3+0x5d4>
    2812:	a2 16       	cp	r10, r18
    2814:	b3 06       	cpc	r11, r19
    2816:	c4 06       	cpc	r12, r20
    2818:	d5 06       	cpc	r13, r21
    281a:	48 f4       	brcc	.+18     	; 0x282e <__udivdi3+0x5d4>
    281c:	08 94       	sec
    281e:	61 08       	sbc	r6, r1
    2820:	71 08       	sbc	r7, r1
    2822:	81 08       	sbc	r8, r1
    2824:	91 08       	sbc	r9, r1
    2826:	a2 0c       	add	r10, r2
    2828:	b3 1c       	adc	r11, r3
    282a:	c4 1c       	adc	r12, r4
    282c:	d5 1c       	adc	r13, r5
    282e:	8d a5       	ldd	r24, Y+45	; 0x2d
    2830:	9e a5       	ldd	r25, Y+46	; 0x2e
    2832:	af a5       	ldd	r26, Y+47	; 0x2f
    2834:	b8 a9       	ldd	r27, Y+48	; 0x30
    2836:	6f 96       	adiw	r28, 0x1f	; 31
    2838:	0f ac       	ldd	r0, Y+63	; 0x3f
    283a:	6f 97       	sbiw	r28, 0x1f	; 31
    283c:	04 c0       	rjmp	.+8      	; 0x2846 <__udivdi3+0x5ec>
    283e:	88 0f       	add	r24, r24
    2840:	99 1f       	adc	r25, r25
    2842:	aa 1f       	adc	r26, r26
    2844:	bb 1f       	adc	r27, r27
    2846:	0a 94       	dec	r0
    2848:	d2 f7       	brpl	.-12     	; 0x283e <__udivdi3+0x5e4>
    284a:	8d a7       	std	Y+45, r24	; 0x2d
    284c:	9e a7       	std	Y+46, r25	; 0x2e
    284e:	af a7       	std	Y+47, r26	; 0x2f
    2850:	b8 ab       	std	Y+48, r27	; 0x30
    2852:	a2 1a       	sub	r10, r18
    2854:	b3 0a       	sbc	r11, r19
    2856:	c4 0a       	sbc	r12, r20
    2858:	d5 0a       	sbc	r13, r21
    285a:	25 96       	adiw	r28, 0x05	; 5
    285c:	ec ac       	ldd	r14, Y+60	; 0x3c
    285e:	fd ac       	ldd	r15, Y+61	; 0x3d
    2860:	0e ad       	ldd	r16, Y+62	; 0x3e
    2862:	1f ad       	ldd	r17, Y+63	; 0x3f
    2864:	25 97       	sbiw	r28, 0x05	; 5
    2866:	d7 01       	movw	r26, r14
    2868:	99 27       	eor	r25, r25
    286a:	88 27       	eor	r24, r24
    286c:	68 2a       	or	r6, r24
    286e:	79 2a       	or	r7, r25
    2870:	8a 2a       	or	r8, r26
    2872:	9b 2a       	or	r9, r27
    2874:	82 01       	movw	r16, r4
    2876:	22 27       	eor	r18, r18
    2878:	33 27       	eor	r19, r19
    287a:	29 96       	adiw	r28, 0x09	; 9
    287c:	0c af       	std	Y+60, r16	; 0x3c
    287e:	1d af       	std	Y+61, r17	; 0x3d
    2880:	2e af       	std	Y+62, r18	; 0x3e
    2882:	3f af       	std	Y+63, r19	; 0x3f
    2884:	29 97       	sbiw	r28, 0x09	; 9
    2886:	a2 01       	movw	r20, r4
    2888:	91 01       	movw	r18, r2
    288a:	40 70       	andi	r20, 0x00	; 0
    288c:	50 70       	andi	r21, 0x00	; 0
    288e:	2d 96       	adiw	r28, 0x0d	; 13
    2890:	2c af       	std	Y+60, r18	; 0x3c
    2892:	3d af       	std	Y+61, r19	; 0x3d
    2894:	4e af       	std	Y+62, r20	; 0x3e
    2896:	5f af       	std	Y+63, r21	; 0x3f
    2898:	2d 97       	sbiw	r28, 0x0d	; 13
    289a:	c6 01       	movw	r24, r12
    289c:	b5 01       	movw	r22, r10
    289e:	29 96       	adiw	r28, 0x09	; 9
    28a0:	2c ad       	ldd	r18, Y+60	; 0x3c
    28a2:	3d ad       	ldd	r19, Y+61	; 0x3d
    28a4:	4e ad       	ldd	r20, Y+62	; 0x3e
    28a6:	5f ad       	ldd	r21, Y+63	; 0x3f
    28a8:	29 97       	sbiw	r28, 0x09	; 9
    28aa:	0e 94 c9 2a 	call	0x5592	; 0x5592 <__udivmodsi4>
    28ae:	7b 01       	movw	r14, r22
    28b0:	8c 01       	movw	r16, r24
    28b2:	c6 01       	movw	r24, r12
    28b4:	b5 01       	movw	r22, r10
    28b6:	29 96       	adiw	r28, 0x09	; 9
    28b8:	2c ad       	ldd	r18, Y+60	; 0x3c
    28ba:	3d ad       	ldd	r19, Y+61	; 0x3d
    28bc:	4e ad       	ldd	r20, Y+62	; 0x3e
    28be:	5f ad       	ldd	r21, Y+63	; 0x3f
    28c0:	29 97       	sbiw	r28, 0x09	; 9
    28c2:	0e 94 c9 2a 	call	0x5592	; 0x5592 <__udivmodsi4>
    28c6:	c9 01       	movw	r24, r18
    28c8:	da 01       	movw	r26, r20
    28ca:	61 96       	adiw	r28, 0x11	; 17
    28cc:	8c af       	std	Y+60, r24	; 0x3c
    28ce:	9d af       	std	Y+61, r25	; 0x3d
    28d0:	ae af       	std	Y+62, r26	; 0x3e
    28d2:	bf af       	std	Y+63, r27	; 0x3f
    28d4:	61 97       	sbiw	r28, 0x11	; 17
    28d6:	bc 01       	movw	r22, r24
    28d8:	cd 01       	movw	r24, r26
    28da:	2d 96       	adiw	r28, 0x0d	; 13
    28dc:	2c ad       	ldd	r18, Y+60	; 0x3c
    28de:	3d ad       	ldd	r19, Y+61	; 0x3d
    28e0:	4e ad       	ldd	r20, Y+62	; 0x3e
    28e2:	5f ad       	ldd	r21, Y+63	; 0x3f
    28e4:	2d 97       	sbiw	r28, 0x0d	; 13
    28e6:	0e 94 aa 2a 	call	0x5554	; 0x5554 <__mulsi3>
    28ea:	9b 01       	movw	r18, r22
    28ec:	ac 01       	movw	r20, r24
    28ee:	87 01       	movw	r16, r14
    28f0:	ff 24       	eor	r15, r15
    28f2:	ee 24       	eor	r14, r14
    28f4:	ad a4       	ldd	r10, Y+45	; 0x2d
    28f6:	be a4       	ldd	r11, Y+46	; 0x2e
    28f8:	cf a4       	ldd	r12, Y+47	; 0x2f
    28fa:	d8 a8       	ldd	r13, Y+48	; 0x30
    28fc:	c6 01       	movw	r24, r12
    28fe:	aa 27       	eor	r26, r26
    2900:	bb 27       	eor	r27, r27
    2902:	57 01       	movw	r10, r14
    2904:	68 01       	movw	r12, r16
    2906:	a8 2a       	or	r10, r24
    2908:	b9 2a       	or	r11, r25
    290a:	ca 2a       	or	r12, r26
    290c:	db 2a       	or	r13, r27
    290e:	a2 16       	cp	r10, r18
    2910:	b3 06       	cpc	r11, r19
    2912:	c4 06       	cpc	r12, r20
    2914:	d5 06       	cpc	r13, r21
    2916:	60 f5       	brcc	.+88     	; 0x2970 <__udivdi3+0x716>
    2918:	61 96       	adiw	r28, 0x11	; 17
    291a:	6c ad       	ldd	r22, Y+60	; 0x3c
    291c:	7d ad       	ldd	r23, Y+61	; 0x3d
    291e:	8e ad       	ldd	r24, Y+62	; 0x3e
    2920:	9f ad       	ldd	r25, Y+63	; 0x3f
    2922:	61 97       	sbiw	r28, 0x11	; 17
    2924:	61 50       	subi	r22, 0x01	; 1
    2926:	70 40       	sbci	r23, 0x00	; 0
    2928:	80 40       	sbci	r24, 0x00	; 0
    292a:	90 40       	sbci	r25, 0x00	; 0
    292c:	61 96       	adiw	r28, 0x11	; 17
    292e:	6c af       	std	Y+60, r22	; 0x3c
    2930:	7d af       	std	Y+61, r23	; 0x3d
    2932:	8e af       	std	Y+62, r24	; 0x3e
    2934:	9f af       	std	Y+63, r25	; 0x3f
    2936:	61 97       	sbiw	r28, 0x11	; 17
    2938:	a2 0c       	add	r10, r2
    293a:	b3 1c       	adc	r11, r3
    293c:	c4 1c       	adc	r12, r4
    293e:	d5 1c       	adc	r13, r5
    2940:	a2 14       	cp	r10, r2
    2942:	b3 04       	cpc	r11, r3
    2944:	c4 04       	cpc	r12, r4
    2946:	d5 04       	cpc	r13, r5
    2948:	98 f0       	brcs	.+38     	; 0x2970 <__udivdi3+0x716>
    294a:	a2 16       	cp	r10, r18
    294c:	b3 06       	cpc	r11, r19
    294e:	c4 06       	cpc	r12, r20
    2950:	d5 06       	cpc	r13, r21
    2952:	70 f4       	brcc	.+28     	; 0x2970 <__udivdi3+0x716>
    2954:	61 50       	subi	r22, 0x01	; 1
    2956:	70 40       	sbci	r23, 0x00	; 0
    2958:	80 40       	sbci	r24, 0x00	; 0
    295a:	90 40       	sbci	r25, 0x00	; 0
    295c:	61 96       	adiw	r28, 0x11	; 17
    295e:	6c af       	std	Y+60, r22	; 0x3c
    2960:	7d af       	std	Y+61, r23	; 0x3d
    2962:	8e af       	std	Y+62, r24	; 0x3e
    2964:	9f af       	std	Y+63, r25	; 0x3f
    2966:	61 97       	sbiw	r28, 0x11	; 17
    2968:	a2 0c       	add	r10, r2
    296a:	b3 1c       	adc	r11, r3
    296c:	c4 1c       	adc	r12, r4
    296e:	d5 1c       	adc	r13, r5
    2970:	a2 1a       	sub	r10, r18
    2972:	b3 0a       	sbc	r11, r19
    2974:	c4 0a       	sbc	r12, r20
    2976:	d5 0a       	sbc	r13, r21
    2978:	c6 01       	movw	r24, r12
    297a:	b5 01       	movw	r22, r10
    297c:	29 96       	adiw	r28, 0x09	; 9
    297e:	2c ad       	ldd	r18, Y+60	; 0x3c
    2980:	3d ad       	ldd	r19, Y+61	; 0x3d
    2982:	4e ad       	ldd	r20, Y+62	; 0x3e
    2984:	5f ad       	ldd	r21, Y+63	; 0x3f
    2986:	29 97       	sbiw	r28, 0x09	; 9
    2988:	0e 94 c9 2a 	call	0x5592	; 0x5592 <__udivmodsi4>
    298c:	7b 01       	movw	r14, r22
    298e:	8c 01       	movw	r16, r24
    2990:	c6 01       	movw	r24, r12
    2992:	b5 01       	movw	r22, r10
    2994:	29 96       	adiw	r28, 0x09	; 9
    2996:	2c ad       	ldd	r18, Y+60	; 0x3c
    2998:	3d ad       	ldd	r19, Y+61	; 0x3d
    299a:	4e ad       	ldd	r20, Y+62	; 0x3e
    299c:	5f ad       	ldd	r21, Y+63	; 0x3f
    299e:	29 97       	sbiw	r28, 0x09	; 9
    29a0:	0e 94 c9 2a 	call	0x5592	; 0x5592 <__udivmodsi4>
    29a4:	c9 01       	movw	r24, r18
    29a6:	da 01       	movw	r26, r20
    29a8:	5c 01       	movw	r10, r24
    29aa:	6d 01       	movw	r12, r26
    29ac:	c6 01       	movw	r24, r12
    29ae:	b5 01       	movw	r22, r10
    29b0:	2d 96       	adiw	r28, 0x0d	; 13
    29b2:	2c ad       	ldd	r18, Y+60	; 0x3c
    29b4:	3d ad       	ldd	r19, Y+61	; 0x3d
    29b6:	4e ad       	ldd	r20, Y+62	; 0x3e
    29b8:	5f ad       	ldd	r21, Y+63	; 0x3f
    29ba:	2d 97       	sbiw	r28, 0x0d	; 13
    29bc:	0e 94 aa 2a 	call	0x5554	; 0x5554 <__mulsi3>
    29c0:	9b 01       	movw	r18, r22
    29c2:	ac 01       	movw	r20, r24
    29c4:	87 01       	movw	r16, r14
    29c6:	ff 24       	eor	r15, r15
    29c8:	ee 24       	eor	r14, r14
    29ca:	8d a5       	ldd	r24, Y+45	; 0x2d
    29cc:	9e a5       	ldd	r25, Y+46	; 0x2e
    29ce:	af a5       	ldd	r26, Y+47	; 0x2f
    29d0:	b8 a9       	ldd	r27, Y+48	; 0x30
    29d2:	a0 70       	andi	r26, 0x00	; 0
    29d4:	b0 70       	andi	r27, 0x00	; 0
    29d6:	e8 2a       	or	r14, r24
    29d8:	f9 2a       	or	r15, r25
    29da:	0a 2b       	or	r16, r26
    29dc:	1b 2b       	or	r17, r27
    29de:	e2 16       	cp	r14, r18
    29e0:	f3 06       	cpc	r15, r19
    29e2:	04 07       	cpc	r16, r20
    29e4:	15 07       	cpc	r17, r21
    29e6:	c0 f4       	brcc	.+48     	; 0x2a18 <__udivdi3+0x7be>
    29e8:	08 94       	sec
    29ea:	a1 08       	sbc	r10, r1
    29ec:	b1 08       	sbc	r11, r1
    29ee:	c1 08       	sbc	r12, r1
    29f0:	d1 08       	sbc	r13, r1
    29f2:	e2 0c       	add	r14, r2
    29f4:	f3 1c       	adc	r15, r3
    29f6:	04 1d       	adc	r16, r4
    29f8:	15 1d       	adc	r17, r5
    29fa:	e2 14       	cp	r14, r2
    29fc:	f3 04       	cpc	r15, r3
    29fe:	04 05       	cpc	r16, r4
    2a00:	15 05       	cpc	r17, r5
    2a02:	50 f0       	brcs	.+20     	; 0x2a18 <__udivdi3+0x7be>
    2a04:	e2 16       	cp	r14, r18
    2a06:	f3 06       	cpc	r15, r19
    2a08:	04 07       	cpc	r16, r20
    2a0a:	15 07       	cpc	r17, r21
    2a0c:	28 f4       	brcc	.+10     	; 0x2a18 <__udivdi3+0x7be>
    2a0e:	08 94       	sec
    2a10:	a1 08       	sbc	r10, r1
    2a12:	b1 08       	sbc	r11, r1
    2a14:	c1 08       	sbc	r12, r1
    2a16:	d1 08       	sbc	r13, r1
    2a18:	61 96       	adiw	r28, 0x11	; 17
    2a1a:	ec ac       	ldd	r14, Y+60	; 0x3c
    2a1c:	fd ac       	ldd	r15, Y+61	; 0x3d
    2a1e:	0e ad       	ldd	r16, Y+62	; 0x3e
    2a20:	1f ad       	ldd	r17, Y+63	; 0x3f
    2a22:	61 97       	sbiw	r28, 0x11	; 17
    2a24:	d7 01       	movw	r26, r14
    2a26:	99 27       	eor	r25, r25
    2a28:	88 27       	eor	r24, r24
    2a2a:	96 01       	movw	r18, r12
    2a2c:	85 01       	movw	r16, r10
    2a2e:	08 2b       	or	r16, r24
    2a30:	19 2b       	or	r17, r25
    2a32:	2a 2b       	or	r18, r26
    2a34:	3b 2b       	or	r19, r27
    2a36:	09 ab       	std	Y+49, r16	; 0x31
    2a38:	1a ab       	std	Y+50, r17	; 0x32
    2a3a:	2b ab       	std	Y+51, r18	; 0x33
    2a3c:	3c ab       	std	Y+52, r19	; 0x34
    2a3e:	62 c2       	rjmp	.+1220   	; 0x2f04 <__udivdi3+0xcaa>
    2a40:	6e 14       	cp	r6, r14
    2a42:	7f 04       	cpc	r7, r15
    2a44:	80 06       	cpc	r8, r16
    2a46:	91 06       	cpc	r9, r17
    2a48:	08 f4       	brcc	.+2      	; 0x2a4c <__udivdi3+0x7f2>
    2a4a:	51 c2       	rjmp	.+1186   	; 0x2eee <__udivdi3+0xc94>
    2a4c:	20 e0       	ldi	r18, 0x00	; 0
    2a4e:	e2 16       	cp	r14, r18
    2a50:	20 e0       	ldi	r18, 0x00	; 0
    2a52:	f2 06       	cpc	r15, r18
    2a54:	21 e0       	ldi	r18, 0x01	; 1
    2a56:	02 07       	cpc	r16, r18
    2a58:	20 e0       	ldi	r18, 0x00	; 0
    2a5a:	12 07       	cpc	r17, r18
    2a5c:	88 f4       	brcc	.+34     	; 0x2a80 <__udivdi3+0x826>
    2a5e:	3f ef       	ldi	r19, 0xFF	; 255
    2a60:	e3 16       	cp	r14, r19
    2a62:	f1 04       	cpc	r15, r1
    2a64:	01 05       	cpc	r16, r1
    2a66:	11 05       	cpc	r17, r1
    2a68:	31 f0       	breq	.+12     	; 0x2a76 <__udivdi3+0x81c>
    2a6a:	28 f0       	brcs	.+10     	; 0x2a76 <__udivdi3+0x81c>
    2a6c:	48 e0       	ldi	r20, 0x08	; 8
    2a6e:	50 e0       	ldi	r21, 0x00	; 0
    2a70:	60 e0       	ldi	r22, 0x00	; 0
    2a72:	70 e0       	ldi	r23, 0x00	; 0
    2a74:	17 c0       	rjmp	.+46     	; 0x2aa4 <__udivdi3+0x84a>
    2a76:	40 e0       	ldi	r20, 0x00	; 0
    2a78:	50 e0       	ldi	r21, 0x00	; 0
    2a7a:	60 e0       	ldi	r22, 0x00	; 0
    2a7c:	70 e0       	ldi	r23, 0x00	; 0
    2a7e:	12 c0       	rjmp	.+36     	; 0x2aa4 <__udivdi3+0x84a>
    2a80:	40 e0       	ldi	r20, 0x00	; 0
    2a82:	e4 16       	cp	r14, r20
    2a84:	40 e0       	ldi	r20, 0x00	; 0
    2a86:	f4 06       	cpc	r15, r20
    2a88:	40 e0       	ldi	r20, 0x00	; 0
    2a8a:	04 07       	cpc	r16, r20
    2a8c:	41 e0       	ldi	r20, 0x01	; 1
    2a8e:	14 07       	cpc	r17, r20
    2a90:	28 f0       	brcs	.+10     	; 0x2a9c <__udivdi3+0x842>
    2a92:	48 e1       	ldi	r20, 0x18	; 24
    2a94:	50 e0       	ldi	r21, 0x00	; 0
    2a96:	60 e0       	ldi	r22, 0x00	; 0
    2a98:	70 e0       	ldi	r23, 0x00	; 0
    2a9a:	04 c0       	rjmp	.+8      	; 0x2aa4 <__udivdi3+0x84a>
    2a9c:	40 e1       	ldi	r20, 0x10	; 16
    2a9e:	50 e0       	ldi	r21, 0x00	; 0
    2aa0:	60 e0       	ldi	r22, 0x00	; 0
    2aa2:	70 e0       	ldi	r23, 0x00	; 0
    2aa4:	d8 01       	movw	r26, r16
    2aa6:	c7 01       	movw	r24, r14
    2aa8:	04 2e       	mov	r0, r20
    2aaa:	04 c0       	rjmp	.+8      	; 0x2ab4 <__udivdi3+0x85a>
    2aac:	b6 95       	lsr	r27
    2aae:	a7 95       	ror	r26
    2ab0:	97 95       	ror	r25
    2ab2:	87 95       	ror	r24
    2ab4:	0a 94       	dec	r0
    2ab6:	d2 f7       	brpl	.-12     	; 0x2aac <__udivdi3+0x852>
    2ab8:	84 58       	subi	r24, 0x84	; 132
    2aba:	9f 4f       	sbci	r25, 0xFF	; 255
    2abc:	dc 01       	movw	r26, r24
    2abe:	2c 91       	ld	r18, X
    2ac0:	30 e2       	ldi	r19, 0x20	; 32
    2ac2:	a3 2e       	mov	r10, r19
    2ac4:	b1 2c       	mov	r11, r1
    2ac6:	c1 2c       	mov	r12, r1
    2ac8:	d1 2c       	mov	r13, r1
    2aca:	d6 01       	movw	r26, r12
    2acc:	c5 01       	movw	r24, r10
    2ace:	84 1b       	sub	r24, r20
    2ad0:	95 0b       	sbc	r25, r21
    2ad2:	a6 0b       	sbc	r26, r22
    2ad4:	b7 0b       	sbc	r27, r23
    2ad6:	82 1b       	sub	r24, r18
    2ad8:	91 09       	sbc	r25, r1
    2ada:	a1 09       	sbc	r26, r1
    2adc:	b1 09       	sbc	r27, r1
    2ade:	00 97       	sbiw	r24, 0x00	; 0
    2ae0:	a1 05       	cpc	r26, r1
    2ae2:	b1 05       	cpc	r27, r1
    2ae4:	89 f4       	brne	.+34     	; 0x2b08 <__udivdi3+0x8ae>
    2ae6:	e6 14       	cp	r14, r6
    2ae8:	f7 04       	cpc	r15, r7
    2aea:	08 05       	cpc	r16, r8
    2aec:	19 05       	cpc	r17, r9
    2aee:	08 f4       	brcc	.+2      	; 0x2af2 <__udivdi3+0x898>
    2af0:	f2 c1       	rjmp	.+996    	; 0x2ed6 <__udivdi3+0xc7c>
    2af2:	6d a4       	ldd	r6, Y+45	; 0x2d
    2af4:	7e a4       	ldd	r7, Y+46	; 0x2e
    2af6:	8f a4       	ldd	r8, Y+47	; 0x2f
    2af8:	98 a8       	ldd	r9, Y+48	; 0x30
    2afa:	62 14       	cp	r6, r2
    2afc:	73 04       	cpc	r7, r3
    2afe:	84 04       	cpc	r8, r4
    2b00:	95 04       	cpc	r9, r5
    2b02:	08 f0       	brcs	.+2      	; 0x2b06 <__udivdi3+0x8ac>
    2b04:	e8 c1       	rjmp	.+976    	; 0x2ed6 <__udivdi3+0xc7c>
    2b06:	f3 c1       	rjmp	.+998    	; 0x2eee <__udivdi3+0xc94>
    2b08:	6e 96       	adiw	r28, 0x1e	; 30
    2b0a:	8f af       	std	Y+63, r24	; 0x3f
    2b0c:	6e 97       	sbiw	r28, 0x1e	; 30
    2b0e:	08 2e       	mov	r0, r24
    2b10:	04 c0       	rjmp	.+8      	; 0x2b1a <__udivdi3+0x8c0>
    2b12:	ee 0c       	add	r14, r14
    2b14:	ff 1c       	adc	r15, r15
    2b16:	00 1f       	adc	r16, r16
    2b18:	11 1f       	adc	r17, r17
    2b1a:	0a 94       	dec	r0
    2b1c:	d2 f7       	brpl	.-12     	; 0x2b12 <__udivdi3+0x8b8>
    2b1e:	6a 2d       	mov	r22, r10
    2b20:	68 1b       	sub	r22, r24
    2b22:	d2 01       	movw	r26, r4
    2b24:	c1 01       	movw	r24, r2
    2b26:	06 2e       	mov	r0, r22
    2b28:	04 c0       	rjmp	.+8      	; 0x2b32 <__udivdi3+0x8d8>
    2b2a:	b6 95       	lsr	r27
    2b2c:	a7 95       	ror	r26
    2b2e:	97 95       	ror	r25
    2b30:	87 95       	ror	r24
    2b32:	0a 94       	dec	r0
    2b34:	d2 f7       	brpl	.-12     	; 0x2b2a <__udivdi3+0x8d0>
    2b36:	5c 01       	movw	r10, r24
    2b38:	6d 01       	movw	r12, r26
    2b3a:	ae 28       	or	r10, r14
    2b3c:	bf 28       	or	r11, r15
    2b3e:	c0 2a       	or	r12, r16
    2b40:	d1 2a       	or	r13, r17
    2b42:	ad a2       	std	Y+37, r10	; 0x25
    2b44:	be a2       	std	Y+38, r11	; 0x26
    2b46:	cf a2       	std	Y+39, r12	; 0x27
    2b48:	d8 a6       	std	Y+40, r13	; 0x28
    2b4a:	72 01       	movw	r14, r4
    2b4c:	61 01       	movw	r12, r2
    2b4e:	6e 96       	adiw	r28, 0x1e	; 30
    2b50:	0f ac       	ldd	r0, Y+63	; 0x3f
    2b52:	6e 97       	sbiw	r28, 0x1e	; 30
    2b54:	04 c0       	rjmp	.+8      	; 0x2b5e <__udivdi3+0x904>
    2b56:	cc 0c       	add	r12, r12
    2b58:	dd 1c       	adc	r13, r13
    2b5a:	ee 1c       	adc	r14, r14
    2b5c:	ff 1c       	adc	r15, r15
    2b5e:	0a 94       	dec	r0
    2b60:	d2 f7       	brpl	.-12     	; 0x2b56 <__udivdi3+0x8fc>
    2b62:	c9 a2       	std	Y+33, r12	; 0x21
    2b64:	da a2       	std	Y+34, r13	; 0x22
    2b66:	eb a2       	std	Y+35, r14	; 0x23
    2b68:	fc a2       	std	Y+36, r15	; 0x24
    2b6a:	64 01       	movw	r12, r8
    2b6c:	53 01       	movw	r10, r6
    2b6e:	06 2e       	mov	r0, r22
    2b70:	04 c0       	rjmp	.+8      	; 0x2b7a <__udivdi3+0x920>
    2b72:	d6 94       	lsr	r13
    2b74:	c7 94       	ror	r12
    2b76:	b7 94       	ror	r11
    2b78:	a7 94       	ror	r10
    2b7a:	0a 94       	dec	r0
    2b7c:	d2 f7       	brpl	.-12     	; 0x2b72 <__udivdi3+0x918>
    2b7e:	d4 01       	movw	r26, r8
    2b80:	c3 01       	movw	r24, r6
    2b82:	6e 96       	adiw	r28, 0x1e	; 30
    2b84:	0f ac       	ldd	r0, Y+63	; 0x3f
    2b86:	6e 97       	sbiw	r28, 0x1e	; 30
    2b88:	04 c0       	rjmp	.+8      	; 0x2b92 <__udivdi3+0x938>
    2b8a:	88 0f       	add	r24, r24
    2b8c:	99 1f       	adc	r25, r25
    2b8e:	aa 1f       	adc	r26, r26
    2b90:	bb 1f       	adc	r27, r27
    2b92:	0a 94       	dec	r0
    2b94:	d2 f7       	brpl	.-12     	; 0x2b8a <__udivdi3+0x930>
    2b96:	ed a4       	ldd	r14, Y+45	; 0x2d
    2b98:	fe a4       	ldd	r15, Y+46	; 0x2e
    2b9a:	0f a5       	ldd	r16, Y+47	; 0x2f
    2b9c:	18 a9       	ldd	r17, Y+48	; 0x30
    2b9e:	04 c0       	rjmp	.+8      	; 0x2ba8 <__udivdi3+0x94e>
    2ba0:	16 95       	lsr	r17
    2ba2:	07 95       	ror	r16
    2ba4:	f7 94       	ror	r15
    2ba6:	e7 94       	ror	r14
    2ba8:	6a 95       	dec	r22
    2baa:	d2 f7       	brpl	.-12     	; 0x2ba0 <__udivdi3+0x946>
    2bac:	37 01       	movw	r6, r14
    2bae:	48 01       	movw	r8, r16
    2bb0:	68 2a       	or	r6, r24
    2bb2:	79 2a       	or	r7, r25
    2bb4:	8a 2a       	or	r8, r26
    2bb6:	9b 2a       	or	r9, r27
    2bb8:	6d 8e       	std	Y+29, r6	; 0x1d
    2bba:	7e 8e       	std	Y+30, r7	; 0x1e
    2bbc:	8f 8e       	std	Y+31, r8	; 0x1f
    2bbe:	98 a2       	std	Y+32, r9	; 0x20
    2bc0:	ed a0       	ldd	r14, Y+37	; 0x25
    2bc2:	fe a0       	ldd	r15, Y+38	; 0x26
    2bc4:	0f a1       	ldd	r16, Y+39	; 0x27
    2bc6:	18 a5       	ldd	r17, Y+40	; 0x28
    2bc8:	38 01       	movw	r6, r16
    2bca:	88 24       	eor	r8, r8
    2bcc:	99 24       	eor	r9, r9
    2bce:	98 01       	movw	r18, r16
    2bd0:	87 01       	movw	r16, r14
    2bd2:	20 70       	andi	r18, 0x00	; 0
    2bd4:	30 70       	andi	r19, 0x00	; 0
    2bd6:	65 96       	adiw	r28, 0x15	; 21
    2bd8:	0c af       	std	Y+60, r16	; 0x3c
    2bda:	1d af       	std	Y+61, r17	; 0x3d
    2bdc:	2e af       	std	Y+62, r18	; 0x3e
    2bde:	3f af       	std	Y+63, r19	; 0x3f
    2be0:	65 97       	sbiw	r28, 0x15	; 21
    2be2:	c6 01       	movw	r24, r12
    2be4:	b5 01       	movw	r22, r10
    2be6:	a4 01       	movw	r20, r8
    2be8:	93 01       	movw	r18, r6
    2bea:	0e 94 c9 2a 	call	0x5592	; 0x5592 <__udivmodsi4>
    2bee:	7b 01       	movw	r14, r22
    2bf0:	8c 01       	movw	r16, r24
    2bf2:	c6 01       	movw	r24, r12
    2bf4:	b5 01       	movw	r22, r10
    2bf6:	a4 01       	movw	r20, r8
    2bf8:	93 01       	movw	r18, r6
    2bfa:	0e 94 c9 2a 	call	0x5592	; 0x5592 <__udivmodsi4>
    2bfe:	c9 01       	movw	r24, r18
    2c00:	da 01       	movw	r26, r20
    2c02:	1c 01       	movw	r2, r24
    2c04:	2d 01       	movw	r4, r26
    2c06:	c2 01       	movw	r24, r4
    2c08:	b1 01       	movw	r22, r2
    2c0a:	65 96       	adiw	r28, 0x15	; 21
    2c0c:	2c ad       	ldd	r18, Y+60	; 0x3c
    2c0e:	3d ad       	ldd	r19, Y+61	; 0x3d
    2c10:	4e ad       	ldd	r20, Y+62	; 0x3e
    2c12:	5f ad       	ldd	r21, Y+63	; 0x3f
    2c14:	65 97       	sbiw	r28, 0x15	; 21
    2c16:	0e 94 aa 2a 	call	0x5554	; 0x5554 <__mulsi3>
    2c1a:	9b 01       	movw	r18, r22
    2c1c:	ac 01       	movw	r20, r24
    2c1e:	87 01       	movw	r16, r14
    2c20:	ff 24       	eor	r15, r15
    2c22:	ee 24       	eor	r14, r14
    2c24:	ad 8c       	ldd	r10, Y+29	; 0x1d
    2c26:	be 8c       	ldd	r11, Y+30	; 0x1e
    2c28:	cf 8c       	ldd	r12, Y+31	; 0x1f
    2c2a:	d8 a0       	ldd	r13, Y+32	; 0x20
    2c2c:	c6 01       	movw	r24, r12
    2c2e:	aa 27       	eor	r26, r26
    2c30:	bb 27       	eor	r27, r27
    2c32:	57 01       	movw	r10, r14
    2c34:	68 01       	movw	r12, r16
    2c36:	a8 2a       	or	r10, r24
    2c38:	b9 2a       	or	r11, r25
    2c3a:	ca 2a       	or	r12, r26
    2c3c:	db 2a       	or	r13, r27
    2c3e:	a2 16       	cp	r10, r18
    2c40:	b3 06       	cpc	r11, r19
    2c42:	c4 06       	cpc	r12, r20
    2c44:	d5 06       	cpc	r13, r21
    2c46:	00 f5       	brcc	.+64     	; 0x2c88 <__udivdi3+0xa2e>
    2c48:	08 94       	sec
    2c4a:	21 08       	sbc	r2, r1
    2c4c:	31 08       	sbc	r3, r1
    2c4e:	41 08       	sbc	r4, r1
    2c50:	51 08       	sbc	r5, r1
    2c52:	ed a0       	ldd	r14, Y+37	; 0x25
    2c54:	fe a0       	ldd	r15, Y+38	; 0x26
    2c56:	0f a1       	ldd	r16, Y+39	; 0x27
    2c58:	18 a5       	ldd	r17, Y+40	; 0x28
    2c5a:	ae 0c       	add	r10, r14
    2c5c:	bf 1c       	adc	r11, r15
    2c5e:	c0 1e       	adc	r12, r16
    2c60:	d1 1e       	adc	r13, r17
    2c62:	ae 14       	cp	r10, r14
    2c64:	bf 04       	cpc	r11, r15
    2c66:	c0 06       	cpc	r12, r16
    2c68:	d1 06       	cpc	r13, r17
    2c6a:	70 f0       	brcs	.+28     	; 0x2c88 <__udivdi3+0xa2e>
    2c6c:	a2 16       	cp	r10, r18
    2c6e:	b3 06       	cpc	r11, r19
    2c70:	c4 06       	cpc	r12, r20
    2c72:	d5 06       	cpc	r13, r21
    2c74:	48 f4       	brcc	.+18     	; 0x2c88 <__udivdi3+0xa2e>
    2c76:	08 94       	sec
    2c78:	21 08       	sbc	r2, r1
    2c7a:	31 08       	sbc	r3, r1
    2c7c:	41 08       	sbc	r4, r1
    2c7e:	51 08       	sbc	r5, r1
    2c80:	ae 0c       	add	r10, r14
    2c82:	bf 1c       	adc	r11, r15
    2c84:	c0 1e       	adc	r12, r16
    2c86:	d1 1e       	adc	r13, r17
    2c88:	a2 1a       	sub	r10, r18
    2c8a:	b3 0a       	sbc	r11, r19
    2c8c:	c4 0a       	sbc	r12, r20
    2c8e:	d5 0a       	sbc	r13, r21
    2c90:	c6 01       	movw	r24, r12
    2c92:	b5 01       	movw	r22, r10
    2c94:	a4 01       	movw	r20, r8
    2c96:	93 01       	movw	r18, r6
    2c98:	0e 94 c9 2a 	call	0x5592	; 0x5592 <__udivmodsi4>
    2c9c:	7b 01       	movw	r14, r22
    2c9e:	8c 01       	movw	r16, r24
    2ca0:	c6 01       	movw	r24, r12
    2ca2:	b5 01       	movw	r22, r10
    2ca4:	a4 01       	movw	r20, r8
    2ca6:	93 01       	movw	r18, r6
    2ca8:	0e 94 c9 2a 	call	0x5592	; 0x5592 <__udivmodsi4>
    2cac:	c9 01       	movw	r24, r18
    2cae:	da 01       	movw	r26, r20
    2cb0:	3c 01       	movw	r6, r24
    2cb2:	4d 01       	movw	r8, r26
    2cb4:	c4 01       	movw	r24, r8
    2cb6:	b3 01       	movw	r22, r6
    2cb8:	65 96       	adiw	r28, 0x15	; 21
    2cba:	2c ad       	ldd	r18, Y+60	; 0x3c
    2cbc:	3d ad       	ldd	r19, Y+61	; 0x3d
    2cbe:	4e ad       	ldd	r20, Y+62	; 0x3e
    2cc0:	5f ad       	ldd	r21, Y+63	; 0x3f
    2cc2:	65 97       	sbiw	r28, 0x15	; 21
    2cc4:	0e 94 aa 2a 	call	0x5554	; 0x5554 <__mulsi3>
    2cc8:	9b 01       	movw	r18, r22
    2cca:	ac 01       	movw	r20, r24
    2ccc:	87 01       	movw	r16, r14
    2cce:	ff 24       	eor	r15, r15
    2cd0:	ee 24       	eor	r14, r14
    2cd2:	8d 8d       	ldd	r24, Y+29	; 0x1d
    2cd4:	9e 8d       	ldd	r25, Y+30	; 0x1e
    2cd6:	af 8d       	ldd	r26, Y+31	; 0x1f
    2cd8:	b8 a1       	ldd	r27, Y+32	; 0x20
    2cda:	a0 70       	andi	r26, 0x00	; 0
    2cdc:	b0 70       	andi	r27, 0x00	; 0
    2cde:	57 01       	movw	r10, r14
    2ce0:	68 01       	movw	r12, r16
    2ce2:	a8 2a       	or	r10, r24
    2ce4:	b9 2a       	or	r11, r25
    2ce6:	ca 2a       	or	r12, r26
    2ce8:	db 2a       	or	r13, r27
    2cea:	a2 16       	cp	r10, r18
    2cec:	b3 06       	cpc	r11, r19
    2cee:	c4 06       	cpc	r12, r20
    2cf0:	d5 06       	cpc	r13, r21
    2cf2:	00 f5       	brcc	.+64     	; 0x2d34 <__udivdi3+0xada>
    2cf4:	08 94       	sec
    2cf6:	61 08       	sbc	r6, r1
    2cf8:	71 08       	sbc	r7, r1
    2cfa:	81 08       	sbc	r8, r1
    2cfc:	91 08       	sbc	r9, r1
    2cfe:	6d a1       	ldd	r22, Y+37	; 0x25
    2d00:	7e a1       	ldd	r23, Y+38	; 0x26
    2d02:	8f a1       	ldd	r24, Y+39	; 0x27
    2d04:	98 a5       	ldd	r25, Y+40	; 0x28
    2d06:	a6 0e       	add	r10, r22
    2d08:	b7 1e       	adc	r11, r23
    2d0a:	c8 1e       	adc	r12, r24
    2d0c:	d9 1e       	adc	r13, r25
    2d0e:	a6 16       	cp	r10, r22
    2d10:	b7 06       	cpc	r11, r23
    2d12:	c8 06       	cpc	r12, r24
    2d14:	d9 06       	cpc	r13, r25
    2d16:	70 f0       	brcs	.+28     	; 0x2d34 <__udivdi3+0xada>
    2d18:	a2 16       	cp	r10, r18
    2d1a:	b3 06       	cpc	r11, r19
    2d1c:	c4 06       	cpc	r12, r20
    2d1e:	d5 06       	cpc	r13, r21
    2d20:	48 f4       	brcc	.+18     	; 0x2d34 <__udivdi3+0xada>
    2d22:	08 94       	sec
    2d24:	61 08       	sbc	r6, r1
    2d26:	71 08       	sbc	r7, r1
    2d28:	81 08       	sbc	r8, r1
    2d2a:	91 08       	sbc	r9, r1
    2d2c:	a6 0e       	add	r10, r22
    2d2e:	b7 1e       	adc	r11, r23
    2d30:	c8 1e       	adc	r12, r24
    2d32:	d9 1e       	adc	r13, r25
    2d34:	d6 01       	movw	r26, r12
    2d36:	c5 01       	movw	r24, r10
    2d38:	82 1b       	sub	r24, r18
    2d3a:	93 0b       	sbc	r25, r19
    2d3c:	a4 0b       	sbc	r26, r20
    2d3e:	b5 0b       	sbc	r27, r21
    2d40:	89 8f       	std	Y+25, r24	; 0x19
    2d42:	9a 8f       	std	Y+26, r25	; 0x1a
    2d44:	ab 8f       	std	Y+27, r26	; 0x1b
    2d46:	bc 8f       	std	Y+28, r27	; 0x1c
    2d48:	d1 01       	movw	r26, r2
    2d4a:	99 27       	eor	r25, r25
    2d4c:	88 27       	eor	r24, r24
    2d4e:	64 01       	movw	r12, r8
    2d50:	53 01       	movw	r10, r6
    2d52:	a8 2a       	or	r10, r24
    2d54:	b9 2a       	or	r11, r25
    2d56:	ca 2a       	or	r12, r26
    2d58:	db 2a       	or	r13, r27
    2d5a:	a9 aa       	std	Y+49, r10	; 0x31
    2d5c:	ba aa       	std	Y+50, r11	; 0x32
    2d5e:	cb aa       	std	Y+51, r12	; 0x33
    2d60:	dc aa       	std	Y+52, r13	; 0x34
    2d62:	86 01       	movw	r16, r12
    2d64:	75 01       	movw	r14, r10
    2d66:	2f ef       	ldi	r18, 0xFF	; 255
    2d68:	3f ef       	ldi	r19, 0xFF	; 255
    2d6a:	40 e0       	ldi	r20, 0x00	; 0
    2d6c:	50 e0       	ldi	r21, 0x00	; 0
    2d6e:	e2 22       	and	r14, r18
    2d70:	f3 22       	and	r15, r19
    2d72:	04 23       	and	r16, r20
    2d74:	15 23       	and	r17, r21
    2d76:	a6 01       	movw	r20, r12
    2d78:	66 27       	eor	r22, r22
    2d7a:	77 27       	eor	r23, r23
    2d7c:	6d 96       	adiw	r28, 0x1d	; 29
    2d7e:	4c af       	std	Y+60, r20	; 0x3c
    2d80:	5d af       	std	Y+61, r21	; 0x3d
    2d82:	6e af       	std	Y+62, r22	; 0x3e
    2d84:	7f af       	std	Y+63, r23	; 0x3f
    2d86:	6d 97       	sbiw	r28, 0x1d	; 29
    2d88:	a9 a0       	ldd	r10, Y+33	; 0x21
    2d8a:	ba a0       	ldd	r11, Y+34	; 0x22
    2d8c:	cb a0       	ldd	r12, Y+35	; 0x23
    2d8e:	dc a0       	ldd	r13, Y+36	; 0x24
    2d90:	6f ef       	ldi	r22, 0xFF	; 255
    2d92:	7f ef       	ldi	r23, 0xFF	; 255
    2d94:	80 e0       	ldi	r24, 0x00	; 0
    2d96:	90 e0       	ldi	r25, 0x00	; 0
    2d98:	a6 22       	and	r10, r22
    2d9a:	b7 22       	and	r11, r23
    2d9c:	c8 22       	and	r12, r24
    2d9e:	d9 22       	and	r13, r25
    2da0:	89 a1       	ldd	r24, Y+33	; 0x21
    2da2:	9a a1       	ldd	r25, Y+34	; 0x22
    2da4:	ab a1       	ldd	r26, Y+35	; 0x23
    2da6:	bc a1       	ldd	r27, Y+36	; 0x24
    2da8:	1d 01       	movw	r2, r26
    2daa:	44 24       	eor	r4, r4
    2dac:	55 24       	eor	r5, r5
    2dae:	c8 01       	movw	r24, r16
    2db0:	b7 01       	movw	r22, r14
    2db2:	a6 01       	movw	r20, r12
    2db4:	95 01       	movw	r18, r10
    2db6:	0e 94 aa 2a 	call	0x5554	; 0x5554 <__mulsi3>
    2dba:	69 96       	adiw	r28, 0x19	; 25
    2dbc:	6c af       	std	Y+60, r22	; 0x3c
    2dbe:	7d af       	std	Y+61, r23	; 0x3d
    2dc0:	8e af       	std	Y+62, r24	; 0x3e
    2dc2:	9f af       	std	Y+63, r25	; 0x3f
    2dc4:	69 97       	sbiw	r28, 0x19	; 25
    2dc6:	c8 01       	movw	r24, r16
    2dc8:	b7 01       	movw	r22, r14
    2dca:	a2 01       	movw	r20, r4
    2dcc:	91 01       	movw	r18, r2
    2dce:	0e 94 aa 2a 	call	0x5554	; 0x5554 <__mulsi3>
    2dd2:	3b 01       	movw	r6, r22
    2dd4:	4c 01       	movw	r8, r24
    2dd6:	6d 96       	adiw	r28, 0x1d	; 29
    2dd8:	6c ad       	ldd	r22, Y+60	; 0x3c
    2dda:	7d ad       	ldd	r23, Y+61	; 0x3d
    2ddc:	8e ad       	ldd	r24, Y+62	; 0x3e
    2dde:	9f ad       	ldd	r25, Y+63	; 0x3f
    2de0:	6d 97       	sbiw	r28, 0x1d	; 29
    2de2:	a6 01       	movw	r20, r12
    2de4:	95 01       	movw	r18, r10
    2de6:	0e 94 aa 2a 	call	0x5554	; 0x5554 <__mulsi3>
    2dea:	7b 01       	movw	r14, r22
    2dec:	8c 01       	movw	r16, r24
    2dee:	6d 96       	adiw	r28, 0x1d	; 29
    2df0:	6c ad       	ldd	r22, Y+60	; 0x3c
    2df2:	7d ad       	ldd	r23, Y+61	; 0x3d
    2df4:	8e ad       	ldd	r24, Y+62	; 0x3e
    2df6:	9f ad       	ldd	r25, Y+63	; 0x3f
    2df8:	6d 97       	sbiw	r28, 0x1d	; 29
    2dfa:	a2 01       	movw	r20, r4
    2dfc:	91 01       	movw	r18, r2
    2dfe:	0e 94 aa 2a 	call	0x5554	; 0x5554 <__mulsi3>
    2e02:	5b 01       	movw	r10, r22
    2e04:	6c 01       	movw	r12, r24
    2e06:	a8 01       	movw	r20, r16
    2e08:	97 01       	movw	r18, r14
    2e0a:	26 0d       	add	r18, r6
    2e0c:	37 1d       	adc	r19, r7
    2e0e:	48 1d       	adc	r20, r8
    2e10:	59 1d       	adc	r21, r9
    2e12:	69 96       	adiw	r28, 0x19	; 25
    2e14:	6c ac       	ldd	r6, Y+60	; 0x3c
    2e16:	7d ac       	ldd	r7, Y+61	; 0x3d
    2e18:	8e ac       	ldd	r8, Y+62	; 0x3e
    2e1a:	9f ac       	ldd	r9, Y+63	; 0x3f
    2e1c:	69 97       	sbiw	r28, 0x19	; 25
    2e1e:	c4 01       	movw	r24, r8
    2e20:	aa 27       	eor	r26, r26
    2e22:	bb 27       	eor	r27, r27
    2e24:	28 0f       	add	r18, r24
    2e26:	39 1f       	adc	r19, r25
    2e28:	4a 1f       	adc	r20, r26
    2e2a:	5b 1f       	adc	r21, r27
    2e2c:	2e 15       	cp	r18, r14
    2e2e:	3f 05       	cpc	r19, r15
    2e30:	40 07       	cpc	r20, r16
    2e32:	51 07       	cpc	r21, r17
    2e34:	48 f4       	brcc	.+18     	; 0x2e48 <__udivdi3+0xbee>
    2e36:	e1 2c       	mov	r14, r1
    2e38:	f1 2c       	mov	r15, r1
    2e3a:	61 e0       	ldi	r22, 0x01	; 1
    2e3c:	06 2f       	mov	r16, r22
    2e3e:	11 2d       	mov	r17, r1
    2e40:	ae 0c       	add	r10, r14
    2e42:	bf 1c       	adc	r11, r15
    2e44:	c0 1e       	adc	r12, r16
    2e46:	d1 1e       	adc	r13, r17
    2e48:	ca 01       	movw	r24, r20
    2e4a:	aa 27       	eor	r26, r26
    2e4c:	bb 27       	eor	r27, r27
    2e4e:	bc 01       	movw	r22, r24
    2e50:	cd 01       	movw	r24, r26
    2e52:	6a 0d       	add	r22, r10
    2e54:	7b 1d       	adc	r23, r11
    2e56:	8c 1d       	adc	r24, r12
    2e58:	9d 1d       	adc	r25, r13
    2e5a:	69 8c       	ldd	r6, Y+25	; 0x19
    2e5c:	7a 8c       	ldd	r7, Y+26	; 0x1a
    2e5e:	8b 8c       	ldd	r8, Y+27	; 0x1b
    2e60:	9c 8c       	ldd	r9, Y+28	; 0x1c
    2e62:	66 16       	cp	r6, r22
    2e64:	77 06       	cpc	r7, r23
    2e66:	88 06       	cpc	r8, r24
    2e68:	99 06       	cpc	r9, r25
    2e6a:	40 f1       	brcs	.+80     	; 0x2ebc <__udivdi3+0xc62>
    2e6c:	66 15       	cp	r22, r6
    2e6e:	77 05       	cpc	r23, r7
    2e70:	88 05       	cpc	r24, r8
    2e72:	99 05       	cpc	r25, r9
    2e74:	09 f0       	breq	.+2      	; 0x2e78 <__udivdi3+0xc1e>
    2e76:	43 c0       	rjmp	.+134    	; 0x2efe <__udivdi3+0xca4>
    2e78:	d9 01       	movw	r26, r18
    2e7a:	99 27       	eor	r25, r25
    2e7c:	88 27       	eor	r24, r24
    2e7e:	69 96       	adiw	r28, 0x19	; 25
    2e80:	2c ad       	ldd	r18, Y+60	; 0x3c
    2e82:	3d ad       	ldd	r19, Y+61	; 0x3d
    2e84:	4e ad       	ldd	r20, Y+62	; 0x3e
    2e86:	5f ad       	ldd	r21, Y+63	; 0x3f
    2e88:	69 97       	sbiw	r28, 0x19	; 25
    2e8a:	40 70       	andi	r20, 0x00	; 0
    2e8c:	50 70       	andi	r21, 0x00	; 0
    2e8e:	82 0f       	add	r24, r18
    2e90:	93 1f       	adc	r25, r19
    2e92:	a4 1f       	adc	r26, r20
    2e94:	b5 1f       	adc	r27, r21
    2e96:	2d a5       	ldd	r18, Y+45	; 0x2d
    2e98:	3e a5       	ldd	r19, Y+46	; 0x2e
    2e9a:	4f a5       	ldd	r20, Y+47	; 0x2f
    2e9c:	58 a9       	ldd	r21, Y+48	; 0x30
    2e9e:	6e 96       	adiw	r28, 0x1e	; 30
    2ea0:	0f ac       	ldd	r0, Y+63	; 0x3f
    2ea2:	6e 97       	sbiw	r28, 0x1e	; 30
    2ea4:	04 c0       	rjmp	.+8      	; 0x2eae <__udivdi3+0xc54>
    2ea6:	22 0f       	add	r18, r18
    2ea8:	33 1f       	adc	r19, r19
    2eaa:	44 1f       	adc	r20, r20
    2eac:	55 1f       	adc	r21, r21
    2eae:	0a 94       	dec	r0
    2eb0:	d2 f7       	brpl	.-12     	; 0x2ea6 <__udivdi3+0xc4c>
    2eb2:	28 17       	cp	r18, r24
    2eb4:	39 07       	cpc	r19, r25
    2eb6:	4a 07       	cpc	r20, r26
    2eb8:	5b 07       	cpc	r21, r27
    2eba:	08 f5       	brcc	.+66     	; 0x2efe <__udivdi3+0xca4>
    2ebc:	09 a9       	ldd	r16, Y+49	; 0x31
    2ebe:	1a a9       	ldd	r17, Y+50	; 0x32
    2ec0:	2b a9       	ldd	r18, Y+51	; 0x33
    2ec2:	3c a9       	ldd	r19, Y+52	; 0x34
    2ec4:	01 50       	subi	r16, 0x01	; 1
    2ec6:	10 40       	sbci	r17, 0x00	; 0
    2ec8:	20 40       	sbci	r18, 0x00	; 0
    2eca:	30 40       	sbci	r19, 0x00	; 0
    2ecc:	09 ab       	std	Y+49, r16	; 0x31
    2ece:	1a ab       	std	Y+50, r17	; 0x32
    2ed0:	2b ab       	std	Y+51, r18	; 0x33
    2ed2:	3c ab       	std	Y+52, r19	; 0x34
    2ed4:	14 c0       	rjmp	.+40     	; 0x2efe <__udivdi3+0xca4>
    2ed6:	66 24       	eor	r6, r6
    2ed8:	77 24       	eor	r7, r7
    2eda:	43 01       	movw	r8, r6
    2edc:	21 e0       	ldi	r18, 0x01	; 1
    2ede:	30 e0       	ldi	r19, 0x00	; 0
    2ee0:	40 e0       	ldi	r20, 0x00	; 0
    2ee2:	50 e0       	ldi	r21, 0x00	; 0
    2ee4:	29 ab       	std	Y+49, r18	; 0x31
    2ee6:	3a ab       	std	Y+50, r19	; 0x32
    2ee8:	4b ab       	std	Y+51, r20	; 0x33
    2eea:	5c ab       	std	Y+52, r21	; 0x34
    2eec:	0b c0       	rjmp	.+22     	; 0x2f04 <__udivdi3+0xcaa>
    2eee:	66 24       	eor	r6, r6
    2ef0:	77 24       	eor	r7, r7
    2ef2:	43 01       	movw	r8, r6
    2ef4:	19 aa       	std	Y+49, r1	; 0x31
    2ef6:	1a aa       	std	Y+50, r1	; 0x32
    2ef8:	1b aa       	std	Y+51, r1	; 0x33
    2efa:	1c aa       	std	Y+52, r1	; 0x34
    2efc:	03 c0       	rjmp	.+6      	; 0x2f04 <__udivdi3+0xcaa>
    2efe:	66 24       	eor	r6, r6
    2f00:	77 24       	eor	r7, r7
    2f02:	43 01       	movw	r8, r6
    2f04:	fe 01       	movw	r30, r28
    2f06:	71 96       	adiw	r30, 0x11	; 17
    2f08:	88 e0       	ldi	r24, 0x08	; 8
    2f0a:	df 01       	movw	r26, r30
    2f0c:	1d 92       	st	X+, r1
    2f0e:	8a 95       	dec	r24
    2f10:	e9 f7       	brne	.-6      	; 0x2f0c <__udivdi3+0xcb2>
    2f12:	a9 a8       	ldd	r10, Y+49	; 0x31
    2f14:	ba a8       	ldd	r11, Y+50	; 0x32
    2f16:	cb a8       	ldd	r12, Y+51	; 0x33
    2f18:	dc a8       	ldd	r13, Y+52	; 0x34
    2f1a:	a9 8a       	std	Y+17, r10	; 0x11
    2f1c:	ba 8a       	std	Y+18, r11	; 0x12
    2f1e:	cb 8a       	std	Y+19, r12	; 0x13
    2f20:	dc 8a       	std	Y+20, r13	; 0x14
    2f22:	6d 8a       	std	Y+21, r6	; 0x15
    2f24:	7e 8a       	std	Y+22, r7	; 0x16
    2f26:	8f 8a       	std	Y+23, r8	; 0x17
    2f28:	98 8e       	std	Y+24, r9	; 0x18
    2f2a:	29 a9       	ldd	r18, Y+49	; 0x31
    2f2c:	3a 89       	ldd	r19, Y+18	; 0x12
    2f2e:	4b 89       	ldd	r20, Y+19	; 0x13
    2f30:	5c 89       	ldd	r21, Y+20	; 0x14
    2f32:	66 2d       	mov	r22, r6
    2f34:	7e 89       	ldd	r23, Y+22	; 0x16
    2f36:	8f 89       	ldd	r24, Y+23	; 0x17
    2f38:	98 8d       	ldd	r25, Y+24	; 0x18
    2f3a:	c2 5a       	subi	r28, 0xA2	; 162
    2f3c:	df 4f       	sbci	r29, 0xFF	; 255
    2f3e:	e2 e1       	ldi	r30, 0x12	; 18
    2f40:	0c 94 07 2b 	jmp	0x560e	; 0x560e <__epilogue_restores__>

00002f44 <__umoddi3>:
    2f44:	ab e5       	ldi	r26, 0x5B	; 91
    2f46:	b0 e0       	ldi	r27, 0x00	; 0
    2f48:	e8 ea       	ldi	r30, 0xA8	; 168
    2f4a:	f7 e1       	ldi	r31, 0x17	; 23
    2f4c:	0c 94 eb 2a 	jmp	0x55d6	; 0x55d6 <__prologue_saves__>
    2f50:	a8 e0       	ldi	r26, 0x08	; 8
    2f52:	4e 01       	movw	r8, r28
    2f54:	08 94       	sec
    2f56:	81 1c       	adc	r8, r1
    2f58:	91 1c       	adc	r9, r1
    2f5a:	f4 01       	movw	r30, r8
    2f5c:	6a 2e       	mov	r6, r26
    2f5e:	11 92       	st	Z+, r1
    2f60:	6a 94       	dec	r6
    2f62:	e9 f7       	brne	.-6      	; 0x2f5e <__umoddi3+0x1a>
    2f64:	29 83       	std	Y+1, r18	; 0x01
    2f66:	3a 83       	std	Y+2, r19	; 0x02
    2f68:	4b 83       	std	Y+3, r20	; 0x03
    2f6a:	5c 83       	std	Y+4, r21	; 0x04
    2f6c:	6d 83       	std	Y+5, r22	; 0x05
    2f6e:	7e 83       	std	Y+6, r23	; 0x06
    2f70:	8f 83       	std	Y+7, r24	; 0x07
    2f72:	98 87       	std	Y+8, r25	; 0x08
    2f74:	ce 01       	movw	r24, r28
    2f76:	09 96       	adiw	r24, 0x09	; 9
    2f78:	fc 01       	movw	r30, r24
    2f7a:	11 92       	st	Z+, r1
    2f7c:	aa 95       	dec	r26
    2f7e:	e9 f7       	brne	.-6      	; 0x2f7a <__umoddi3+0x36>
    2f80:	a9 86       	std	Y+9, r10	; 0x09
    2f82:	ba 86       	std	Y+10, r11	; 0x0a
    2f84:	cb 86       	std	Y+11, r12	; 0x0b
    2f86:	dc 86       	std	Y+12, r13	; 0x0c
    2f88:	ed 86       	std	Y+13, r14	; 0x0d
    2f8a:	fe 86       	std	Y+14, r15	; 0x0e
    2f8c:	0f 87       	std	Y+15, r16	; 0x0f
    2f8e:	18 8b       	std	Y+16, r17	; 0x10
    2f90:	29 84       	ldd	r2, Y+9	; 0x09
    2f92:	3a 84       	ldd	r3, Y+10	; 0x0a
    2f94:	4b 84       	ldd	r4, Y+11	; 0x0b
    2f96:	5c 84       	ldd	r5, Y+12	; 0x0c
    2f98:	ad 84       	ldd	r10, Y+13	; 0x0d
    2f9a:	be 84       	ldd	r11, Y+14	; 0x0e
    2f9c:	cf 84       	ldd	r12, Y+15	; 0x0f
    2f9e:	d8 88       	ldd	r13, Y+16	; 0x10
    2fa0:	29 81       	ldd	r18, Y+1	; 0x01
    2fa2:	3a 81       	ldd	r19, Y+2	; 0x02
    2fa4:	4b 81       	ldd	r20, Y+3	; 0x03
    2fa6:	5c 81       	ldd	r21, Y+4	; 0x04
    2fa8:	69 96       	adiw	r28, 0x19	; 25
    2faa:	2f af       	std	Y+63, r18	; 0x3f
    2fac:	69 97       	sbiw	r28, 0x19	; 25
    2fae:	6a 96       	adiw	r28, 0x1a	; 26
    2fb0:	3f af       	std	Y+63, r19	; 0x3f
    2fb2:	6a 97       	sbiw	r28, 0x1a	; 26
    2fb4:	6b 96       	adiw	r28, 0x1b	; 27
    2fb6:	4f af       	std	Y+63, r20	; 0x3f
    2fb8:	6b 97       	sbiw	r28, 0x1b	; 27
    2fba:	6c 96       	adiw	r28, 0x1c	; 28
    2fbc:	5f af       	std	Y+63, r21	; 0x3f
    2fbe:	6c 97       	sbiw	r28, 0x1c	; 28
    2fc0:	6c 96       	adiw	r28, 0x1c	; 28
    2fc2:	6c ac       	ldd	r6, Y+60	; 0x3c
    2fc4:	7d ac       	ldd	r7, Y+61	; 0x3d
    2fc6:	8e ac       	ldd	r8, Y+62	; 0x3e
    2fc8:	9f ac       	ldd	r9, Y+63	; 0x3f
    2fca:	6c 97       	sbiw	r28, 0x1c	; 28
    2fcc:	69 aa       	std	Y+49, r6	; 0x31
    2fce:	7a aa       	std	Y+50, r7	; 0x32
    2fd0:	8b aa       	std	Y+51, r8	; 0x33
    2fd2:	9c aa       	std	Y+52, r9	; 0x34
    2fd4:	6d 81       	ldd	r22, Y+5	; 0x05
    2fd6:	7e 81       	ldd	r23, Y+6	; 0x06
    2fd8:	8f 81       	ldd	r24, Y+7	; 0x07
    2fda:	98 85       	ldd	r25, Y+8	; 0x08
    2fdc:	3b 01       	movw	r6, r22
    2fde:	4c 01       	movw	r8, r24
    2fe0:	6d aa       	std	Y+53, r6	; 0x35
    2fe2:	7e aa       	std	Y+54, r7	; 0x36
    2fe4:	8f aa       	std	Y+55, r8	; 0x37
    2fe6:	98 ae       	std	Y+56, r9	; 0x38
    2fe8:	a1 14       	cp	r10, r1
    2fea:	b1 04       	cpc	r11, r1
    2fec:	c1 04       	cpc	r12, r1
    2fee:	d1 04       	cpc	r13, r1
    2ff0:	09 f0       	breq	.+2      	; 0x2ff4 <__umoddi3+0xb0>
    2ff2:	04 c3       	rjmp	.+1544   	; 0x35fc <__umoddi3+0x6b8>
    2ff4:	62 14       	cp	r6, r2
    2ff6:	73 04       	cpc	r7, r3
    2ff8:	84 04       	cpc	r8, r4
    2ffa:	95 04       	cpc	r9, r5
    2ffc:	08 f0       	brcs	.+2      	; 0x3000 <__umoddi3+0xbc>
    2ffe:	00 c1       	rjmp	.+512    	; 0x3200 <__umoddi3+0x2bc>
    3000:	00 e0       	ldi	r16, 0x00	; 0
    3002:	20 16       	cp	r2, r16
    3004:	00 e0       	ldi	r16, 0x00	; 0
    3006:	30 06       	cpc	r3, r16
    3008:	01 e0       	ldi	r16, 0x01	; 1
    300a:	40 06       	cpc	r4, r16
    300c:	00 e0       	ldi	r16, 0x00	; 0
    300e:	50 06       	cpc	r5, r16
    3010:	88 f4       	brcc	.+34     	; 0x3034 <__umoddi3+0xf0>
    3012:	1f ef       	ldi	r17, 0xFF	; 255
    3014:	21 16       	cp	r2, r17
    3016:	31 04       	cpc	r3, r1
    3018:	41 04       	cpc	r4, r1
    301a:	51 04       	cpc	r5, r1
    301c:	39 f0       	breq	.+14     	; 0x302c <__umoddi3+0xe8>
    301e:	30 f0       	brcs	.+12     	; 0x302c <__umoddi3+0xe8>
    3020:	88 e0       	ldi	r24, 0x08	; 8
    3022:	e8 2e       	mov	r14, r24
    3024:	f1 2c       	mov	r15, r1
    3026:	01 2d       	mov	r16, r1
    3028:	11 2d       	mov	r17, r1
    302a:	18 c0       	rjmp	.+48     	; 0x305c <__umoddi3+0x118>
    302c:	ee 24       	eor	r14, r14
    302e:	ff 24       	eor	r15, r15
    3030:	87 01       	movw	r16, r14
    3032:	14 c0       	rjmp	.+40     	; 0x305c <__umoddi3+0x118>
    3034:	40 e0       	ldi	r20, 0x00	; 0
    3036:	24 16       	cp	r2, r20
    3038:	40 e0       	ldi	r20, 0x00	; 0
    303a:	34 06       	cpc	r3, r20
    303c:	40 e0       	ldi	r20, 0x00	; 0
    303e:	44 06       	cpc	r4, r20
    3040:	41 e0       	ldi	r20, 0x01	; 1
    3042:	54 06       	cpc	r5, r20
    3044:	30 f0       	brcs	.+12     	; 0x3052 <__umoddi3+0x10e>
    3046:	b8 e1       	ldi	r27, 0x18	; 24
    3048:	eb 2e       	mov	r14, r27
    304a:	f1 2c       	mov	r15, r1
    304c:	01 2d       	mov	r16, r1
    304e:	11 2d       	mov	r17, r1
    3050:	05 c0       	rjmp	.+10     	; 0x305c <__umoddi3+0x118>
    3052:	a0 e1       	ldi	r26, 0x10	; 16
    3054:	ea 2e       	mov	r14, r26
    3056:	f1 2c       	mov	r15, r1
    3058:	01 2d       	mov	r16, r1
    305a:	11 2d       	mov	r17, r1
    305c:	d2 01       	movw	r26, r4
    305e:	c1 01       	movw	r24, r2
    3060:	0e 2c       	mov	r0, r14
    3062:	04 c0       	rjmp	.+8      	; 0x306c <__umoddi3+0x128>
    3064:	b6 95       	lsr	r27
    3066:	a7 95       	ror	r26
    3068:	97 95       	ror	r25
    306a:	87 95       	ror	r24
    306c:	0a 94       	dec	r0
    306e:	d2 f7       	brpl	.-12     	; 0x3064 <__umoddi3+0x120>
    3070:	84 58       	subi	r24, 0x84	; 132
    3072:	9f 4f       	sbci	r25, 0xFF	; 255
    3074:	dc 01       	movw	r26, r24
    3076:	2c 91       	ld	r18, X
    3078:	80 e2       	ldi	r24, 0x20	; 32
    307a:	90 e0       	ldi	r25, 0x00	; 0
    307c:	a0 e0       	ldi	r26, 0x00	; 0
    307e:	b0 e0       	ldi	r27, 0x00	; 0
    3080:	8e 19       	sub	r24, r14
    3082:	9f 09       	sbc	r25, r15
    3084:	a0 0b       	sbc	r26, r16
    3086:	b1 0b       	sbc	r27, r17
    3088:	5c 01       	movw	r10, r24
    308a:	6d 01       	movw	r12, r26
    308c:	a2 1a       	sub	r10, r18
    308e:	b1 08       	sbc	r11, r1
    3090:	c1 08       	sbc	r12, r1
    3092:	d1 08       	sbc	r13, r1
    3094:	a9 ae       	std	Y+57, r10	; 0x39
    3096:	ba ae       	std	Y+58, r11	; 0x3a
    3098:	cb ae       	std	Y+59, r12	; 0x3b
    309a:	dc ae       	std	Y+60, r13	; 0x3c
    309c:	a1 14       	cp	r10, r1
    309e:	b1 04       	cpc	r11, r1
    30a0:	c1 04       	cpc	r12, r1
    30a2:	d1 04       	cpc	r13, r1
    30a4:	09 f4       	brne	.+2      	; 0x30a8 <__umoddi3+0x164>
    30a6:	3f c0       	rjmp	.+126    	; 0x3126 <__umoddi3+0x1e2>
    30a8:	69 ad       	ldd	r22, Y+57	; 0x39
    30aa:	06 2e       	mov	r0, r22
    30ac:	04 c0       	rjmp	.+8      	; 0x30b6 <__umoddi3+0x172>
    30ae:	22 0c       	add	r2, r2
    30b0:	33 1c       	adc	r3, r3
    30b2:	44 1c       	adc	r4, r4
    30b4:	55 1c       	adc	r5, r5
    30b6:	0a 94       	dec	r0
    30b8:	d2 f7       	brpl	.-12     	; 0x30ae <__umoddi3+0x16a>
    30ba:	a4 01       	movw	r20, r8
    30bc:	93 01       	movw	r18, r6
    30be:	06 2e       	mov	r0, r22
    30c0:	04 c0       	rjmp	.+8      	; 0x30ca <__umoddi3+0x186>
    30c2:	22 0f       	add	r18, r18
    30c4:	33 1f       	adc	r19, r19
    30c6:	44 1f       	adc	r20, r20
    30c8:	55 1f       	adc	r21, r21
    30ca:	0a 94       	dec	r0
    30cc:	d2 f7       	brpl	.-12     	; 0x30c2 <__umoddi3+0x17e>
    30ce:	80 e2       	ldi	r24, 0x20	; 32
    30d0:	90 e0       	ldi	r25, 0x00	; 0
    30d2:	8a 19       	sub	r24, r10
    30d4:	9b 09       	sbc	r25, r11
    30d6:	6c 96       	adiw	r28, 0x1c	; 28
    30d8:	cc ac       	ldd	r12, Y+60	; 0x3c
    30da:	dd ac       	ldd	r13, Y+61	; 0x3d
    30dc:	ee ac       	ldd	r14, Y+62	; 0x3e
    30de:	ff ac       	ldd	r15, Y+63	; 0x3f
    30e0:	6c 97       	sbiw	r28, 0x1c	; 28
    30e2:	04 c0       	rjmp	.+8      	; 0x30ec <__umoddi3+0x1a8>
    30e4:	f6 94       	lsr	r15
    30e6:	e7 94       	ror	r14
    30e8:	d7 94       	ror	r13
    30ea:	c7 94       	ror	r12
    30ec:	8a 95       	dec	r24
    30ee:	d2 f7       	brpl	.-12     	; 0x30e4 <__umoddi3+0x1a0>
    30f0:	87 01       	movw	r16, r14
    30f2:	76 01       	movw	r14, r12
    30f4:	e2 2a       	or	r14, r18
    30f6:	f3 2a       	or	r15, r19
    30f8:	04 2b       	or	r16, r20
    30fa:	15 2b       	or	r17, r21
    30fc:	ed aa       	std	Y+53, r14	; 0x35
    30fe:	fe aa       	std	Y+54, r15	; 0x36
    3100:	0f ab       	std	Y+55, r16	; 0x37
    3102:	18 af       	std	Y+56, r17	; 0x38
    3104:	6c 96       	adiw	r28, 0x1c	; 28
    3106:	8c ad       	ldd	r24, Y+60	; 0x3c
    3108:	9d ad       	ldd	r25, Y+61	; 0x3d
    310a:	ae ad       	ldd	r26, Y+62	; 0x3e
    310c:	bf ad       	ldd	r27, Y+63	; 0x3f
    310e:	6c 97       	sbiw	r28, 0x1c	; 28
    3110:	04 c0       	rjmp	.+8      	; 0x311a <__umoddi3+0x1d6>
    3112:	88 0f       	add	r24, r24
    3114:	99 1f       	adc	r25, r25
    3116:	aa 1f       	adc	r26, r26
    3118:	bb 1f       	adc	r27, r27
    311a:	6a 95       	dec	r22
    311c:	d2 f7       	brpl	.-12     	; 0x3112 <__umoddi3+0x1ce>
    311e:	89 ab       	std	Y+49, r24	; 0x31
    3120:	9a ab       	std	Y+50, r25	; 0x32
    3122:	ab ab       	std	Y+51, r26	; 0x33
    3124:	bc ab       	std	Y+52, r27	; 0x34
    3126:	32 01       	movw	r6, r4
    3128:	88 24       	eor	r8, r8
    312a:	99 24       	eor	r9, r9
    312c:	b2 01       	movw	r22, r4
    312e:	a1 01       	movw	r20, r2
    3130:	60 70       	andi	r22, 0x00	; 0
    3132:	70 70       	andi	r23, 0x00	; 0
    3134:	21 96       	adiw	r28, 0x01	; 1
    3136:	4c af       	std	Y+60, r20	; 0x3c
    3138:	5d af       	std	Y+61, r21	; 0x3d
    313a:	6e af       	std	Y+62, r22	; 0x3e
    313c:	7f af       	std	Y+63, r23	; 0x3f
    313e:	21 97       	sbiw	r28, 0x01	; 1
    3140:	6d a9       	ldd	r22, Y+53	; 0x35
    3142:	7e a9       	ldd	r23, Y+54	; 0x36
    3144:	8f a9       	ldd	r24, Y+55	; 0x37
    3146:	98 ad       	ldd	r25, Y+56	; 0x38
    3148:	a4 01       	movw	r20, r8
    314a:	93 01       	movw	r18, r6
    314c:	0e 94 c9 2a 	call	0x5592	; 0x5592 <__udivmodsi4>
    3150:	7b 01       	movw	r14, r22
    3152:	8c 01       	movw	r16, r24
    3154:	6d a9       	ldd	r22, Y+53	; 0x35
    3156:	7e a9       	ldd	r23, Y+54	; 0x36
    3158:	8f a9       	ldd	r24, Y+55	; 0x37
    315a:	98 ad       	ldd	r25, Y+56	; 0x38
    315c:	a4 01       	movw	r20, r8
    315e:	93 01       	movw	r18, r6
    3160:	0e 94 c9 2a 	call	0x5592	; 0x5592 <__udivmodsi4>
    3164:	ca 01       	movw	r24, r20
    3166:	b9 01       	movw	r22, r18
    3168:	21 96       	adiw	r28, 0x01	; 1
    316a:	2c ad       	ldd	r18, Y+60	; 0x3c
    316c:	3d ad       	ldd	r19, Y+61	; 0x3d
    316e:	4e ad       	ldd	r20, Y+62	; 0x3e
    3170:	5f ad       	ldd	r21, Y+63	; 0x3f
    3172:	21 97       	sbiw	r28, 0x01	; 1
    3174:	0e 94 aa 2a 	call	0x5554	; 0x5554 <__mulsi3>
    3178:	9b 01       	movw	r18, r22
    317a:	ac 01       	movw	r20, r24
    317c:	87 01       	movw	r16, r14
    317e:	ff 24       	eor	r15, r15
    3180:	ee 24       	eor	r14, r14
    3182:	a9 a8       	ldd	r10, Y+49	; 0x31
    3184:	ba a8       	ldd	r11, Y+50	; 0x32
    3186:	cb a8       	ldd	r12, Y+51	; 0x33
    3188:	dc a8       	ldd	r13, Y+52	; 0x34
    318a:	c6 01       	movw	r24, r12
    318c:	aa 27       	eor	r26, r26
    318e:	bb 27       	eor	r27, r27
    3190:	57 01       	movw	r10, r14
    3192:	68 01       	movw	r12, r16
    3194:	a8 2a       	or	r10, r24
    3196:	b9 2a       	or	r11, r25
    3198:	ca 2a       	or	r12, r26
    319a:	db 2a       	or	r13, r27
    319c:	a2 16       	cp	r10, r18
    319e:	b3 06       	cpc	r11, r19
    31a0:	c4 06       	cpc	r12, r20
    31a2:	d5 06       	cpc	r13, r21
    31a4:	90 f4       	brcc	.+36     	; 0x31ca <__umoddi3+0x286>
    31a6:	a2 0c       	add	r10, r2
    31a8:	b3 1c       	adc	r11, r3
    31aa:	c4 1c       	adc	r12, r4
    31ac:	d5 1c       	adc	r13, r5
    31ae:	a2 14       	cp	r10, r2
    31b0:	b3 04       	cpc	r11, r3
    31b2:	c4 04       	cpc	r12, r4
    31b4:	d5 04       	cpc	r13, r5
    31b6:	48 f0       	brcs	.+18     	; 0x31ca <__umoddi3+0x286>
    31b8:	a2 16       	cp	r10, r18
    31ba:	b3 06       	cpc	r11, r19
    31bc:	c4 06       	cpc	r12, r20
    31be:	d5 06       	cpc	r13, r21
    31c0:	20 f4       	brcc	.+8      	; 0x31ca <__umoddi3+0x286>
    31c2:	a2 0c       	add	r10, r2
    31c4:	b3 1c       	adc	r11, r3
    31c6:	c4 1c       	adc	r12, r4
    31c8:	d5 1c       	adc	r13, r5
    31ca:	a2 1a       	sub	r10, r18
    31cc:	b3 0a       	sbc	r11, r19
    31ce:	c4 0a       	sbc	r12, r20
    31d0:	d5 0a       	sbc	r13, r21
    31d2:	c6 01       	movw	r24, r12
    31d4:	b5 01       	movw	r22, r10
    31d6:	a4 01       	movw	r20, r8
    31d8:	93 01       	movw	r18, r6
    31da:	0e 94 c9 2a 	call	0x5592	; 0x5592 <__udivmodsi4>
    31de:	7b 01       	movw	r14, r22
    31e0:	8c 01       	movw	r16, r24
    31e2:	c6 01       	movw	r24, r12
    31e4:	b5 01       	movw	r22, r10
    31e6:	a4 01       	movw	r20, r8
    31e8:	93 01       	movw	r18, r6
    31ea:	0e 94 c9 2a 	call	0x5592	; 0x5592 <__udivmodsi4>
    31ee:	ca 01       	movw	r24, r20
    31f0:	b9 01       	movw	r22, r18
    31f2:	21 96       	adiw	r28, 0x01	; 1
    31f4:	2c ad       	ldd	r18, Y+60	; 0x3c
    31f6:	3d ad       	ldd	r19, Y+61	; 0x3d
    31f8:	4e ad       	ldd	r20, Y+62	; 0x3e
    31fa:	5f ad       	ldd	r21, Y+63	; 0x3f
    31fc:	21 97       	sbiw	r28, 0x01	; 1
    31fe:	ba c1       	rjmp	.+884    	; 0x3574 <__umoddi3+0x630>
    3200:	21 14       	cp	r2, r1
    3202:	31 04       	cpc	r3, r1
    3204:	41 04       	cpc	r4, r1
    3206:	51 04       	cpc	r5, r1
    3208:	71 f4       	brne	.+28     	; 0x3226 <__umoddi3+0x2e2>
    320a:	61 e0       	ldi	r22, 0x01	; 1
    320c:	70 e0       	ldi	r23, 0x00	; 0
    320e:	80 e0       	ldi	r24, 0x00	; 0
    3210:	90 e0       	ldi	r25, 0x00	; 0
    3212:	20 e0       	ldi	r18, 0x00	; 0
    3214:	30 e0       	ldi	r19, 0x00	; 0
    3216:	40 e0       	ldi	r20, 0x00	; 0
    3218:	50 e0       	ldi	r21, 0x00	; 0
    321a:	0e 94 c9 2a 	call	0x5592	; 0x5592 <__udivmodsi4>
    321e:	c9 01       	movw	r24, r18
    3220:	da 01       	movw	r26, r20
    3222:	1c 01       	movw	r2, r24
    3224:	2d 01       	movw	r4, r26
    3226:	00 e0       	ldi	r16, 0x00	; 0
    3228:	20 16       	cp	r2, r16
    322a:	00 e0       	ldi	r16, 0x00	; 0
    322c:	30 06       	cpc	r3, r16
    322e:	01 e0       	ldi	r16, 0x01	; 1
    3230:	40 06       	cpc	r4, r16
    3232:	00 e0       	ldi	r16, 0x00	; 0
    3234:	50 06       	cpc	r5, r16
    3236:	88 f4       	brcc	.+34     	; 0x325a <__umoddi3+0x316>
    3238:	1f ef       	ldi	r17, 0xFF	; 255
    323a:	21 16       	cp	r2, r17
    323c:	31 04       	cpc	r3, r1
    323e:	41 04       	cpc	r4, r1
    3240:	51 04       	cpc	r5, r1
    3242:	39 f0       	breq	.+14     	; 0x3252 <__umoddi3+0x30e>
    3244:	30 f0       	brcs	.+12     	; 0x3252 <__umoddi3+0x30e>
    3246:	68 e0       	ldi	r22, 0x08	; 8
    3248:	e6 2e       	mov	r14, r22
    324a:	f1 2c       	mov	r15, r1
    324c:	01 2d       	mov	r16, r1
    324e:	11 2d       	mov	r17, r1
    3250:	18 c0       	rjmp	.+48     	; 0x3282 <__umoddi3+0x33e>
    3252:	ee 24       	eor	r14, r14
    3254:	ff 24       	eor	r15, r15
    3256:	87 01       	movw	r16, r14
    3258:	14 c0       	rjmp	.+40     	; 0x3282 <__umoddi3+0x33e>
    325a:	40 e0       	ldi	r20, 0x00	; 0
    325c:	24 16       	cp	r2, r20
    325e:	40 e0       	ldi	r20, 0x00	; 0
    3260:	34 06       	cpc	r3, r20
    3262:	40 e0       	ldi	r20, 0x00	; 0
    3264:	44 06       	cpc	r4, r20
    3266:	41 e0       	ldi	r20, 0x01	; 1
    3268:	54 06       	cpc	r5, r20
    326a:	30 f0       	brcs	.+12     	; 0x3278 <__umoddi3+0x334>
    326c:	58 e1       	ldi	r21, 0x18	; 24
    326e:	e5 2e       	mov	r14, r21
    3270:	f1 2c       	mov	r15, r1
    3272:	01 2d       	mov	r16, r1
    3274:	11 2d       	mov	r17, r1
    3276:	05 c0       	rjmp	.+10     	; 0x3282 <__umoddi3+0x33e>
    3278:	40 e1       	ldi	r20, 0x10	; 16
    327a:	e4 2e       	mov	r14, r20
    327c:	f1 2c       	mov	r15, r1
    327e:	01 2d       	mov	r16, r1
    3280:	11 2d       	mov	r17, r1
    3282:	d2 01       	movw	r26, r4
    3284:	c1 01       	movw	r24, r2
    3286:	0e 2c       	mov	r0, r14
    3288:	04 c0       	rjmp	.+8      	; 0x3292 <__umoddi3+0x34e>
    328a:	b6 95       	lsr	r27
    328c:	a7 95       	ror	r26
    328e:	97 95       	ror	r25
    3290:	87 95       	ror	r24
    3292:	0a 94       	dec	r0
    3294:	d2 f7       	brpl	.-12     	; 0x328a <__umoddi3+0x346>
    3296:	84 58       	subi	r24, 0x84	; 132
    3298:	9f 4f       	sbci	r25, 0xFF	; 255
    329a:	dc 01       	movw	r26, r24
    329c:	2c 91       	ld	r18, X
    329e:	30 e2       	ldi	r19, 0x20	; 32
    32a0:	a3 2e       	mov	r10, r19
    32a2:	b1 2c       	mov	r11, r1
    32a4:	c1 2c       	mov	r12, r1
    32a6:	d1 2c       	mov	r13, r1
    32a8:	d6 01       	movw	r26, r12
    32aa:	c5 01       	movw	r24, r10
    32ac:	8e 19       	sub	r24, r14
    32ae:	9f 09       	sbc	r25, r15
    32b0:	a0 0b       	sbc	r26, r16
    32b2:	b1 0b       	sbc	r27, r17
    32b4:	7c 01       	movw	r14, r24
    32b6:	8d 01       	movw	r16, r26
    32b8:	e2 1a       	sub	r14, r18
    32ba:	f1 08       	sbc	r15, r1
    32bc:	01 09       	sbc	r16, r1
    32be:	11 09       	sbc	r17, r1
    32c0:	e9 ae       	std	Y+57, r14	; 0x39
    32c2:	fa ae       	std	Y+58, r15	; 0x3a
    32c4:	0b af       	std	Y+59, r16	; 0x3b
    32c6:	1c af       	std	Y+60, r17	; 0x3c
    32c8:	e1 14       	cp	r14, r1
    32ca:	f1 04       	cpc	r15, r1
    32cc:	01 05       	cpc	r16, r1
    32ce:	11 05       	cpc	r17, r1
    32d0:	39 f4       	brne	.+14     	; 0x32e0 <__umoddi3+0x39c>
    32d2:	64 01       	movw	r12, r8
    32d4:	53 01       	movw	r10, r6
    32d6:	a2 18       	sub	r10, r2
    32d8:	b3 08       	sbc	r11, r3
    32da:	c4 08       	sbc	r12, r4
    32dc:	d5 08       	sbc	r13, r5
    32de:	e2 c0       	rjmp	.+452    	; 0x34a4 <__umoddi3+0x560>
    32e0:	f9 ac       	ldd	r15, Y+57	; 0x39
    32e2:	68 96       	adiw	r28, 0x18	; 24
    32e4:	ff ae       	std	Y+63, r15	; 0x3f
    32e6:	68 97       	sbiw	r28, 0x18	; 24
    32e8:	0f 2c       	mov	r0, r15
    32ea:	04 c0       	rjmp	.+8      	; 0x32f4 <__umoddi3+0x3b0>
    32ec:	22 0c       	add	r2, r2
    32ee:	33 1c       	adc	r3, r3
    32f0:	44 1c       	adc	r4, r4
    32f2:	55 1c       	adc	r5, r5
    32f4:	0a 94       	dec	r0
    32f6:	d2 f7       	brpl	.-12     	; 0x32ec <__umoddi3+0x3a8>
    32f8:	8a 2d       	mov	r24, r10
    32fa:	8f 19       	sub	r24, r15
    32fc:	64 01       	movw	r12, r8
    32fe:	53 01       	movw	r10, r6
    3300:	08 2e       	mov	r0, r24
    3302:	04 c0       	rjmp	.+8      	; 0x330c <__umoddi3+0x3c8>
    3304:	d6 94       	lsr	r13
    3306:	c7 94       	ror	r12
    3308:	b7 94       	ror	r11
    330a:	a7 94       	ror	r10
    330c:	0a 94       	dec	r0
    330e:	d2 f7       	brpl	.-12     	; 0x3304 <__umoddi3+0x3c0>
    3310:	a4 01       	movw	r20, r8
    3312:	93 01       	movw	r18, r6
    3314:	04 c0       	rjmp	.+8      	; 0x331e <__umoddi3+0x3da>
    3316:	22 0f       	add	r18, r18
    3318:	33 1f       	adc	r19, r19
    331a:	44 1f       	adc	r20, r20
    331c:	55 1f       	adc	r21, r21
    331e:	fa 94       	dec	r15
    3320:	d2 f7       	brpl	.-12     	; 0x3316 <__umoddi3+0x3d2>
    3322:	6c 96       	adiw	r28, 0x1c	; 28
    3324:	6c ac       	ldd	r6, Y+60	; 0x3c
    3326:	7d ac       	ldd	r7, Y+61	; 0x3d
    3328:	8e ac       	ldd	r8, Y+62	; 0x3e
    332a:	9f ac       	ldd	r9, Y+63	; 0x3f
    332c:	6c 97       	sbiw	r28, 0x1c	; 28
    332e:	04 c0       	rjmp	.+8      	; 0x3338 <__umoddi3+0x3f4>
    3330:	96 94       	lsr	r9
    3332:	87 94       	ror	r8
    3334:	77 94       	ror	r7
    3336:	67 94       	ror	r6
    3338:	8a 95       	dec	r24
    333a:	d2 f7       	brpl	.-12     	; 0x3330 <__umoddi3+0x3ec>
    333c:	84 01       	movw	r16, r8
    333e:	73 01       	movw	r14, r6
    3340:	e2 2a       	or	r14, r18
    3342:	f3 2a       	or	r15, r19
    3344:	04 2b       	or	r16, r20
    3346:	15 2b       	or	r17, r21
    3348:	ed a6       	std	Y+45, r14	; 0x2d
    334a:	fe a6       	std	Y+46, r15	; 0x2e
    334c:	0f a7       	std	Y+47, r16	; 0x2f
    334e:	18 ab       	std	Y+48, r17	; 0x30
    3350:	32 01       	movw	r6, r4
    3352:	88 24       	eor	r8, r8
    3354:	99 24       	eor	r9, r9
    3356:	b2 01       	movw	r22, r4
    3358:	a1 01       	movw	r20, r2
    335a:	60 70       	andi	r22, 0x00	; 0
    335c:	70 70       	andi	r23, 0x00	; 0
    335e:	25 96       	adiw	r28, 0x05	; 5
    3360:	4c af       	std	Y+60, r20	; 0x3c
    3362:	5d af       	std	Y+61, r21	; 0x3d
    3364:	6e af       	std	Y+62, r22	; 0x3e
    3366:	7f af       	std	Y+63, r23	; 0x3f
    3368:	25 97       	sbiw	r28, 0x05	; 5
    336a:	c6 01       	movw	r24, r12
    336c:	b5 01       	movw	r22, r10
    336e:	a4 01       	movw	r20, r8
    3370:	93 01       	movw	r18, r6
    3372:	0e 94 c9 2a 	call	0x5592	; 0x5592 <__udivmodsi4>
    3376:	7b 01       	movw	r14, r22
    3378:	8c 01       	movw	r16, r24
    337a:	c6 01       	movw	r24, r12
    337c:	b5 01       	movw	r22, r10
    337e:	a4 01       	movw	r20, r8
    3380:	93 01       	movw	r18, r6
    3382:	0e 94 c9 2a 	call	0x5592	; 0x5592 <__udivmodsi4>
    3386:	ca 01       	movw	r24, r20
    3388:	b9 01       	movw	r22, r18
    338a:	25 96       	adiw	r28, 0x05	; 5
    338c:	2c ad       	ldd	r18, Y+60	; 0x3c
    338e:	3d ad       	ldd	r19, Y+61	; 0x3d
    3390:	4e ad       	ldd	r20, Y+62	; 0x3e
    3392:	5f ad       	ldd	r21, Y+63	; 0x3f
    3394:	25 97       	sbiw	r28, 0x05	; 5
    3396:	0e 94 aa 2a 	call	0x5554	; 0x5554 <__mulsi3>
    339a:	9b 01       	movw	r18, r22
    339c:	ac 01       	movw	r20, r24
    339e:	87 01       	movw	r16, r14
    33a0:	ff 24       	eor	r15, r15
    33a2:	ee 24       	eor	r14, r14
    33a4:	ad a4       	ldd	r10, Y+45	; 0x2d
    33a6:	be a4       	ldd	r11, Y+46	; 0x2e
    33a8:	cf a4       	ldd	r12, Y+47	; 0x2f
    33aa:	d8 a8       	ldd	r13, Y+48	; 0x30
    33ac:	c6 01       	movw	r24, r12
    33ae:	aa 27       	eor	r26, r26
    33b0:	bb 27       	eor	r27, r27
    33b2:	5c 01       	movw	r10, r24
    33b4:	6d 01       	movw	r12, r26
    33b6:	ae 28       	or	r10, r14
    33b8:	bf 28       	or	r11, r15
    33ba:	c0 2a       	or	r12, r16
    33bc:	d1 2a       	or	r13, r17
    33be:	a2 16       	cp	r10, r18
    33c0:	b3 06       	cpc	r11, r19
    33c2:	c4 06       	cpc	r12, r20
    33c4:	d5 06       	cpc	r13, r21
    33c6:	90 f4       	brcc	.+36     	; 0x33ec <__umoddi3+0x4a8>
    33c8:	a2 0c       	add	r10, r2
    33ca:	b3 1c       	adc	r11, r3
    33cc:	c4 1c       	adc	r12, r4
    33ce:	d5 1c       	adc	r13, r5
    33d0:	a2 14       	cp	r10, r2
    33d2:	b3 04       	cpc	r11, r3
    33d4:	c4 04       	cpc	r12, r4
    33d6:	d5 04       	cpc	r13, r5
    33d8:	48 f0       	brcs	.+18     	; 0x33ec <__umoddi3+0x4a8>
    33da:	a2 16       	cp	r10, r18
    33dc:	b3 06       	cpc	r11, r19
    33de:	c4 06       	cpc	r12, r20
    33e0:	d5 06       	cpc	r13, r21
    33e2:	20 f4       	brcc	.+8      	; 0x33ec <__umoddi3+0x4a8>
    33e4:	a2 0c       	add	r10, r2
    33e6:	b3 1c       	adc	r11, r3
    33e8:	c4 1c       	adc	r12, r4
    33ea:	d5 1c       	adc	r13, r5
    33ec:	a2 1a       	sub	r10, r18
    33ee:	b3 0a       	sbc	r11, r19
    33f0:	c4 0a       	sbc	r12, r20
    33f2:	d5 0a       	sbc	r13, r21
    33f4:	c6 01       	movw	r24, r12
    33f6:	b5 01       	movw	r22, r10
    33f8:	a4 01       	movw	r20, r8
    33fa:	93 01       	movw	r18, r6
    33fc:	0e 94 c9 2a 	call	0x5592	; 0x5592 <__udivmodsi4>
    3400:	7b 01       	movw	r14, r22
    3402:	8c 01       	movw	r16, r24
    3404:	c6 01       	movw	r24, r12
    3406:	b5 01       	movw	r22, r10
    3408:	a4 01       	movw	r20, r8
    340a:	93 01       	movw	r18, r6
    340c:	0e 94 c9 2a 	call	0x5592	; 0x5592 <__udivmodsi4>
    3410:	ca 01       	movw	r24, r20
    3412:	b9 01       	movw	r22, r18
    3414:	25 96       	adiw	r28, 0x05	; 5
    3416:	2c ad       	ldd	r18, Y+60	; 0x3c
    3418:	3d ad       	ldd	r19, Y+61	; 0x3d
    341a:	4e ad       	ldd	r20, Y+62	; 0x3e
    341c:	5f ad       	ldd	r21, Y+63	; 0x3f
    341e:	25 97       	sbiw	r28, 0x05	; 5
    3420:	0e 94 aa 2a 	call	0x5554	; 0x5554 <__mulsi3>
    3424:	9b 01       	movw	r18, r22
    3426:	ac 01       	movw	r20, r24
    3428:	87 01       	movw	r16, r14
    342a:	ff 24       	eor	r15, r15
    342c:	ee 24       	eor	r14, r14
    342e:	8d a5       	ldd	r24, Y+45	; 0x2d
    3430:	9e a5       	ldd	r25, Y+46	; 0x2e
    3432:	af a5       	ldd	r26, Y+47	; 0x2f
    3434:	b8 a9       	ldd	r27, Y+48	; 0x30
    3436:	a0 70       	andi	r26, 0x00	; 0
    3438:	b0 70       	andi	r27, 0x00	; 0
    343a:	57 01       	movw	r10, r14
    343c:	68 01       	movw	r12, r16
    343e:	a8 2a       	or	r10, r24
    3440:	b9 2a       	or	r11, r25
    3442:	ca 2a       	or	r12, r26
    3444:	db 2a       	or	r13, r27
    3446:	a2 16       	cp	r10, r18
    3448:	b3 06       	cpc	r11, r19
    344a:	c4 06       	cpc	r12, r20
    344c:	d5 06       	cpc	r13, r21
    344e:	90 f4       	brcc	.+36     	; 0x3474 <__umoddi3+0x530>
    3450:	a2 0c       	add	r10, r2
    3452:	b3 1c       	adc	r11, r3
    3454:	c4 1c       	adc	r12, r4
    3456:	d5 1c       	adc	r13, r5
    3458:	a2 14       	cp	r10, r2
    345a:	b3 04       	cpc	r11, r3
    345c:	c4 04       	cpc	r12, r4
    345e:	d5 04       	cpc	r13, r5
    3460:	48 f0       	brcs	.+18     	; 0x3474 <__umoddi3+0x530>
    3462:	a2 16       	cp	r10, r18
    3464:	b3 06       	cpc	r11, r19
    3466:	c4 06       	cpc	r12, r20
    3468:	d5 06       	cpc	r13, r21
    346a:	20 f4       	brcc	.+8      	; 0x3474 <__umoddi3+0x530>
    346c:	a2 0c       	add	r10, r2
    346e:	b3 1c       	adc	r11, r3
    3470:	c4 1c       	adc	r12, r4
    3472:	d5 1c       	adc	r13, r5
    3474:	6c 96       	adiw	r28, 0x1c	; 28
    3476:	ec ac       	ldd	r14, Y+60	; 0x3c
    3478:	fd ac       	ldd	r15, Y+61	; 0x3d
    347a:	0e ad       	ldd	r16, Y+62	; 0x3e
    347c:	1f ad       	ldd	r17, Y+63	; 0x3f
    347e:	6c 97       	sbiw	r28, 0x1c	; 28
    3480:	68 96       	adiw	r28, 0x18	; 24
    3482:	0f ac       	ldd	r0, Y+63	; 0x3f
    3484:	68 97       	sbiw	r28, 0x18	; 24
    3486:	04 c0       	rjmp	.+8      	; 0x3490 <__umoddi3+0x54c>
    3488:	ee 0c       	add	r14, r14
    348a:	ff 1c       	adc	r15, r15
    348c:	00 1f       	adc	r16, r16
    348e:	11 1f       	adc	r17, r17
    3490:	0a 94       	dec	r0
    3492:	d2 f7       	brpl	.-12     	; 0x3488 <__umoddi3+0x544>
    3494:	e9 aa       	std	Y+49, r14	; 0x31
    3496:	fa aa       	std	Y+50, r15	; 0x32
    3498:	0b ab       	std	Y+51, r16	; 0x33
    349a:	1c ab       	std	Y+52, r17	; 0x34
    349c:	a2 1a       	sub	r10, r18
    349e:	b3 0a       	sbc	r11, r19
    34a0:	c4 0a       	sbc	r12, r20
    34a2:	d5 0a       	sbc	r13, r21
    34a4:	32 01       	movw	r6, r4
    34a6:	88 24       	eor	r8, r8
    34a8:	99 24       	eor	r9, r9
    34aa:	b2 01       	movw	r22, r4
    34ac:	a1 01       	movw	r20, r2
    34ae:	60 70       	andi	r22, 0x00	; 0
    34b0:	70 70       	andi	r23, 0x00	; 0
    34b2:	29 96       	adiw	r28, 0x09	; 9
    34b4:	4c af       	std	Y+60, r20	; 0x3c
    34b6:	5d af       	std	Y+61, r21	; 0x3d
    34b8:	6e af       	std	Y+62, r22	; 0x3e
    34ba:	7f af       	std	Y+63, r23	; 0x3f
    34bc:	29 97       	sbiw	r28, 0x09	; 9
    34be:	c6 01       	movw	r24, r12
    34c0:	b5 01       	movw	r22, r10
    34c2:	a4 01       	movw	r20, r8
    34c4:	93 01       	movw	r18, r6
    34c6:	0e 94 c9 2a 	call	0x5592	; 0x5592 <__udivmodsi4>
    34ca:	7b 01       	movw	r14, r22
    34cc:	8c 01       	movw	r16, r24
    34ce:	c6 01       	movw	r24, r12
    34d0:	b5 01       	movw	r22, r10
    34d2:	a4 01       	movw	r20, r8
    34d4:	93 01       	movw	r18, r6
    34d6:	0e 94 c9 2a 	call	0x5592	; 0x5592 <__udivmodsi4>
    34da:	ca 01       	movw	r24, r20
    34dc:	b9 01       	movw	r22, r18
    34de:	29 96       	adiw	r28, 0x09	; 9
    34e0:	2c ad       	ldd	r18, Y+60	; 0x3c
    34e2:	3d ad       	ldd	r19, Y+61	; 0x3d
    34e4:	4e ad       	ldd	r20, Y+62	; 0x3e
    34e6:	5f ad       	ldd	r21, Y+63	; 0x3f
    34e8:	29 97       	sbiw	r28, 0x09	; 9
    34ea:	0e 94 aa 2a 	call	0x5554	; 0x5554 <__mulsi3>
    34ee:	9b 01       	movw	r18, r22
    34f0:	ac 01       	movw	r20, r24
    34f2:	87 01       	movw	r16, r14
    34f4:	ff 24       	eor	r15, r15
    34f6:	ee 24       	eor	r14, r14
    34f8:	a9 a8       	ldd	r10, Y+49	; 0x31
    34fa:	ba a8       	ldd	r11, Y+50	; 0x32
    34fc:	cb a8       	ldd	r12, Y+51	; 0x33
    34fe:	dc a8       	ldd	r13, Y+52	; 0x34
    3500:	c6 01       	movw	r24, r12
    3502:	aa 27       	eor	r26, r26
    3504:	bb 27       	eor	r27, r27
    3506:	57 01       	movw	r10, r14
    3508:	68 01       	movw	r12, r16
    350a:	a8 2a       	or	r10, r24
    350c:	b9 2a       	or	r11, r25
    350e:	ca 2a       	or	r12, r26
    3510:	db 2a       	or	r13, r27
    3512:	a2 16       	cp	r10, r18
    3514:	b3 06       	cpc	r11, r19
    3516:	c4 06       	cpc	r12, r20
    3518:	d5 06       	cpc	r13, r21
    351a:	90 f4       	brcc	.+36     	; 0x3540 <__umoddi3+0x5fc>
    351c:	a2 0c       	add	r10, r2
    351e:	b3 1c       	adc	r11, r3
    3520:	c4 1c       	adc	r12, r4
    3522:	d5 1c       	adc	r13, r5
    3524:	a2 14       	cp	r10, r2
    3526:	b3 04       	cpc	r11, r3
    3528:	c4 04       	cpc	r12, r4
    352a:	d5 04       	cpc	r13, r5
    352c:	48 f0       	brcs	.+18     	; 0x3540 <__umoddi3+0x5fc>
    352e:	a2 16       	cp	r10, r18
    3530:	b3 06       	cpc	r11, r19
    3532:	c4 06       	cpc	r12, r20
    3534:	d5 06       	cpc	r13, r21
    3536:	20 f4       	brcc	.+8      	; 0x3540 <__umoddi3+0x5fc>
    3538:	a2 0c       	add	r10, r2
    353a:	b3 1c       	adc	r11, r3
    353c:	c4 1c       	adc	r12, r4
    353e:	d5 1c       	adc	r13, r5
    3540:	a2 1a       	sub	r10, r18
    3542:	b3 0a       	sbc	r11, r19
    3544:	c4 0a       	sbc	r12, r20
    3546:	d5 0a       	sbc	r13, r21
    3548:	c6 01       	movw	r24, r12
    354a:	b5 01       	movw	r22, r10
    354c:	a4 01       	movw	r20, r8
    354e:	93 01       	movw	r18, r6
    3550:	0e 94 c9 2a 	call	0x5592	; 0x5592 <__udivmodsi4>
    3554:	7b 01       	movw	r14, r22
    3556:	8c 01       	movw	r16, r24
    3558:	c6 01       	movw	r24, r12
    355a:	b5 01       	movw	r22, r10
    355c:	a4 01       	movw	r20, r8
    355e:	93 01       	movw	r18, r6
    3560:	0e 94 c9 2a 	call	0x5592	; 0x5592 <__udivmodsi4>
    3564:	ca 01       	movw	r24, r20
    3566:	b9 01       	movw	r22, r18
    3568:	29 96       	adiw	r28, 0x09	; 9
    356a:	2c ad       	ldd	r18, Y+60	; 0x3c
    356c:	3d ad       	ldd	r19, Y+61	; 0x3d
    356e:	4e ad       	ldd	r20, Y+62	; 0x3e
    3570:	5f ad       	ldd	r21, Y+63	; 0x3f
    3572:	29 97       	sbiw	r28, 0x09	; 9
    3574:	0e 94 aa 2a 	call	0x5554	; 0x5554 <__mulsi3>
    3578:	9b 01       	movw	r18, r22
    357a:	ac 01       	movw	r20, r24
    357c:	87 01       	movw	r16, r14
    357e:	ff 24       	eor	r15, r15
    3580:	ee 24       	eor	r14, r14
    3582:	89 a9       	ldd	r24, Y+49	; 0x31
    3584:	9a a9       	ldd	r25, Y+50	; 0x32
    3586:	ab a9       	ldd	r26, Y+51	; 0x33
    3588:	bc a9       	ldd	r27, Y+52	; 0x34
    358a:	a0 70       	andi	r26, 0x00	; 0
    358c:	b0 70       	andi	r27, 0x00	; 0
    358e:	e8 2a       	or	r14, r24
    3590:	f9 2a       	or	r15, r25
    3592:	0a 2b       	or	r16, r26
    3594:	1b 2b       	or	r17, r27
    3596:	e2 16       	cp	r14, r18
    3598:	f3 06       	cpc	r15, r19
    359a:	04 07       	cpc	r16, r20
    359c:	15 07       	cpc	r17, r21
    359e:	90 f4       	brcc	.+36     	; 0x35c4 <__umoddi3+0x680>
    35a0:	e2 0c       	add	r14, r2
    35a2:	f3 1c       	adc	r15, r3
    35a4:	04 1d       	adc	r16, r4
    35a6:	15 1d       	adc	r17, r5
    35a8:	e2 14       	cp	r14, r2
    35aa:	f3 04       	cpc	r15, r3
    35ac:	04 05       	cpc	r16, r4
    35ae:	15 05       	cpc	r17, r5
    35b0:	48 f0       	brcs	.+18     	; 0x35c4 <__umoddi3+0x680>
    35b2:	e2 16       	cp	r14, r18
    35b4:	f3 06       	cpc	r15, r19
    35b6:	04 07       	cpc	r16, r20
    35b8:	15 07       	cpc	r17, r21
    35ba:	20 f4       	brcc	.+8      	; 0x35c4 <__umoddi3+0x680>
    35bc:	e2 0c       	add	r14, r2
    35be:	f3 1c       	adc	r15, r3
    35c0:	04 1d       	adc	r16, r4
    35c2:	15 1d       	adc	r17, r5
    35c4:	e2 1a       	sub	r14, r18
    35c6:	f3 0a       	sbc	r15, r19
    35c8:	04 0b       	sbc	r16, r20
    35ca:	15 0b       	sbc	r17, r21
    35cc:	d8 01       	movw	r26, r16
    35ce:	c7 01       	movw	r24, r14
    35d0:	09 ac       	ldd	r0, Y+57	; 0x39
    35d2:	04 c0       	rjmp	.+8      	; 0x35dc <__umoddi3+0x698>
    35d4:	b6 95       	lsr	r27
    35d6:	a7 95       	ror	r26
    35d8:	97 95       	ror	r25
    35da:	87 95       	ror	r24
    35dc:	0a 94       	dec	r0
    35de:	d2 f7       	brpl	.-12     	; 0x35d4 <__umoddi3+0x690>
    35e0:	89 8b       	std	Y+17, r24	; 0x11
    35e2:	9a 8b       	std	Y+18, r25	; 0x12
    35e4:	ab 8b       	std	Y+19, r26	; 0x13
    35e6:	bc 8b       	std	Y+20, r27	; 0x14
    35e8:	1d 8a       	std	Y+21, r1	; 0x15
    35ea:	1e 8a       	std	Y+22, r1	; 0x16
    35ec:	1f 8a       	std	Y+23, r1	; 0x17
    35ee:	18 8e       	std	Y+24, r1	; 0x18
    35f0:	28 2f       	mov	r18, r24
    35f2:	3a 89       	ldd	r19, Y+18	; 0x12
    35f4:	4b 89       	ldd	r20, Y+19	; 0x13
    35f6:	5c 89       	ldd	r21, Y+20	; 0x14
    35f8:	6d 89       	ldd	r22, Y+21	; 0x15
    35fa:	0c c3       	rjmp	.+1560   	; 0x3c14 <__umoddi3+0xcd0>
    35fc:	6a 14       	cp	r6, r10
    35fe:	7b 04       	cpc	r7, r11
    3600:	8c 04       	cpc	r8, r12
    3602:	9d 04       	cpc	r9, r13
    3604:	08 f4       	brcc	.+2      	; 0x3608 <__umoddi3+0x6c4>
    3606:	09 c3       	rjmp	.+1554   	; 0x3c1a <__umoddi3+0xcd6>
    3608:	00 e0       	ldi	r16, 0x00	; 0
    360a:	a0 16       	cp	r10, r16
    360c:	00 e0       	ldi	r16, 0x00	; 0
    360e:	b0 06       	cpc	r11, r16
    3610:	01 e0       	ldi	r16, 0x01	; 1
    3612:	c0 06       	cpc	r12, r16
    3614:	00 e0       	ldi	r16, 0x00	; 0
    3616:	d0 06       	cpc	r13, r16
    3618:	88 f4       	brcc	.+34     	; 0x363c <__umoddi3+0x6f8>
    361a:	1f ef       	ldi	r17, 0xFF	; 255
    361c:	a1 16       	cp	r10, r17
    361e:	b1 04       	cpc	r11, r1
    3620:	c1 04       	cpc	r12, r1
    3622:	d1 04       	cpc	r13, r1
    3624:	39 f0       	breq	.+14     	; 0x3634 <__umoddi3+0x6f0>
    3626:	30 f0       	brcs	.+12     	; 0x3634 <__umoddi3+0x6f0>
    3628:	28 e0       	ldi	r18, 0x08	; 8
    362a:	e2 2e       	mov	r14, r18
    362c:	f1 2c       	mov	r15, r1
    362e:	01 2d       	mov	r16, r1
    3630:	11 2d       	mov	r17, r1
    3632:	18 c0       	rjmp	.+48     	; 0x3664 <__umoddi3+0x720>
    3634:	ee 24       	eor	r14, r14
    3636:	ff 24       	eor	r15, r15
    3638:	87 01       	movw	r16, r14
    363a:	14 c0       	rjmp	.+40     	; 0x3664 <__umoddi3+0x720>
    363c:	40 e0       	ldi	r20, 0x00	; 0
    363e:	a4 16       	cp	r10, r20
    3640:	40 e0       	ldi	r20, 0x00	; 0
    3642:	b4 06       	cpc	r11, r20
    3644:	40 e0       	ldi	r20, 0x00	; 0
    3646:	c4 06       	cpc	r12, r20
    3648:	41 e0       	ldi	r20, 0x01	; 1
    364a:	d4 06       	cpc	r13, r20
    364c:	30 f0       	brcs	.+12     	; 0x365a <__umoddi3+0x716>
    364e:	98 e1       	ldi	r25, 0x18	; 24
    3650:	e9 2e       	mov	r14, r25
    3652:	f1 2c       	mov	r15, r1
    3654:	01 2d       	mov	r16, r1
    3656:	11 2d       	mov	r17, r1
    3658:	05 c0       	rjmp	.+10     	; 0x3664 <__umoddi3+0x720>
    365a:	80 e1       	ldi	r24, 0x10	; 16
    365c:	e8 2e       	mov	r14, r24
    365e:	f1 2c       	mov	r15, r1
    3660:	01 2d       	mov	r16, r1
    3662:	11 2d       	mov	r17, r1
    3664:	d6 01       	movw	r26, r12
    3666:	c5 01       	movw	r24, r10
    3668:	0e 2c       	mov	r0, r14
    366a:	04 c0       	rjmp	.+8      	; 0x3674 <__umoddi3+0x730>
    366c:	b6 95       	lsr	r27
    366e:	a7 95       	ror	r26
    3670:	97 95       	ror	r25
    3672:	87 95       	ror	r24
    3674:	0a 94       	dec	r0
    3676:	d2 f7       	brpl	.-12     	; 0x366c <__umoddi3+0x728>
    3678:	84 58       	subi	r24, 0x84	; 132
    367a:	9f 4f       	sbci	r25, 0xFF	; 255
    367c:	dc 01       	movw	r26, r24
    367e:	2c 91       	ld	r18, X
    3680:	80 e2       	ldi	r24, 0x20	; 32
    3682:	90 e0       	ldi	r25, 0x00	; 0
    3684:	a0 e0       	ldi	r26, 0x00	; 0
    3686:	b0 e0       	ldi	r27, 0x00	; 0
    3688:	8e 19       	sub	r24, r14
    368a:	9f 09       	sbc	r25, r15
    368c:	a0 0b       	sbc	r26, r16
    368e:	b1 0b       	sbc	r27, r17
    3690:	82 1b       	sub	r24, r18
    3692:	91 09       	sbc	r25, r1
    3694:	a1 09       	sbc	r26, r1
    3696:	b1 09       	sbc	r27, r1
    3698:	00 97       	sbiw	r24, 0x00	; 0
    369a:	a1 05       	cpc	r26, r1
    369c:	b1 05       	cpc	r27, r1
    369e:	09 f0       	breq	.+2      	; 0x36a2 <__umoddi3+0x75e>
    36a0:	4f c0       	rjmp	.+158    	; 0x3740 <__umoddi3+0x7fc>
    36a2:	a6 14       	cp	r10, r6
    36a4:	b7 04       	cpc	r11, r7
    36a6:	c8 04       	cpc	r12, r8
    36a8:	d9 04       	cpc	r13, r9
    36aa:	58 f0       	brcs	.+22     	; 0x36c2 <__umoddi3+0x77e>
    36ac:	6c 96       	adiw	r28, 0x1c	; 28
    36ae:	ec ac       	ldd	r14, Y+60	; 0x3c
    36b0:	fd ac       	ldd	r15, Y+61	; 0x3d
    36b2:	0e ad       	ldd	r16, Y+62	; 0x3e
    36b4:	1f ad       	ldd	r17, Y+63	; 0x3f
    36b6:	6c 97       	sbiw	r28, 0x1c	; 28
    36b8:	e2 14       	cp	r14, r2
    36ba:	f3 04       	cpc	r15, r3
    36bc:	04 05       	cpc	r16, r4
    36be:	15 05       	cpc	r17, r5
    36c0:	68 f1       	brcs	.+90     	; 0x371c <__umoddi3+0x7d8>
    36c2:	6c 96       	adiw	r28, 0x1c	; 28
    36c4:	ec ac       	ldd	r14, Y+60	; 0x3c
    36c6:	fd ac       	ldd	r15, Y+61	; 0x3d
    36c8:	0e ad       	ldd	r16, Y+62	; 0x3e
    36ca:	1f ad       	ldd	r17, Y+63	; 0x3f
    36cc:	6c 97       	sbiw	r28, 0x1c	; 28
    36ce:	e2 18       	sub	r14, r2
    36d0:	f3 08       	sbc	r15, r3
    36d2:	04 09       	sbc	r16, r4
    36d4:	15 09       	sbc	r17, r5
    36d6:	a4 01       	movw	r20, r8
    36d8:	93 01       	movw	r18, r6
    36da:	2a 19       	sub	r18, r10
    36dc:	3b 09       	sbc	r19, r11
    36de:	4c 09       	sbc	r20, r12
    36e0:	5d 09       	sbc	r21, r13
    36e2:	aa 24       	eor	r10, r10
    36e4:	bb 24       	eor	r11, r11
    36e6:	65 01       	movw	r12, r10
    36e8:	6c 96       	adiw	r28, 0x1c	; 28
    36ea:	6c ad       	ldd	r22, Y+60	; 0x3c
    36ec:	7d ad       	ldd	r23, Y+61	; 0x3d
    36ee:	8e ad       	ldd	r24, Y+62	; 0x3e
    36f0:	9f ad       	ldd	r25, Y+63	; 0x3f
    36f2:	6c 97       	sbiw	r28, 0x1c	; 28
    36f4:	6e 15       	cp	r22, r14
    36f6:	7f 05       	cpc	r23, r15
    36f8:	80 07       	cpc	r24, r16
    36fa:	91 07       	cpc	r25, r17
    36fc:	28 f4       	brcc	.+10     	; 0x3708 <__umoddi3+0x7c4>
    36fe:	b1 e0       	ldi	r27, 0x01	; 1
    3700:	ab 2e       	mov	r10, r27
    3702:	b1 2c       	mov	r11, r1
    3704:	c1 2c       	mov	r12, r1
    3706:	d1 2c       	mov	r13, r1
    3708:	da 01       	movw	r26, r20
    370a:	c9 01       	movw	r24, r18
    370c:	8a 19       	sub	r24, r10
    370e:	9b 09       	sbc	r25, r11
    3710:	ac 09       	sbc	r26, r12
    3712:	bd 09       	sbc	r27, r13
    3714:	8d ab       	std	Y+53, r24	; 0x35
    3716:	9e ab       	std	Y+54, r25	; 0x36
    3718:	af ab       	std	Y+55, r26	; 0x37
    371a:	b8 af       	std	Y+56, r27	; 0x38
    371c:	e9 8a       	std	Y+17, r14	; 0x11
    371e:	fa 8a       	std	Y+18, r15	; 0x12
    3720:	0b 8b       	std	Y+19, r16	; 0x13
    3722:	1c 8b       	std	Y+20, r17	; 0x14
    3724:	6d a8       	ldd	r6, Y+53	; 0x35
    3726:	7e a8       	ldd	r7, Y+54	; 0x36
    3728:	8f a8       	ldd	r8, Y+55	; 0x37
    372a:	98 ac       	ldd	r9, Y+56	; 0x38
    372c:	6d 8a       	std	Y+21, r6	; 0x15
    372e:	7e 8a       	std	Y+22, r7	; 0x16
    3730:	8f 8a       	std	Y+23, r8	; 0x17
    3732:	98 8e       	std	Y+24, r9	; 0x18
    3734:	2e 2d       	mov	r18, r14
    3736:	3a 89       	ldd	r19, Y+18	; 0x12
    3738:	4b 89       	ldd	r20, Y+19	; 0x13
    373a:	5c 89       	ldd	r21, Y+20	; 0x14
    373c:	6d a9       	ldd	r22, Y+53	; 0x35
    373e:	6a c2       	rjmp	.+1236   	; 0x3c14 <__umoddi3+0xcd0>
    3740:	67 96       	adiw	r28, 0x17	; 23
    3742:	8f af       	std	Y+63, r24	; 0x3f
    3744:	67 97       	sbiw	r28, 0x17	; 23
    3746:	a6 01       	movw	r20, r12
    3748:	95 01       	movw	r18, r10
    374a:	08 2e       	mov	r0, r24
    374c:	04 c0       	rjmp	.+8      	; 0x3756 <__umoddi3+0x812>
    374e:	22 0f       	add	r18, r18
    3750:	33 1f       	adc	r19, r19
    3752:	44 1f       	adc	r20, r20
    3754:	55 1f       	adc	r21, r21
    3756:	0a 94       	dec	r0
    3758:	d2 f7       	brpl	.-12     	; 0x374e <__umoddi3+0x80a>
    375a:	a0 e2       	ldi	r26, 0x20	; 32
    375c:	aa 2e       	mov	r10, r26
    375e:	a8 1a       	sub	r10, r24
    3760:	66 96       	adiw	r28, 0x16	; 22
    3762:	af ae       	std	Y+63, r10	; 0x3f
    3764:	66 97       	sbiw	r28, 0x16	; 22
    3766:	d2 01       	movw	r26, r4
    3768:	c1 01       	movw	r24, r2
    376a:	04 c0       	rjmp	.+8      	; 0x3774 <__umoddi3+0x830>
    376c:	b6 95       	lsr	r27
    376e:	a7 95       	ror	r26
    3770:	97 95       	ror	r25
    3772:	87 95       	ror	r24
    3774:	aa 94       	dec	r10
    3776:	d2 f7       	brpl	.-12     	; 0x376c <__umoddi3+0x828>
    3778:	6c 01       	movw	r12, r24
    377a:	7d 01       	movw	r14, r26
    377c:	c2 2a       	or	r12, r18
    377e:	d3 2a       	or	r13, r19
    3780:	e4 2a       	or	r14, r20
    3782:	f5 2a       	or	r15, r21
    3784:	c9 a6       	std	Y+41, r12	; 0x29
    3786:	da a6       	std	Y+42, r13	; 0x2a
    3788:	eb a6       	std	Y+43, r14	; 0x2b
    378a:	fc a6       	std	Y+44, r15	; 0x2c
    378c:	82 01       	movw	r16, r4
    378e:	71 01       	movw	r14, r2
    3790:	67 96       	adiw	r28, 0x17	; 23
    3792:	0f ac       	ldd	r0, Y+63	; 0x3f
    3794:	67 97       	sbiw	r28, 0x17	; 23
    3796:	04 c0       	rjmp	.+8      	; 0x37a0 <__umoddi3+0x85c>
    3798:	ee 0c       	add	r14, r14
    379a:	ff 1c       	adc	r15, r15
    379c:	00 1f       	adc	r16, r16
    379e:	11 1f       	adc	r17, r17
    37a0:	0a 94       	dec	r0
    37a2:	d2 f7       	brpl	.-12     	; 0x3798 <__umoddi3+0x854>
    37a4:	ed a2       	std	Y+37, r14	; 0x25
    37a6:	fe a2       	std	Y+38, r15	; 0x26
    37a8:	0f a3       	std	Y+39, r16	; 0x27
    37aa:	18 a7       	std	Y+40, r17	; 0x28
    37ac:	64 01       	movw	r12, r8
    37ae:	53 01       	movw	r10, r6
    37b0:	66 96       	adiw	r28, 0x16	; 22
    37b2:	0f ac       	ldd	r0, Y+63	; 0x3f
    37b4:	66 97       	sbiw	r28, 0x16	; 22
    37b6:	04 c0       	rjmp	.+8      	; 0x37c0 <__umoddi3+0x87c>
    37b8:	d6 94       	lsr	r13
    37ba:	c7 94       	ror	r12
    37bc:	b7 94       	ror	r11
    37be:	a7 94       	ror	r10
    37c0:	0a 94       	dec	r0
    37c2:	d2 f7       	brpl	.-12     	; 0x37b8 <__umoddi3+0x874>
    37c4:	a4 01       	movw	r20, r8
    37c6:	93 01       	movw	r18, r6
    37c8:	67 96       	adiw	r28, 0x17	; 23
    37ca:	0f ac       	ldd	r0, Y+63	; 0x3f
    37cc:	67 97       	sbiw	r28, 0x17	; 23
    37ce:	04 c0       	rjmp	.+8      	; 0x37d8 <__umoddi3+0x894>
    37d0:	22 0f       	add	r18, r18
    37d2:	33 1f       	adc	r19, r19
    37d4:	44 1f       	adc	r20, r20
    37d6:	55 1f       	adc	r21, r21
    37d8:	0a 94       	dec	r0
    37da:	d2 f7       	brpl	.-12     	; 0x37d0 <__umoddi3+0x88c>
    37dc:	6c 96       	adiw	r28, 0x1c	; 28
    37de:	8c ad       	ldd	r24, Y+60	; 0x3c
    37e0:	9d ad       	ldd	r25, Y+61	; 0x3d
    37e2:	ae ad       	ldd	r26, Y+62	; 0x3e
    37e4:	bf ad       	ldd	r27, Y+63	; 0x3f
    37e6:	6c 97       	sbiw	r28, 0x1c	; 28
    37e8:	66 96       	adiw	r28, 0x16	; 22
    37ea:	0f ac       	ldd	r0, Y+63	; 0x3f
    37ec:	66 97       	sbiw	r28, 0x16	; 22
    37ee:	04 c0       	rjmp	.+8      	; 0x37f8 <__umoddi3+0x8b4>
    37f0:	b6 95       	lsr	r27
    37f2:	a7 95       	ror	r26
    37f4:	97 95       	ror	r25
    37f6:	87 95       	ror	r24
    37f8:	0a 94       	dec	r0
    37fa:	d2 f7       	brpl	.-12     	; 0x37f0 <__umoddi3+0x8ac>
    37fc:	3c 01       	movw	r6, r24
    37fe:	4d 01       	movw	r8, r26
    3800:	62 2a       	or	r6, r18
    3802:	73 2a       	or	r7, r19
    3804:	84 2a       	or	r8, r20
    3806:	95 2a       	or	r9, r21
    3808:	69 a2       	std	Y+33, r6	; 0x21
    380a:	7a a2       	std	Y+34, r7	; 0x22
    380c:	8b a2       	std	Y+35, r8	; 0x23
    380e:	9c a2       	std	Y+36, r9	; 0x24
    3810:	6c 96       	adiw	r28, 0x1c	; 28
    3812:	ec ac       	ldd	r14, Y+60	; 0x3c
    3814:	fd ac       	ldd	r15, Y+61	; 0x3d
    3816:	0e ad       	ldd	r16, Y+62	; 0x3e
    3818:	1f ad       	ldd	r17, Y+63	; 0x3f
    381a:	6c 97       	sbiw	r28, 0x1c	; 28
    381c:	67 96       	adiw	r28, 0x17	; 23
    381e:	0f ac       	ldd	r0, Y+63	; 0x3f
    3820:	67 97       	sbiw	r28, 0x17	; 23
    3822:	04 c0       	rjmp	.+8      	; 0x382c <__umoddi3+0x8e8>
    3824:	ee 0c       	add	r14, r14
    3826:	ff 1c       	adc	r15, r15
    3828:	00 1f       	adc	r16, r16
    382a:	11 1f       	adc	r17, r17
    382c:	0a 94       	dec	r0
    382e:	d2 f7       	brpl	.-12     	; 0x3824 <__umoddi3+0x8e0>
    3830:	ed 8e       	std	Y+29, r14	; 0x1d
    3832:	fe 8e       	std	Y+30, r15	; 0x1e
    3834:	0f 8f       	std	Y+31, r16	; 0x1f
    3836:	18 a3       	std	Y+32, r17	; 0x20
    3838:	49 a5       	ldd	r20, Y+41	; 0x29
    383a:	5a a5       	ldd	r21, Y+42	; 0x2a
    383c:	6b a5       	ldd	r22, Y+43	; 0x2b
    383e:	7c a5       	ldd	r23, Y+44	; 0x2c
    3840:	3b 01       	movw	r6, r22
    3842:	88 24       	eor	r8, r8
    3844:	99 24       	eor	r9, r9
    3846:	60 70       	andi	r22, 0x00	; 0
    3848:	70 70       	andi	r23, 0x00	; 0
    384a:	2d 96       	adiw	r28, 0x0d	; 13
    384c:	4c af       	std	Y+60, r20	; 0x3c
    384e:	5d af       	std	Y+61, r21	; 0x3d
    3850:	6e af       	std	Y+62, r22	; 0x3e
    3852:	7f af       	std	Y+63, r23	; 0x3f
    3854:	2d 97       	sbiw	r28, 0x0d	; 13
    3856:	c6 01       	movw	r24, r12
    3858:	b5 01       	movw	r22, r10
    385a:	a4 01       	movw	r20, r8
    385c:	93 01       	movw	r18, r6
    385e:	0e 94 c9 2a 	call	0x5592	; 0x5592 <__udivmodsi4>
    3862:	7b 01       	movw	r14, r22
    3864:	8c 01       	movw	r16, r24
    3866:	c6 01       	movw	r24, r12
    3868:	b5 01       	movw	r22, r10
    386a:	a4 01       	movw	r20, r8
    386c:	93 01       	movw	r18, r6
    386e:	0e 94 c9 2a 	call	0x5592	; 0x5592 <__udivmodsi4>
    3872:	c9 01       	movw	r24, r18
    3874:	da 01       	movw	r26, r20
    3876:	1c 01       	movw	r2, r24
    3878:	2d 01       	movw	r4, r26
    387a:	c2 01       	movw	r24, r4
    387c:	b1 01       	movw	r22, r2
    387e:	2d 96       	adiw	r28, 0x0d	; 13
    3880:	2c ad       	ldd	r18, Y+60	; 0x3c
    3882:	3d ad       	ldd	r19, Y+61	; 0x3d
    3884:	4e ad       	ldd	r20, Y+62	; 0x3e
    3886:	5f ad       	ldd	r21, Y+63	; 0x3f
    3888:	2d 97       	sbiw	r28, 0x0d	; 13
    388a:	0e 94 aa 2a 	call	0x5554	; 0x5554 <__mulsi3>
    388e:	9b 01       	movw	r18, r22
    3890:	ac 01       	movw	r20, r24
    3892:	87 01       	movw	r16, r14
    3894:	ff 24       	eor	r15, r15
    3896:	ee 24       	eor	r14, r14
    3898:	a9 a0       	ldd	r10, Y+33	; 0x21
    389a:	ba a0       	ldd	r11, Y+34	; 0x22
    389c:	cb a0       	ldd	r12, Y+35	; 0x23
    389e:	dc a0       	ldd	r13, Y+36	; 0x24
    38a0:	c6 01       	movw	r24, r12
    38a2:	aa 27       	eor	r26, r26
    38a4:	bb 27       	eor	r27, r27
    38a6:	57 01       	movw	r10, r14
    38a8:	68 01       	movw	r12, r16
    38aa:	a8 2a       	or	r10, r24
    38ac:	b9 2a       	or	r11, r25
    38ae:	ca 2a       	or	r12, r26
    38b0:	db 2a       	or	r13, r27
    38b2:	a2 16       	cp	r10, r18
    38b4:	b3 06       	cpc	r11, r19
    38b6:	c4 06       	cpc	r12, r20
    38b8:	d5 06       	cpc	r13, r21
    38ba:	00 f5       	brcc	.+64     	; 0x38fc <__umoddi3+0x9b8>
    38bc:	08 94       	sec
    38be:	21 08       	sbc	r2, r1
    38c0:	31 08       	sbc	r3, r1
    38c2:	41 08       	sbc	r4, r1
    38c4:	51 08       	sbc	r5, r1
    38c6:	e9 a4       	ldd	r14, Y+41	; 0x29
    38c8:	fa a4       	ldd	r15, Y+42	; 0x2a
    38ca:	0b a5       	ldd	r16, Y+43	; 0x2b
    38cc:	1c a5       	ldd	r17, Y+44	; 0x2c
    38ce:	ae 0c       	add	r10, r14
    38d0:	bf 1c       	adc	r11, r15
    38d2:	c0 1e       	adc	r12, r16
    38d4:	d1 1e       	adc	r13, r17
    38d6:	ae 14       	cp	r10, r14
    38d8:	bf 04       	cpc	r11, r15
    38da:	c0 06       	cpc	r12, r16
    38dc:	d1 06       	cpc	r13, r17
    38de:	70 f0       	brcs	.+28     	; 0x38fc <__umoddi3+0x9b8>
    38e0:	a2 16       	cp	r10, r18
    38e2:	b3 06       	cpc	r11, r19
    38e4:	c4 06       	cpc	r12, r20
    38e6:	d5 06       	cpc	r13, r21
    38e8:	48 f4       	brcc	.+18     	; 0x38fc <__umoddi3+0x9b8>
    38ea:	08 94       	sec
    38ec:	21 08       	sbc	r2, r1
    38ee:	31 08       	sbc	r3, r1
    38f0:	41 08       	sbc	r4, r1
    38f2:	51 08       	sbc	r5, r1
    38f4:	ae 0c       	add	r10, r14
    38f6:	bf 1c       	adc	r11, r15
    38f8:	c0 1e       	adc	r12, r16
    38fa:	d1 1e       	adc	r13, r17
    38fc:	a2 1a       	sub	r10, r18
    38fe:	b3 0a       	sbc	r11, r19
    3900:	c4 0a       	sbc	r12, r20
    3902:	d5 0a       	sbc	r13, r21
    3904:	c6 01       	movw	r24, r12
    3906:	b5 01       	movw	r22, r10
    3908:	a4 01       	movw	r20, r8
    390a:	93 01       	movw	r18, r6
    390c:	0e 94 c9 2a 	call	0x5592	; 0x5592 <__udivmodsi4>
    3910:	7b 01       	movw	r14, r22
    3912:	8c 01       	movw	r16, r24
    3914:	c6 01       	movw	r24, r12
    3916:	b5 01       	movw	r22, r10
    3918:	a4 01       	movw	r20, r8
    391a:	93 01       	movw	r18, r6
    391c:	0e 94 c9 2a 	call	0x5592	; 0x5592 <__udivmodsi4>
    3920:	c9 01       	movw	r24, r18
    3922:	da 01       	movw	r26, r20
    3924:	3c 01       	movw	r6, r24
    3926:	4d 01       	movw	r8, r26
    3928:	c4 01       	movw	r24, r8
    392a:	b3 01       	movw	r22, r6
    392c:	2d 96       	adiw	r28, 0x0d	; 13
    392e:	2c ad       	ldd	r18, Y+60	; 0x3c
    3930:	3d ad       	ldd	r19, Y+61	; 0x3d
    3932:	4e ad       	ldd	r20, Y+62	; 0x3e
    3934:	5f ad       	ldd	r21, Y+63	; 0x3f
    3936:	2d 97       	sbiw	r28, 0x0d	; 13
    3938:	0e 94 aa 2a 	call	0x5554	; 0x5554 <__mulsi3>
    393c:	9b 01       	movw	r18, r22
    393e:	ac 01       	movw	r20, r24
    3940:	87 01       	movw	r16, r14
    3942:	ff 24       	eor	r15, r15
    3944:	ee 24       	eor	r14, r14
    3946:	89 a1       	ldd	r24, Y+33	; 0x21
    3948:	9a a1       	ldd	r25, Y+34	; 0x22
    394a:	ab a1       	ldd	r26, Y+35	; 0x23
    394c:	bc a1       	ldd	r27, Y+36	; 0x24
    394e:	a0 70       	andi	r26, 0x00	; 0
    3950:	b0 70       	andi	r27, 0x00	; 0
    3952:	57 01       	movw	r10, r14
    3954:	68 01       	movw	r12, r16
    3956:	a8 2a       	or	r10, r24
    3958:	b9 2a       	or	r11, r25
    395a:	ca 2a       	or	r12, r26
    395c:	db 2a       	or	r13, r27
    395e:	a2 16       	cp	r10, r18
    3960:	b3 06       	cpc	r11, r19
    3962:	c4 06       	cpc	r12, r20
    3964:	d5 06       	cpc	r13, r21
    3966:	00 f5       	brcc	.+64     	; 0x39a8 <__umoddi3+0xa64>
    3968:	08 94       	sec
    396a:	61 08       	sbc	r6, r1
    396c:	71 08       	sbc	r7, r1
    396e:	81 08       	sbc	r8, r1
    3970:	91 08       	sbc	r9, r1
    3972:	69 a5       	ldd	r22, Y+41	; 0x29
    3974:	7a a5       	ldd	r23, Y+42	; 0x2a
    3976:	8b a5       	ldd	r24, Y+43	; 0x2b
    3978:	9c a5       	ldd	r25, Y+44	; 0x2c
    397a:	a6 0e       	add	r10, r22
    397c:	b7 1e       	adc	r11, r23
    397e:	c8 1e       	adc	r12, r24
    3980:	d9 1e       	adc	r13, r25
    3982:	a6 16       	cp	r10, r22
    3984:	b7 06       	cpc	r11, r23
    3986:	c8 06       	cpc	r12, r24
    3988:	d9 06       	cpc	r13, r25
    398a:	70 f0       	brcs	.+28     	; 0x39a8 <__umoddi3+0xa64>
    398c:	a2 16       	cp	r10, r18
    398e:	b3 06       	cpc	r11, r19
    3990:	c4 06       	cpc	r12, r20
    3992:	d5 06       	cpc	r13, r21
    3994:	48 f4       	brcc	.+18     	; 0x39a8 <__umoddi3+0xa64>
    3996:	08 94       	sec
    3998:	61 08       	sbc	r6, r1
    399a:	71 08       	sbc	r7, r1
    399c:	81 08       	sbc	r8, r1
    399e:	91 08       	sbc	r9, r1
    39a0:	a6 0e       	add	r10, r22
    39a2:	b7 1e       	adc	r11, r23
    39a4:	c8 1e       	adc	r12, r24
    39a6:	d9 1e       	adc	r13, r25
    39a8:	d6 01       	movw	r26, r12
    39aa:	c5 01       	movw	r24, r10
    39ac:	82 1b       	sub	r24, r18
    39ae:	93 0b       	sbc	r25, r19
    39b0:	a4 0b       	sbc	r26, r20
    39b2:	b5 0b       	sbc	r27, r21
    39b4:	89 8f       	std	Y+25, r24	; 0x19
    39b6:	9a 8f       	std	Y+26, r25	; 0x1a
    39b8:	ab 8f       	std	Y+27, r26	; 0x1b
    39ba:	bc 8f       	std	Y+28, r27	; 0x1c
    39bc:	d1 01       	movw	r26, r2
    39be:	99 27       	eor	r25, r25
    39c0:	88 27       	eor	r24, r24
    39c2:	84 01       	movw	r16, r8
    39c4:	73 01       	movw	r14, r6
    39c6:	e8 2a       	or	r14, r24
    39c8:	f9 2a       	or	r15, r25
    39ca:	0a 2b       	or	r16, r26
    39cc:	1b 2b       	or	r17, r27
    39ce:	4f ef       	ldi	r20, 0xFF	; 255
    39d0:	a4 2e       	mov	r10, r20
    39d2:	4f ef       	ldi	r20, 0xFF	; 255
    39d4:	b4 2e       	mov	r11, r20
    39d6:	c1 2c       	mov	r12, r1
    39d8:	d1 2c       	mov	r13, r1
    39da:	ae 20       	and	r10, r14
    39dc:	bf 20       	and	r11, r15
    39de:	c0 22       	and	r12, r16
    39e0:	d1 22       	and	r13, r17
    39e2:	78 01       	movw	r14, r16
    39e4:	00 27       	eor	r16, r16
    39e6:	11 27       	eor	r17, r17
    39e8:	6d a0       	ldd	r6, Y+37	; 0x25
    39ea:	7e a0       	ldd	r7, Y+38	; 0x26
    39ec:	8f a0       	ldd	r8, Y+39	; 0x27
    39ee:	98 a4       	ldd	r9, Y+40	; 0x28
    39f0:	4f ef       	ldi	r20, 0xFF	; 255
    39f2:	5f ef       	ldi	r21, 0xFF	; 255
    39f4:	60 e0       	ldi	r22, 0x00	; 0
    39f6:	70 e0       	ldi	r23, 0x00	; 0
    39f8:	64 22       	and	r6, r20
    39fa:	75 22       	and	r7, r21
    39fc:	86 22       	and	r8, r22
    39fe:	97 22       	and	r9, r23
    3a00:	8d a1       	ldd	r24, Y+37	; 0x25
    3a02:	9e a1       	ldd	r25, Y+38	; 0x26
    3a04:	af a1       	ldd	r26, Y+39	; 0x27
    3a06:	b8 a5       	ldd	r27, Y+40	; 0x28
    3a08:	bd 01       	movw	r22, r26
    3a0a:	88 27       	eor	r24, r24
    3a0c:	99 27       	eor	r25, r25
    3a0e:	65 96       	adiw	r28, 0x15	; 21
    3a10:	6c af       	std	Y+60, r22	; 0x3c
    3a12:	7d af       	std	Y+61, r23	; 0x3d
    3a14:	8e af       	std	Y+62, r24	; 0x3e
    3a16:	9f af       	std	Y+63, r25	; 0x3f
    3a18:	65 97       	sbiw	r28, 0x15	; 21
    3a1a:	c6 01       	movw	r24, r12
    3a1c:	b5 01       	movw	r22, r10
    3a1e:	a4 01       	movw	r20, r8
    3a20:	93 01       	movw	r18, r6
    3a22:	0e 94 aa 2a 	call	0x5554	; 0x5554 <__mulsi3>
    3a26:	61 96       	adiw	r28, 0x11	; 17
    3a28:	6c af       	std	Y+60, r22	; 0x3c
    3a2a:	7d af       	std	Y+61, r23	; 0x3d
    3a2c:	8e af       	std	Y+62, r24	; 0x3e
    3a2e:	9f af       	std	Y+63, r25	; 0x3f
    3a30:	61 97       	sbiw	r28, 0x11	; 17
    3a32:	c6 01       	movw	r24, r12
    3a34:	b5 01       	movw	r22, r10
    3a36:	65 96       	adiw	r28, 0x15	; 21
    3a38:	2c ad       	ldd	r18, Y+60	; 0x3c
    3a3a:	3d ad       	ldd	r19, Y+61	; 0x3d
    3a3c:	4e ad       	ldd	r20, Y+62	; 0x3e
    3a3e:	5f ad       	ldd	r21, Y+63	; 0x3f
    3a40:	65 97       	sbiw	r28, 0x15	; 21
    3a42:	0e 94 aa 2a 	call	0x5554	; 0x5554 <__mulsi3>
    3a46:	1b 01       	movw	r2, r22
    3a48:	2c 01       	movw	r4, r24
    3a4a:	c8 01       	movw	r24, r16
    3a4c:	b7 01       	movw	r22, r14
    3a4e:	a4 01       	movw	r20, r8
    3a50:	93 01       	movw	r18, r6
    3a52:	0e 94 aa 2a 	call	0x5554	; 0x5554 <__mulsi3>
    3a56:	5b 01       	movw	r10, r22
    3a58:	6c 01       	movw	r12, r24
    3a5a:	c8 01       	movw	r24, r16
    3a5c:	b7 01       	movw	r22, r14
    3a5e:	65 96       	adiw	r28, 0x15	; 21
    3a60:	2c ad       	ldd	r18, Y+60	; 0x3c
    3a62:	3d ad       	ldd	r19, Y+61	; 0x3d
    3a64:	4e ad       	ldd	r20, Y+62	; 0x3e
    3a66:	5f ad       	ldd	r21, Y+63	; 0x3f
    3a68:	65 97       	sbiw	r28, 0x15	; 21
    3a6a:	0e 94 aa 2a 	call	0x5554	; 0x5554 <__mulsi3>
    3a6e:	7b 01       	movw	r14, r22
    3a70:	8c 01       	movw	r16, r24
    3a72:	a6 01       	movw	r20, r12
    3a74:	95 01       	movw	r18, r10
    3a76:	22 0d       	add	r18, r2
    3a78:	33 1d       	adc	r19, r3
    3a7a:	44 1d       	adc	r20, r4
    3a7c:	55 1d       	adc	r21, r5
    3a7e:	61 96       	adiw	r28, 0x11	; 17
    3a80:	6c ac       	ldd	r6, Y+60	; 0x3c
    3a82:	7d ac       	ldd	r7, Y+61	; 0x3d
    3a84:	8e ac       	ldd	r8, Y+62	; 0x3e
    3a86:	9f ac       	ldd	r9, Y+63	; 0x3f
    3a88:	61 97       	sbiw	r28, 0x11	; 17
    3a8a:	c4 01       	movw	r24, r8
    3a8c:	aa 27       	eor	r26, r26
    3a8e:	bb 27       	eor	r27, r27
    3a90:	28 0f       	add	r18, r24
    3a92:	39 1f       	adc	r19, r25
    3a94:	4a 1f       	adc	r20, r26
    3a96:	5b 1f       	adc	r21, r27
    3a98:	2a 15       	cp	r18, r10
    3a9a:	3b 05       	cpc	r19, r11
    3a9c:	4c 05       	cpc	r20, r12
    3a9e:	5d 05       	cpc	r21, r13
    3aa0:	48 f4       	brcc	.+18     	; 0x3ab4 <__umoddi3+0xb70>
    3aa2:	81 2c       	mov	r8, r1
    3aa4:	91 2c       	mov	r9, r1
    3aa6:	e1 e0       	ldi	r30, 0x01	; 1
    3aa8:	ae 2e       	mov	r10, r30
    3aaa:	b1 2c       	mov	r11, r1
    3aac:	e8 0c       	add	r14, r8
    3aae:	f9 1c       	adc	r15, r9
    3ab0:	0a 1d       	adc	r16, r10
    3ab2:	1b 1d       	adc	r17, r11
    3ab4:	ca 01       	movw	r24, r20
    3ab6:	aa 27       	eor	r26, r26
    3ab8:	bb 27       	eor	r27, r27
    3aba:	57 01       	movw	r10, r14
    3abc:	68 01       	movw	r12, r16
    3abe:	a8 0e       	add	r10, r24
    3ac0:	b9 1e       	adc	r11, r25
    3ac2:	ca 1e       	adc	r12, r26
    3ac4:	db 1e       	adc	r13, r27
    3ac6:	a9 01       	movw	r20, r18
    3ac8:	33 27       	eor	r19, r19
    3aca:	22 27       	eor	r18, r18
    3acc:	61 96       	adiw	r28, 0x11	; 17
    3ace:	8c ad       	ldd	r24, Y+60	; 0x3c
    3ad0:	9d ad       	ldd	r25, Y+61	; 0x3d
    3ad2:	ae ad       	ldd	r26, Y+62	; 0x3e
    3ad4:	bf ad       	ldd	r27, Y+63	; 0x3f
    3ad6:	61 97       	sbiw	r28, 0x11	; 17
    3ad8:	a0 70       	andi	r26, 0x00	; 0
    3ada:	b0 70       	andi	r27, 0x00	; 0
    3adc:	28 0f       	add	r18, r24
    3ade:	39 1f       	adc	r19, r25
    3ae0:	4a 1f       	adc	r20, r26
    3ae2:	5b 1f       	adc	r21, r27
    3ae4:	e9 8c       	ldd	r14, Y+25	; 0x19
    3ae6:	fa 8c       	ldd	r15, Y+26	; 0x1a
    3ae8:	0b 8d       	ldd	r16, Y+27	; 0x1b
    3aea:	1c 8d       	ldd	r17, Y+28	; 0x1c
    3aec:	ea 14       	cp	r14, r10
    3aee:	fb 04       	cpc	r15, r11
    3af0:	0c 05       	cpc	r16, r12
    3af2:	1d 05       	cpc	r17, r13
    3af4:	70 f0       	brcs	.+28     	; 0x3b12 <__umoddi3+0xbce>
    3af6:	ae 14       	cp	r10, r14
    3af8:	bf 04       	cpc	r11, r15
    3afa:	c0 06       	cpc	r12, r16
    3afc:	d1 06       	cpc	r13, r17
    3afe:	69 f5       	brne	.+90     	; 0x3b5a <__umoddi3+0xc16>
    3b00:	6d 8d       	ldd	r22, Y+29	; 0x1d
    3b02:	7e 8d       	ldd	r23, Y+30	; 0x1e
    3b04:	8f 8d       	ldd	r24, Y+31	; 0x1f
    3b06:	98 a1       	ldd	r25, Y+32	; 0x20
    3b08:	62 17       	cp	r22, r18
    3b0a:	73 07       	cpc	r23, r19
    3b0c:	84 07       	cpc	r24, r20
    3b0e:	95 07       	cpc	r25, r21
    3b10:	20 f5       	brcc	.+72     	; 0x3b5a <__umoddi3+0xc16>
    3b12:	da 01       	movw	r26, r20
    3b14:	c9 01       	movw	r24, r18
    3b16:	6d a0       	ldd	r6, Y+37	; 0x25
    3b18:	7e a0       	ldd	r7, Y+38	; 0x26
    3b1a:	8f a0       	ldd	r8, Y+39	; 0x27
    3b1c:	98 a4       	ldd	r9, Y+40	; 0x28
    3b1e:	86 19       	sub	r24, r6
    3b20:	97 09       	sbc	r25, r7
    3b22:	a8 09       	sbc	r26, r8
    3b24:	b9 09       	sbc	r27, r9
    3b26:	e9 a4       	ldd	r14, Y+41	; 0x29
    3b28:	fa a4       	ldd	r15, Y+42	; 0x2a
    3b2a:	0b a5       	ldd	r16, Y+43	; 0x2b
    3b2c:	1c a5       	ldd	r17, Y+44	; 0x2c
    3b2e:	ae 18       	sub	r10, r14
    3b30:	bf 08       	sbc	r11, r15
    3b32:	c0 0a       	sbc	r12, r16
    3b34:	d1 0a       	sbc	r13, r17
    3b36:	ee 24       	eor	r14, r14
    3b38:	ff 24       	eor	r15, r15
    3b3a:	87 01       	movw	r16, r14
    3b3c:	28 17       	cp	r18, r24
    3b3e:	39 07       	cpc	r19, r25
    3b40:	4a 07       	cpc	r20, r26
    3b42:	5b 07       	cpc	r21, r27
    3b44:	28 f4       	brcc	.+10     	; 0x3b50 <__umoddi3+0xc0c>
    3b46:	21 e0       	ldi	r18, 0x01	; 1
    3b48:	e2 2e       	mov	r14, r18
    3b4a:	f1 2c       	mov	r15, r1
    3b4c:	01 2d       	mov	r16, r1
    3b4e:	11 2d       	mov	r17, r1
    3b50:	ae 18       	sub	r10, r14
    3b52:	bf 08       	sbc	r11, r15
    3b54:	c0 0a       	sbc	r12, r16
    3b56:	d1 0a       	sbc	r13, r17
    3b58:	02 c0       	rjmp	.+4      	; 0x3b5e <__umoddi3+0xc1a>
    3b5a:	da 01       	movw	r26, r20
    3b5c:	c9 01       	movw	r24, r18
    3b5e:	6d 8c       	ldd	r6, Y+29	; 0x1d
    3b60:	7e 8c       	ldd	r7, Y+30	; 0x1e
    3b62:	8f 8c       	ldd	r8, Y+31	; 0x1f
    3b64:	98 a0       	ldd	r9, Y+32	; 0x20
    3b66:	68 1a       	sub	r6, r24
    3b68:	79 0a       	sbc	r7, r25
    3b6a:	8a 0a       	sbc	r8, r26
    3b6c:	9b 0a       	sbc	r9, r27
    3b6e:	49 8d       	ldd	r20, Y+25	; 0x19
    3b70:	5a 8d       	ldd	r21, Y+26	; 0x1a
    3b72:	6b 8d       	ldd	r22, Y+27	; 0x1b
    3b74:	7c 8d       	ldd	r23, Y+28	; 0x1c
    3b76:	4a 19       	sub	r20, r10
    3b78:	5b 09       	sbc	r21, r11
    3b7a:	6c 09       	sbc	r22, r12
    3b7c:	7d 09       	sbc	r23, r13
    3b7e:	5a 01       	movw	r10, r20
    3b80:	6b 01       	movw	r12, r22
    3b82:	22 24       	eor	r2, r2
    3b84:	33 24       	eor	r3, r3
    3b86:	21 01       	movw	r4, r2
    3b88:	6d 8d       	ldd	r22, Y+29	; 0x1d
    3b8a:	7e 8d       	ldd	r23, Y+30	; 0x1e
    3b8c:	8f 8d       	ldd	r24, Y+31	; 0x1f
    3b8e:	98 a1       	ldd	r25, Y+32	; 0x20
    3b90:	66 15       	cp	r22, r6
    3b92:	77 05       	cpc	r23, r7
    3b94:	88 05       	cpc	r24, r8
    3b96:	99 05       	cpc	r25, r9
    3b98:	28 f4       	brcc	.+10     	; 0x3ba4 <__umoddi3+0xc60>
    3b9a:	81 e0       	ldi	r24, 0x01	; 1
    3b9c:	28 2e       	mov	r2, r24
    3b9e:	31 2c       	mov	r3, r1
    3ba0:	41 2c       	mov	r4, r1
    3ba2:	51 2c       	mov	r5, r1
    3ba4:	86 01       	movw	r16, r12
    3ba6:	75 01       	movw	r14, r10
    3ba8:	e2 18       	sub	r14, r2
    3baa:	f3 08       	sbc	r15, r3
    3bac:	04 09       	sbc	r16, r4
    3bae:	15 09       	sbc	r17, r5
    3bb0:	a8 01       	movw	r20, r16
    3bb2:	97 01       	movw	r18, r14
    3bb4:	66 96       	adiw	r28, 0x16	; 22
    3bb6:	0f ac       	ldd	r0, Y+63	; 0x3f
    3bb8:	66 97       	sbiw	r28, 0x16	; 22
    3bba:	04 c0       	rjmp	.+8      	; 0x3bc4 <__umoddi3+0xc80>
    3bbc:	22 0f       	add	r18, r18
    3bbe:	33 1f       	adc	r19, r19
    3bc0:	44 1f       	adc	r20, r20
    3bc2:	55 1f       	adc	r21, r21
    3bc4:	0a 94       	dec	r0
    3bc6:	d2 f7       	brpl	.-12     	; 0x3bbc <__umoddi3+0xc78>
    3bc8:	d4 01       	movw	r26, r8
    3bca:	c3 01       	movw	r24, r6
    3bcc:	67 96       	adiw	r28, 0x17	; 23
    3bce:	0f ac       	ldd	r0, Y+63	; 0x3f
    3bd0:	67 97       	sbiw	r28, 0x17	; 23
    3bd2:	04 c0       	rjmp	.+8      	; 0x3bdc <__umoddi3+0xc98>
    3bd4:	b6 95       	lsr	r27
    3bd6:	a7 95       	ror	r26
    3bd8:	97 95       	ror	r25
    3bda:	87 95       	ror	r24
    3bdc:	0a 94       	dec	r0
    3bde:	d2 f7       	brpl	.-12     	; 0x3bd4 <__umoddi3+0xc90>
    3be0:	28 2b       	or	r18, r24
    3be2:	39 2b       	or	r19, r25
    3be4:	4a 2b       	or	r20, r26
    3be6:	5b 2b       	or	r21, r27
    3be8:	29 8b       	std	Y+17, r18	; 0x11
    3bea:	3a 8b       	std	Y+18, r19	; 0x12
    3bec:	4b 8b       	std	Y+19, r20	; 0x13
    3bee:	5c 8b       	std	Y+20, r21	; 0x14
    3bf0:	67 96       	adiw	r28, 0x17	; 23
    3bf2:	0f ac       	ldd	r0, Y+63	; 0x3f
    3bf4:	67 97       	sbiw	r28, 0x17	; 23
    3bf6:	04 c0       	rjmp	.+8      	; 0x3c00 <__umoddi3+0xcbc>
    3bf8:	16 95       	lsr	r17
    3bfa:	07 95       	ror	r16
    3bfc:	f7 94       	ror	r15
    3bfe:	e7 94       	ror	r14
    3c00:	0a 94       	dec	r0
    3c02:	d2 f7       	brpl	.-12     	; 0x3bf8 <__umoddi3+0xcb4>
    3c04:	ed 8a       	std	Y+21, r14	; 0x15
    3c06:	fe 8a       	std	Y+22, r15	; 0x16
    3c08:	0f 8b       	std	Y+23, r16	; 0x17
    3c0a:	18 8f       	std	Y+24, r17	; 0x18
    3c0c:	3a 89       	ldd	r19, Y+18	; 0x12
    3c0e:	4b 89       	ldd	r20, Y+19	; 0x13
    3c10:	5c 89       	ldd	r21, Y+20	; 0x14
    3c12:	6e 2d       	mov	r22, r14
    3c14:	7e 89       	ldd	r23, Y+22	; 0x16
    3c16:	8f 89       	ldd	r24, Y+23	; 0x17
    3c18:	98 8d       	ldd	r25, Y+24	; 0x18
    3c1a:	c5 5a       	subi	r28, 0xA5	; 165
    3c1c:	df 4f       	sbci	r29, 0xFF	; 255
    3c1e:	e2 e1       	ldi	r30, 0x12	; 18
    3c20:	0c 94 07 2b 	jmp	0x560e	; 0x560e <__epilogue_restores__>

00003c24 <PWM_Measure_HW>:
}

/**********************************************Measure PWM HW*********************************************************/

void PWM_Measure_HW(u32* Pfreq,u8* Pduty)
{
    3c24:	cf 92       	push	r12
    3c26:	df 92       	push	r13
    3c28:	ef 92       	push	r14
    3c2a:	ff 92       	push	r15
    3c2c:	0f 93       	push	r16
    3c2e:	1f 93       	push	r17
    3c30:	cf 93       	push	r28
    3c32:	df 93       	push	r29
    3c34:	ec 01       	movw	r28, r24
    3c36:	6b 01       	movw	r12, r22
	DIO_Enu_SetPinDirection(DIO_u8PORTD,DIO_u8PIN6,DIO_u8INPUT);
    3c38:	83 e0       	ldi	r24, 0x03	; 3
    3c3a:	66 e0       	ldi	r22, 0x06	; 6
    3c3c:	40 e0       	ldi	r20, 0x00	; 0
    3c3e:	0e 94 ed 28 	call	0x51da	; 0x51da <DIO_Enu_SetPinDirection>
	TIMER1_voidInit();
    3c42:	0e 94 5b 25 	call	0x4ab6	; 0x4ab6 <TIMER1_voidInit>
	TIMER_voidICUEnableInterrupt();
    3c46:	0e 94 04 26 	call	0x4c08	; 0x4c08 <TIMER_voidICUEnableInterrupt>
	TIMER_u8SetCallBack(Func_ICU_HW,TIMER1_ICU_VECTOR_ID);
    3c4a:	88 e6       	ldi	r24, 0x68	; 104
    3c4c:	9e e1       	ldi	r25, 0x1E	; 30
    3c4e:	66 e0       	ldi	r22, 0x06	; 6
    3c50:	0e 94 58 26 	call	0x4cb0	; 0x4cb0 <TIMER_u8SetCallBack>
	TIMER_voidICUSetTriggerEdge(ICP_RAISING_EDGE);
    3c54:	81 e0       	ldi	r24, 0x01	; 1
    3c56:	0e 94 f4 25 	call	0x4be8	; 0x4be8 <TIMER_voidICUSetTriggerEdge>
	TIMER1_voidSetPreload(0);
    3c5a:	80 e0       	ldi	r24, 0x00	; 0
    3c5c:	90 e0       	ldi	r25, 0x00	; 0
    3c5e:	0e 94 8d 25 	call	0x4b1a	; 0x4b1a <TIMER1_voidSetPreload>
	while(period==0);
    3c62:	80 91 9c 01 	lds	r24, 0x019C
    3c66:	90 91 9d 01 	lds	r25, 0x019D
    3c6a:	89 2b       	or	r24, r25
    3c6c:	d1 f3       	breq	.-12     	; 0x3c62 <PWM_Measure_HW+0x3e>
	*Pfreq=(u32)(1000000UL/(u32)period);
    3c6e:	20 91 9c 01 	lds	r18, 0x019C
    3c72:	30 91 9d 01 	lds	r19, 0x019D
    3c76:	40 e0       	ldi	r20, 0x00	; 0
    3c78:	50 e0       	ldi	r21, 0x00	; 0
    3c7a:	60 e4       	ldi	r22, 0x40	; 64
    3c7c:	72 e4       	ldi	r23, 0x42	; 66
    3c7e:	8f e0       	ldi	r24, 0x0F	; 15
    3c80:	90 e0       	ldi	r25, 0x00	; 0
    3c82:	0e 94 c9 2a 	call	0x5592	; 0x5592 <__udivmodsi4>
    3c86:	28 83       	st	Y, r18
    3c88:	39 83       	std	Y+1, r19	; 0x01
    3c8a:	4a 83       	std	Y+2, r20	; 0x02
    3c8c:	5b 83       	std	Y+3, r21	; 0x03
	*Pduty=(u8)(((u32)t_on*100UL)/(u32)period);
    3c8e:	60 91 9e 01 	lds	r22, 0x019E
    3c92:	70 91 9f 01 	lds	r23, 0x019F
    3c96:	e0 90 9c 01 	lds	r14, 0x019C
    3c9a:	f0 90 9d 01 	lds	r15, 0x019D
    3c9e:	80 e0       	ldi	r24, 0x00	; 0
    3ca0:	90 e0       	ldi	r25, 0x00	; 0
    3ca2:	24 e6       	ldi	r18, 0x64	; 100
    3ca4:	30 e0       	ldi	r19, 0x00	; 0
    3ca6:	40 e0       	ldi	r20, 0x00	; 0
    3ca8:	50 e0       	ldi	r21, 0x00	; 0
    3caa:	0e 94 aa 2a 	call	0x5554	; 0x5554 <__mulsi3>
    3cae:	00 e0       	ldi	r16, 0x00	; 0
    3cb0:	10 e0       	ldi	r17, 0x00	; 0
    3cb2:	a8 01       	movw	r20, r16
    3cb4:	97 01       	movw	r18, r14
    3cb6:	0e 94 c9 2a 	call	0x5592	; 0x5592 <__udivmodsi4>
    3cba:	f6 01       	movw	r30, r12
    3cbc:	20 83       	st	Z, r18

}
    3cbe:	df 91       	pop	r29
    3cc0:	cf 91       	pop	r28
    3cc2:	1f 91       	pop	r17
    3cc4:	0f 91       	pop	r16
    3cc6:	ff 90       	pop	r15
    3cc8:	ef 90       	pop	r14
    3cca:	df 90       	pop	r13
    3ccc:	cf 90       	pop	r12
    3cce:	08 95       	ret

00003cd0 <Func_ICU_HW>:
	static u8 state = FASTICU_FIRST_RISING;
	static u16 point_1 = 0;
	static u16 point_2 = 0;
	static u16 point_3 = 0;

	switch(state)
    3cd0:	80 91 a6 01 	lds	r24, 0x01A6
    3cd4:	81 30       	cpi	r24, 0x01	; 1
    3cd6:	81 f0       	breq	.+32     	; 0x3cf8 <Func_ICU_HW+0x28>
    3cd8:	81 30       	cpi	r24, 0x01	; 1
    3cda:	18 f0       	brcs	.+6      	; 0x3ce2 <Func_ICU_HW+0x12>
    3cdc:	82 30       	cpi	r24, 0x02	; 2
    3cde:	e1 f5       	brne	.+120    	; 0x3d58 <Func_ICU_HW+0x88>
    3ce0:	18 c0       	rjmp	.+48     	; 0x3d12 <Func_ICU_HW+0x42>
	{
	case FASTICU_FIRST_RISING:
		point_1 = TIMER_u16GetICR();
    3ce2:	0e 94 44 26 	call	0x4c88	; 0x4c88 <TIMER_u16GetICR>
    3ce6:	90 93 a5 01 	sts	0x01A5, r25
    3cea:	80 93 a4 01 	sts	0x01A4, r24
		TIMER_voidICUSetTriggerEdge(ICP_FALLING_EDGE);
    3cee:	80 e0       	ldi	r24, 0x00	; 0
    3cf0:	0e 94 f4 25 	call	0x4be8	; 0x4be8 <TIMER_voidICUSetTriggerEdge>
		state = FASTICU_FALLING;
    3cf4:	81 e0       	ldi	r24, 0x01	; 1
    3cf6:	0a c0       	rjmp	.+20     	; 0x3d0c <Func_ICU_HW+0x3c>
		break;
	case FASTICU_FALLING:
		point_2 = TIMER_u16GetICR();
    3cf8:	0e 94 44 26 	call	0x4c88	; 0x4c88 <TIMER_u16GetICR>
    3cfc:	90 93 a3 01 	sts	0x01A3, r25
    3d00:	80 93 a2 01 	sts	0x01A2, r24
		TIMER_voidICUSetTriggerEdge(ICP_RAISING_EDGE);
    3d04:	81 e0       	ldi	r24, 0x01	; 1
    3d06:	0e 94 f4 25 	call	0x4be8	; 0x4be8 <TIMER_voidICUSetTriggerEdge>
		state = FASTICU_SECOND_RISING;
    3d0a:	82 e0       	ldi	r24, 0x02	; 2
    3d0c:	80 93 a6 01 	sts	0x01A6, r24
    3d10:	08 95       	ret
		break;
	case FASTICU_SECOND_RISING:
		point_3 = TIMER_u16GetICR();
    3d12:	0e 94 44 26 	call	0x4c88	; 0x4c88 <TIMER_u16GetICR>
    3d16:	90 93 a1 01 	sts	0x01A1, r25
    3d1a:	80 93 a0 01 	sts	0x01A0, r24
		TIMER_voidICUSetTriggerEdge(ICP_RAISING_EDGE);
    3d1e:	81 e0       	ldi	r24, 0x01	; 1
    3d20:	0e 94 f4 25 	call	0x4be8	; 0x4be8 <TIMER_voidICUSetTriggerEdge>
		state = FASTICU_FIRST_RISING;
    3d24:	10 92 a6 01 	sts	0x01A6, r1
		t_on =   point_2 - point_1;
    3d28:	80 91 a4 01 	lds	r24, 0x01A4
    3d2c:	90 91 a5 01 	lds	r25, 0x01A5
    3d30:	20 91 a2 01 	lds	r18, 0x01A2
    3d34:	30 91 a3 01 	lds	r19, 0x01A3
    3d38:	28 1b       	sub	r18, r24
    3d3a:	39 0b       	sbc	r19, r25
    3d3c:	30 93 9f 01 	sts	0x019F, r19
    3d40:	20 93 9e 01 	sts	0x019E, r18
		period = point_3 - point_1;
    3d44:	20 91 a0 01 	lds	r18, 0x01A0
    3d48:	30 91 a1 01 	lds	r19, 0x01A1
    3d4c:	28 1b       	sub	r18, r24
    3d4e:	39 0b       	sbc	r19, r25
    3d50:	30 93 9d 01 	sts	0x019D, r19
    3d54:	20 93 9c 01 	sts	0x019C, r18
    3d58:	08 95       	ret

00003d5a <PWM_Measure2>:
		break;
	}
}

void PWM_Measure2(u32* Pfreq,u8* Pduty)
{
    3d5a:	6f 92       	push	r6
    3d5c:	7f 92       	push	r7
    3d5e:	8f 92       	push	r8
    3d60:	9f 92       	push	r9
    3d62:	af 92       	push	r10
    3d64:	bf 92       	push	r11
    3d66:	cf 92       	push	r12
    3d68:	df 92       	push	r13
    3d6a:	ef 92       	push	r14
    3d6c:	ff 92       	push	r15
    3d6e:	0f 93       	push	r16
    3d70:	1f 93       	push	r17
    3d72:	df 93       	push	r29
    3d74:	cf 93       	push	r28
    3d76:	0f 92       	push	r0
    3d78:	cd b7       	in	r28, 0x3d	; 61
    3d7a:	de b7       	in	r29, 0x3e	; 62
    3d7c:	3c 01       	movw	r6, r24
    3d7e:	4b 01       	movw	r8, r22
	u8 signal;
	TIMER1_voidInit();
    3d80:	0e 94 5b 25 	call	0x4ab6	; 0x4ab6 <TIMER1_voidInit>
	TIMER1_voidSetPreload(0);
    3d84:	80 e0       	ldi	r24, 0x00	; 0
    3d86:	90 e0       	ldi	r25, 0x00	; 0
    3d88:	0e 94 8d 25 	call	0x4b1a	; 0x4b1a <TIMER1_voidSetPreload>
	do{
	DIO_Enu_GetPinValue(SIGNAL_PORT,SIGNAL_PIN,&signal);
    3d8c:	8e 01       	movw	r16, r28
    3d8e:	0f 5f       	subi	r16, 0xFF	; 255
    3d90:	1f 4f       	sbci	r17, 0xFF	; 255
    3d92:	83 e0       	ldi	r24, 0x03	; 3
    3d94:	66 e0       	ldi	r22, 0x06	; 6
    3d96:	a8 01       	movw	r20, r16
    3d98:	0e 94 3b 2a 	call	0x5476	; 0x5476 <DIO_Enu_GetPinValue>
	}while(signal!=0);
    3d9c:	89 81       	ldd	r24, Y+1	; 0x01
    3d9e:	88 23       	and	r24, r24
    3da0:	c1 f7       	brne	.-16     	; 0x3d92 <PWM_Measure2+0x38>
	do{
	DIO_Enu_GetPinValue(SIGNAL_PORT,SIGNAL_PIN,&signal);
    3da2:	8e 01       	movw	r16, r28
    3da4:	0f 5f       	subi	r16, 0xFF	; 255
    3da6:	1f 4f       	sbci	r17, 0xFF	; 255
    3da8:	83 e0       	ldi	r24, 0x03	; 3
    3daa:	66 e0       	ldi	r22, 0x06	; 6
    3dac:	a8 01       	movw	r20, r16
    3dae:	0e 94 3b 2a 	call	0x5476	; 0x5476 <DIO_Enu_GetPinValue>
	}while(signal!=1);
    3db2:	89 81       	ldd	r24, Y+1	; 0x01
    3db4:	81 30       	cpi	r24, 0x01	; 1
    3db6:	c1 f7       	brne	.-16     	; 0x3da8 <PWM_Measure2+0x4e>
	TIMER1_voidSetPreload(0);
    3db8:	80 e0       	ldi	r24, 0x00	; 0
    3dba:	90 e0       	ldi	r25, 0x00	; 0
    3dbc:	0e 94 8d 25 	call	0x4b1a	; 0x4b1a <TIMER1_voidSetPreload>
	do{
	DIO_Enu_GetPinValue(SIGNAL_PORT,SIGNAL_PIN,&signal);
    3dc0:	8e 01       	movw	r16, r28
    3dc2:	0f 5f       	subi	r16, 0xFF	; 255
    3dc4:	1f 4f       	sbci	r17, 0xFF	; 255
    3dc6:	83 e0       	ldi	r24, 0x03	; 3
    3dc8:	66 e0       	ldi	r22, 0x06	; 6
    3dca:	a8 01       	movw	r20, r16
    3dcc:	0e 94 3b 2a 	call	0x5476	; 0x5476 <DIO_Enu_GetPinValue>
	}while(signal==1);
    3dd0:	89 81       	ldd	r24, Y+1	; 0x01
    3dd2:	81 30       	cpi	r24, 0x01	; 1
    3dd4:	c1 f3       	breq	.-16     	; 0x3dc6 <PWM_Measure2+0x6c>
	Ton=TIMER1_u16GetTimerCounterValue();
    3dd6:	0e 94 a1 25 	call	0x4b42	; 0x4b42 <TIMER1_u16GetTimerCounterValue>
    3dda:	90 93 a8 01 	sts	0x01A8, r25
    3dde:	80 93 a7 01 	sts	0x01A7, r24
	TIMER1_voidSetPreload(0);
    3de2:	80 e0       	ldi	r24, 0x00	; 0
    3de4:	90 e0       	ldi	r25, 0x00	; 0
    3de6:	0e 94 8d 25 	call	0x4b1a	; 0x4b1a <TIMER1_voidSetPreload>
	do{
	DIO_Enu_GetPinValue(SIGNAL_PORT,SIGNAL_PIN,&signal);
    3dea:	8e 01       	movw	r16, r28
    3dec:	0f 5f       	subi	r16, 0xFF	; 255
    3dee:	1f 4f       	sbci	r17, 0xFF	; 255
    3df0:	83 e0       	ldi	r24, 0x03	; 3
    3df2:	66 e0       	ldi	r22, 0x06	; 6
    3df4:	a8 01       	movw	r20, r16
    3df6:	0e 94 3b 2a 	call	0x5476	; 0x5476 <DIO_Enu_GetPinValue>
	}while(signal!=1);
    3dfa:	89 81       	ldd	r24, Y+1	; 0x01
    3dfc:	81 30       	cpi	r24, 0x01	; 1
    3dfe:	c1 f7       	brne	.-16     	; 0x3df0 <PWM_Measure2+0x96>
	Toff=TIMER1_u16GetTimerCounterValue();
    3e00:	0e 94 a1 25 	call	0x4b42	; 0x4b42 <TIMER1_u16GetTimerCounterValue>
    3e04:	90 93 aa 01 	sts	0x01AA, r25
    3e08:	80 93 a9 01 	sts	0x01A9, r24
	*Pduty=(u8)(((u32)Ton*100UL)/((u32)Ton+Toff));
    3e0c:	60 91 a7 01 	lds	r22, 0x01A7
    3e10:	70 91 a8 01 	lds	r23, 0x01A8
    3e14:	a0 90 a7 01 	lds	r10, 0x01A7
    3e18:	b0 90 a8 01 	lds	r11, 0x01A8
    3e1c:	e0 90 a9 01 	lds	r14, 0x01A9
    3e20:	f0 90 aa 01 	lds	r15, 0x01AA
    3e24:	80 e0       	ldi	r24, 0x00	; 0
    3e26:	90 e0       	ldi	r25, 0x00	; 0
    3e28:	24 e6       	ldi	r18, 0x64	; 100
    3e2a:	30 e0       	ldi	r19, 0x00	; 0
    3e2c:	40 e0       	ldi	r20, 0x00	; 0
    3e2e:	50 e0       	ldi	r21, 0x00	; 0
    3e30:	0e 94 aa 2a 	call	0x5554	; 0x5554 <__mulsi3>
    3e34:	00 e0       	ldi	r16, 0x00	; 0
    3e36:	10 e0       	ldi	r17, 0x00	; 0
    3e38:	cc 24       	eor	r12, r12
    3e3a:	dd 24       	eor	r13, r13
    3e3c:	ea 0c       	add	r14, r10
    3e3e:	fb 1c       	adc	r15, r11
    3e40:	0c 1d       	adc	r16, r12
    3e42:	1d 1d       	adc	r17, r13
    3e44:	a8 01       	movw	r20, r16
    3e46:	97 01       	movw	r18, r14
    3e48:	0e 94 c9 2a 	call	0x5592	; 0x5592 <__udivmodsi4>
    3e4c:	f4 01       	movw	r30, r8
    3e4e:	20 83       	st	Z, r18
	*Pfreq=(u32)(1000000UL/((u32)Toff+Ton));
    3e50:	80 91 a9 01 	lds	r24, 0x01A9
    3e54:	90 91 aa 01 	lds	r25, 0x01AA
    3e58:	20 91 a7 01 	lds	r18, 0x01A7
    3e5c:	30 91 a8 01 	lds	r19, 0x01A8
    3e60:	40 e0       	ldi	r20, 0x00	; 0
    3e62:	50 e0       	ldi	r21, 0x00	; 0
    3e64:	a0 e0       	ldi	r26, 0x00	; 0
    3e66:	b0 e0       	ldi	r27, 0x00	; 0
    3e68:	28 0f       	add	r18, r24
    3e6a:	39 1f       	adc	r19, r25
    3e6c:	4a 1f       	adc	r20, r26
    3e6e:	5b 1f       	adc	r21, r27
    3e70:	60 e4       	ldi	r22, 0x40	; 64
    3e72:	72 e4       	ldi	r23, 0x42	; 66
    3e74:	8f e0       	ldi	r24, 0x0F	; 15
    3e76:	90 e0       	ldi	r25, 0x00	; 0
    3e78:	0e 94 c9 2a 	call	0x5592	; 0x5592 <__udivmodsi4>
    3e7c:	f3 01       	movw	r30, r6
    3e7e:	20 83       	st	Z, r18
    3e80:	31 83       	std	Z+1, r19	; 0x01
    3e82:	42 83       	std	Z+2, r20	; 0x02
    3e84:	53 83       	std	Z+3, r21	; 0x03
}
    3e86:	0f 90       	pop	r0
    3e88:	cf 91       	pop	r28
    3e8a:	df 91       	pop	r29
    3e8c:	1f 91       	pop	r17
    3e8e:	0f 91       	pop	r16
    3e90:	ff 90       	pop	r15
    3e92:	ef 90       	pop	r14
    3e94:	df 90       	pop	r13
    3e96:	cf 90       	pop	r12
    3e98:	bf 90       	pop	r11
    3e9a:	af 90       	pop	r10
    3e9c:	9f 90       	pop	r9
    3e9e:	8f 90       	pop	r8
    3ea0:	7f 90       	pop	r7
    3ea2:	6f 90       	pop	r6
    3ea4:	08 95       	ret

00003ea6 <EXTI_Callback>:
}
static void EXTI_Callback(void)
{
	static u8 state = ICU_STATE_WAIT_FOR_RISINGEDGE1;

	switch(state)
    3ea6:	80 91 ab 01 	lds	r24, 0x01AB
    3eaa:	81 30       	cpi	r24, 0x01	; 1
    3eac:	79 f0       	breq	.+30     	; 0x3ecc <EXTI_Callback+0x26>
    3eae:	81 30       	cpi	r24, 0x01	; 1
    3eb0:	18 f0       	brcs	.+6      	; 0x3eb8 <EXTI_Callback+0x12>
    3eb2:	82 30       	cpi	r24, 0x02	; 2
    3eb4:	29 f5       	brne	.+74     	; 0x3f00 <EXTI_Callback+0x5a>
    3eb6:	18 c0       	rjmp	.+48     	; 0x3ee8 <EXTI_Callback+0x42>
	{
	case ICU_STATE_WAIT_FOR_RISINGEDGE1:
		TIMER1_voidSetPreload(0);
    3eb8:	80 e0       	ldi	r24, 0x00	; 0
    3eba:	90 e0       	ldi	r25, 0x00	; 0
    3ebc:	0e 94 8d 25 	call	0x4b1a	; 0x4b1a <TIMER1_voidSetPreload>
		EXI_TriggerEdge(ICU_EXTI_CHANNEL,FALLING_EDGE);
    3ec0:	80 e0       	ldi	r24, 0x00	; 0
    3ec2:	62 e0       	ldi	r22, 0x02	; 2
    3ec4:	0e 94 e8 27 	call	0x4fd0	; 0x4fd0 <EXI_TriggerEdge>
		state = ICU_STATE_WAIT_FOR_FALLINGEDGE;
    3ec8:	81 e0       	ldi	r24, 0x01	; 1
    3eca:	0b c0       	rjmp	.+22     	; 0x3ee2 <EXTI_Callback+0x3c>
		break;
	case ICU_STATE_WAIT_FOR_FALLINGEDGE:
		EXI_TriggerEdge(ICU_EXTI_CHANNEL,RISING_EDGE);
    3ecc:	80 e0       	ldi	r24, 0x00	; 0
    3ece:	63 e0       	ldi	r22, 0x03	; 3
    3ed0:	0e 94 e8 27 	call	0x4fd0	; 0x4fd0 <EXI_TriggerEdge>
		t_on = TIMER1_u16GetTimerCounterValue();
    3ed4:	0e 94 a1 25 	call	0x4b42	; 0x4b42 <TIMER1_u16GetTimerCounterValue>
    3ed8:	90 93 9f 01 	sts	0x019F, r25
    3edc:	80 93 9e 01 	sts	0x019E, r24
		state = ICU_STATE_WAIT_FOR_RISINGEDGE2;
    3ee0:	82 e0       	ldi	r24, 0x02	; 2
    3ee2:	80 93 ab 01 	sts	0x01AB, r24
    3ee6:	08 95       	ret
		break;
	case ICU_STATE_WAIT_FOR_RISINGEDGE2:
		EXI_TriggerEdge(ICU_EXTI_CHANNEL,RISING_EDGE);
    3ee8:	80 e0       	ldi	r24, 0x00	; 0
    3eea:	63 e0       	ldi	r22, 0x03	; 3
    3eec:	0e 94 e8 27 	call	0x4fd0	; 0x4fd0 <EXI_TriggerEdge>
		period = TIMER1_u16GetTimerCounterValue();
    3ef0:	0e 94 a1 25 	call	0x4b42	; 0x4b42 <TIMER1_u16GetTimerCounterValue>
    3ef4:	90 93 9d 01 	sts	0x019D, r25
    3ef8:	80 93 9c 01 	sts	0x019C, r24
		state = ICU_STATE_WAIT_FOR_RISINGEDGE1;
    3efc:	10 92 ab 01 	sts	0x01AB, r1
    3f00:	08 95       	ret

00003f02 <PWM_Measure_SW>:
	TIMER_u8SetCallBack(LocalFptr,TIMER1_CTCA_VECTOR_ID);
	Timer1_OCA_InterruptEnable();
}

/**********************************************Measure PWM SW*********************************************************/
void PWM_Measure_SW(u32* Pfreq,u8* Pduty){
    3f02:	cf 92       	push	r12
    3f04:	df 92       	push	r13
    3f06:	ef 92       	push	r14
    3f08:	ff 92       	push	r15
    3f0a:	0f 93       	push	r16
    3f0c:	1f 93       	push	r17
    3f0e:	cf 93       	push	r28
    3f10:	df 93       	push	r29
    3f12:	ec 01       	movw	r28, r24
    3f14:	6b 01       	movw	r12, r22
}

static void ICU_Init(void)
{
#if ICU_EXTI_CHANNEL == EX_INT0
	DIO_Enu_SetPinDirection(DIO_u8PORTD,DIO_u8PIN2,DIO_u8INPUT);
    3f16:	83 e0       	ldi	r24, 0x03	; 3
    3f18:	62 e0       	ldi	r22, 0x02	; 2
    3f1a:	40 e0       	ldi	r20, 0x00	; 0
    3f1c:	0e 94 ed 28 	call	0x51da	; 0x51da <DIO_Enu_SetPinDirection>
	DIO_Enu_SetPinDirection(DIO_u8PORTD,DIO_u8PIN3,DIO_u8INPUT);
#elif ICU_EXTI_CHANNEL == EX_INT2
	DIO_Enu_SetPinDirection(DIO_u8PORTB,DIO_u8PIN2,DIO_u8INPUT);
#endif

	EXI_TriggerEdge(ICU_EXTI_CHANNEL, RISING_EDGE);
    3f20:	80 e0       	ldi	r24, 0x00	; 0
    3f22:	63 e0       	ldi	r22, 0x03	; 3
    3f24:	0e 94 e8 27 	call	0x4fd0	; 0x4fd0 <EXI_TriggerEdge>
	EXI_SetCallBack(ICU_EXTI_CHANNEL, EXTI_Callback);
    3f28:	80 e0       	ldi	r24, 0x00	; 0
    3f2a:	63 e5       	ldi	r22, 0x53	; 83
    3f2c:	7f e1       	ldi	r23, 0x1F	; 31
    3f2e:	0e 94 ae 27 	call	0x4f5c	; 0x4f5c <EXI_SetCallBack>
	EXI_Enable(ICU_EXTI_CHANNEL);
    3f32:	80 e0       	ldi	r24, 0x00	; 0
    3f34:	0e 94 c4 27 	call	0x4f88	; 0x4f88 <EXI_Enable>
	TIMER1_voidInit();
    3f38:	0e 94 5b 25 	call	0x4ab6	; 0x4ab6 <TIMER1_voidInit>
	TIMER1_voidSetPreload(0);
    3f3c:	80 e0       	ldi	r24, 0x00	; 0
    3f3e:	90 e0       	ldi	r25, 0x00	; 0
    3f40:	0e 94 8d 25 	call	0x4b1a	; 0x4b1a <TIMER1_voidSetPreload>
}

/**********************************************Measure PWM SW*********************************************************/
void PWM_Measure_SW(u32* Pfreq,u8* Pduty){
	ICU_Init();
	while(period==0);
    3f44:	80 91 9c 01 	lds	r24, 0x019C
    3f48:	90 91 9d 01 	lds	r25, 0x019D
    3f4c:	89 2b       	or	r24, r25
    3f4e:	d1 f3       	breq	.-12     	; 0x3f44 <PWM_Measure_SW+0x42>
	*Pfreq=(u32)(1000000UL/(u32)period);
    3f50:	20 91 9c 01 	lds	r18, 0x019C
    3f54:	30 91 9d 01 	lds	r19, 0x019D
    3f58:	40 e0       	ldi	r20, 0x00	; 0
    3f5a:	50 e0       	ldi	r21, 0x00	; 0
    3f5c:	60 e4       	ldi	r22, 0x40	; 64
    3f5e:	72 e4       	ldi	r23, 0x42	; 66
    3f60:	8f e0       	ldi	r24, 0x0F	; 15
    3f62:	90 e0       	ldi	r25, 0x00	; 0
    3f64:	0e 94 c9 2a 	call	0x5592	; 0x5592 <__udivmodsi4>
    3f68:	28 83       	st	Y, r18
    3f6a:	39 83       	std	Y+1, r19	; 0x01
    3f6c:	4a 83       	std	Y+2, r20	; 0x02
    3f6e:	5b 83       	std	Y+3, r21	; 0x03
	*Pduty=(u8)(((u32)t_on*100UL)/(u32)period);
    3f70:	60 91 9e 01 	lds	r22, 0x019E
    3f74:	70 91 9f 01 	lds	r23, 0x019F
    3f78:	e0 90 9c 01 	lds	r14, 0x019C
    3f7c:	f0 90 9d 01 	lds	r15, 0x019D
    3f80:	80 e0       	ldi	r24, 0x00	; 0
    3f82:	90 e0       	ldi	r25, 0x00	; 0
    3f84:	24 e6       	ldi	r18, 0x64	; 100
    3f86:	30 e0       	ldi	r19, 0x00	; 0
    3f88:	40 e0       	ldi	r20, 0x00	; 0
    3f8a:	50 e0       	ldi	r21, 0x00	; 0
    3f8c:	0e 94 aa 2a 	call	0x5554	; 0x5554 <__mulsi3>
    3f90:	00 e0       	ldi	r16, 0x00	; 0
    3f92:	10 e0       	ldi	r17, 0x00	; 0
    3f94:	a8 01       	movw	r20, r16
    3f96:	97 01       	movw	r18, r14
    3f98:	0e 94 c9 2a 	call	0x5592	; 0x5592 <__udivmodsi4>
    3f9c:	f6 01       	movw	r30, r12
    3f9e:	20 83       	st	Z, r18
}
    3fa0:	df 91       	pop	r29
    3fa2:	cf 91       	pop	r28
    3fa4:	1f 91       	pop	r17
    3fa6:	0f 91       	pop	r16
    3fa8:	ff 90       	pop	r15
    3faa:	ef 90       	pop	r14
    3fac:	df 90       	pop	r13
    3fae:	cf 90       	pop	r12
    3fb0:	08 95       	ret

00003fb2 <Timer1_SetInterruptTime_us>:
	TIMER_u8SetCallBack(LocalFptr,TIMER1_CTCA_VECTOR_ID);
	Timer1_OCA_InterruptEnable();	
}

void Timer1_SetInterruptTime_us (u16 time,void(*LocalFptr)(void))
{
    3fb2:	ef 92       	push	r14
    3fb4:	ff 92       	push	r15
    3fb6:	0f 93       	push	r16
    3fb8:	1f 93       	push	r17
    3fba:	8c 01       	movw	r16, r24
    3fbc:	7b 01       	movw	r14, r22
	TIMER1_voidInit();
    3fbe:	0e 94 5b 25 	call	0x4ab6	; 0x4ab6 <TIMER1_voidInit>
	TIMER1_voidSetCTCA((time)-1);
    3fc2:	c8 01       	movw	r24, r16
    3fc4:	01 97       	sbiw	r24, 0x01	; 1
    3fc6:	0e 94 94 25 	call	0x4b28	; 0x4b28 <TIMER1_voidSetCTCA>
	TIMER_u8SetCallBack(LocalFptr,TIMER1_CTCA_VECTOR_ID);
    3fca:	c7 01       	movw	r24, r14
    3fcc:	67 e0       	ldi	r22, 0x07	; 7
    3fce:	0e 94 58 26 	call	0x4cb0	; 0x4cb0 <TIMER_u8SetCallBack>
	Timer1_OCA_InterruptEnable();
    3fd2:	0e 94 24 26 	call	0x4c48	; 0x4c48 <Timer1_OCA_InterruptEnable>
}
    3fd6:	1f 91       	pop	r17
    3fd8:	0f 91       	pop	r16
    3fda:	ff 90       	pop	r15
    3fdc:	ef 90       	pop	r14
    3fde:	08 95       	ret

00003fe0 <Timer1_SetInterruptTime_ms>:
static void Func_ICU_HW(void);
static void EXTI_Callback(void);
/******************************************Set Interrupt Time******************************************************/

void Timer1_SetInterruptTime_ms (u16 time,void(*LocalFptr)(void))
{
    3fe0:	ef 92       	push	r14
    3fe2:	ff 92       	push	r15
    3fe4:	0f 93       	push	r16
    3fe6:	1f 93       	push	r17
    3fe8:	8c 01       	movw	r16, r24
    3fea:	7b 01       	movw	r14, r22
	TIMER1_voidInit();
    3fec:	0e 94 5b 25 	call	0x4ab6	; 0x4ab6 <TIMER1_voidInit>
	TIMER1_voidSetCTCA((time*1000)-1);
    3ff0:	88 ee       	ldi	r24, 0xE8	; 232
    3ff2:	93 e0       	ldi	r25, 0x03	; 3
    3ff4:	9c 01       	movw	r18, r24
    3ff6:	02 9f       	mul	r16, r18
    3ff8:	c0 01       	movw	r24, r0
    3ffa:	03 9f       	mul	r16, r19
    3ffc:	90 0d       	add	r25, r0
    3ffe:	12 9f       	mul	r17, r18
    4000:	90 0d       	add	r25, r0
    4002:	11 24       	eor	r1, r1
    4004:	01 97       	sbiw	r24, 0x01	; 1
    4006:	0e 94 94 25 	call	0x4b28	; 0x4b28 <TIMER1_voidSetCTCA>
	TIMER_u8SetCallBack(LocalFptr,TIMER1_CTCA_VECTOR_ID);
    400a:	c7 01       	movw	r24, r14
    400c:	67 e0       	ldi	r22, 0x07	; 7
    400e:	0e 94 58 26 	call	0x4cb0	; 0x4cb0 <TIMER_u8SetCallBack>
	Timer1_OCA_InterruptEnable();	
    4012:	0e 94 24 26 	call	0x4c48	; 0x4c48 <Timer1_OCA_InterruptEnable>
}
    4016:	1f 91       	pop	r17
    4018:	0f 91       	pop	r16
    401a:	ff 90       	pop	r15
    401c:	ef 90       	pop	r14
    401e:	08 95       	ret

00004020 <main>:
#include"../../4_LIB/STD_TYPES.h"
#include"../../4_LIB/ERROR_STATES.h"
#include "../../2_HAL/LCD/LCD_INTERFACE.h"
#include"../../5_SERVICE/Timers_Services.h"
#include<util/delay.h>
int main(void) {
    4020:	af 92       	push	r10
    4022:	bf 92       	push	r11
    4024:	cf 92       	push	r12
    4026:	df 92       	push	r13
    4028:	ef 92       	push	r14
    402a:	ff 92       	push	r15
    402c:	0f 93       	push	r16
    402e:	1f 93       	push	r17
    4030:	df 93       	push	r29
    4032:	cf 93       	push	r28
    4034:	00 d0       	rcall	.+0      	; 0x4036 <main+0x16>
    4036:	00 d0       	rcall	.+0      	; 0x4038 <main+0x18>
    4038:	0f 92       	push	r0
    403a:	cd b7       	in	r28, 0x3d	; 61
    403c:	de b7       	in	r29, 0x3e	; 62
	u32 freq;
	u8 duty;
	LCD_enuInit();
    403e:	0e 94 fb 24 	call	0x49f6	; 0x49f6 <LCD_enuInit>
	LCD_enuClearScreen();
    4042:	0e 94 b4 24 	call	0x4968	; 0x4968 <LCD_enuClearScreen>
	SGI();
    4046:	78 94       	sei
	PWM_Measure_SW(&freq,&duty);
    4048:	ce 01       	movw	r24, r28
    404a:	02 96       	adiw	r24, 0x02	; 2
    404c:	be 01       	movw	r22, r28
    404e:	6f 5f       	subi	r22, 0xFF	; 255
    4050:	7f 4f       	sbci	r23, 0xFF	; 255
    4052:	0e 94 81 1f 	call	0x3f02	; 0x3f02 <PWM_Measure_SW>
	LCD_enuSetPosition(1,1);
    4056:	81 e0       	ldi	r24, 0x01	; 1
    4058:	61 e0       	ldi	r22, 0x01	; 1
    405a:	0e 94 bd 24 	call	0x497a	; 0x497a <LCD_enuSetPosition>
	LCD_enuSendString("Frequency = ");
    405e:	80 e6       	ldi	r24, 0x60	; 96
    4060:	90 e0       	ldi	r25, 0x00	; 0
    4062:	0e 94 7f 24 	call	0x48fe	; 0x48fe <LCD_enuSendString>
	LCD_enuSendNumber(freq);
    4066:	aa 80       	ldd	r10, Y+2	; 0x02
    4068:	bb 80       	ldd	r11, Y+3	; 0x03
    406a:	cc 80       	ldd	r12, Y+4	; 0x04
    406c:	dd 80       	ldd	r13, Y+5	; 0x05
    406e:	95 01       	movw	r18, r10
    4070:	a6 01       	movw	r20, r12
    4072:	60 e0       	ldi	r22, 0x00	; 0
    4074:	70 e0       	ldi	r23, 0x00	; 0
    4076:	80 e0       	ldi	r24, 0x00	; 0
    4078:	90 e0       	ldi	r25, 0x00	; 0
    407a:	0e 94 9c 22 	call	0x4538	; 0x4538 <LCD_enuSendNumber>
	LCD_enuSendString(" HZ");
    407e:	8d e6       	ldi	r24, 0x6D	; 109
    4080:	90 e0       	ldi	r25, 0x00	; 0
    4082:	0e 94 7f 24 	call	0x48fe	; 0x48fe <LCD_enuSendString>
	LCD_enuSetPosition(2,1);
    4086:	82 e0       	ldi	r24, 0x02	; 2
    4088:	61 e0       	ldi	r22, 0x01	; 1
    408a:	0e 94 bd 24 	call	0x497a	; 0x497a <LCD_enuSetPosition>
	LCD_enuSendString("Duty = ");
    408e:	81 e7       	ldi	r24, 0x71	; 113
    4090:	90 e0       	ldi	r25, 0x00	; 0
    4092:	0e 94 7f 24 	call	0x48fe	; 0x48fe <LCD_enuSendString>
	LCD_enuSendNumber(duty);
    4096:	29 81       	ldd	r18, Y+1	; 0x01
    4098:	30 e0       	ldi	r19, 0x00	; 0
    409a:	40 e0       	ldi	r20, 0x00	; 0
    409c:	50 e0       	ldi	r21, 0x00	; 0
    409e:	60 e0       	ldi	r22, 0x00	; 0
    40a0:	70 e0       	ldi	r23, 0x00	; 0
    40a2:	80 e0       	ldi	r24, 0x00	; 0
    40a4:	90 e0       	ldi	r25, 0x00	; 0
    40a6:	0e 94 9c 22 	call	0x4538	; 0x4538 <LCD_enuSendNumber>
	LCD_enuSendString(" %");
    40aa:	89 e7       	ldi	r24, 0x79	; 121
    40ac:	90 e0       	ldi	r25, 0x00	; 0
    40ae:	0e 94 7f 24 	call	0x48fe	; 0x48fe <LCD_enuSendString>
    40b2:	ff cf       	rjmp	.-2      	; 0x40b2 <main+0x92>

000040b4 <LCD_voidSendFallingEdge>:

    return Local_EnuErrorState;
}

static void LCD_voidSendFallingEdge(void)
{
    40b4:	0f 93       	push	r16
    40b6:	1f 93       	push	r17
    DIO_Enu_SetPinValue(LCD_CONTROL_PORT, LCD_EN, DIO_u8HIGH);
    40b8:	81 e0       	ldi	r24, 0x01	; 1
    40ba:	62 e0       	ldi	r22, 0x02	; 2
    40bc:	41 e0       	ldi	r20, 0x01	; 1
    40be:	0e 94 57 29 	call	0x52ae	; 0x52ae <DIO_Enu_SetPinValue>
    milliseconds can be achieved.
 */
void
_delay_loop_2(uint16_t __count)
{
	__asm__ volatile (
    40c2:	00 ed       	ldi	r16, 0xD0	; 208
    40c4:	17 e0       	ldi	r17, 0x07	; 7
    40c6:	c8 01       	movw	r24, r16
    40c8:	01 97       	sbiw	r24, 0x01	; 1
    40ca:	f1 f7       	brne	.-4      	; 0x40c8 <LCD_voidSendFallingEdge+0x14>
    _delay_ms(1);
    DIO_Enu_SetPinValue(LCD_CONTROL_PORT, LCD_EN, DIO_u8LOW);
    40cc:	81 e0       	ldi	r24, 0x01	; 1
    40ce:	62 e0       	ldi	r22, 0x02	; 2
    40d0:	40 e0       	ldi	r20, 0x00	; 0
    40d2:	0e 94 57 29 	call	0x52ae	; 0x52ae <DIO_Enu_SetPinValue>
    40d6:	c8 01       	movw	r24, r16
    40d8:	01 97       	sbiw	r24, 0x01	; 1
    40da:	f1 f7       	brne	.-4      	; 0x40d8 <LCD_voidSendFallingEdge+0x24>
    _delay_ms(1);
}
    40dc:	1f 91       	pop	r17
    40de:	0f 91       	pop	r16
    40e0:	08 95       	ret

000040e2 <LCD_enuSendData>:
    Local_EnuErrorState = ES_OK;

    return Local_EnuErrorState;
}
ES_t LCD_enuSendData(u8 Copy_u8Data)
{
    40e2:	1f 93       	push	r17
    40e4:	18 2f       	mov	r17, r24
    LCD_voidSendFallingEdge();

//<<<<<<<<<<<<<<<<<<<<<<<<<<<<<<      4 Bits Mode       >>>>>>>>>>>>>>>>>>>>>>>>>>>>>>>>>
#elif LCD_MODE == 4

    DIO_Enu_SetPinValue(LCD_CONTROL_PORT, LCD_RS, DIO_u8HIGH);
    40e6:	81 e0       	ldi	r24, 0x01	; 1
    40e8:	60 e0       	ldi	r22, 0x00	; 0
    40ea:	41 e0       	ldi	r20, 0x01	; 1
    40ec:	0e 94 57 29 	call	0x52ae	; 0x52ae <DIO_Enu_SetPinValue>
    DIO_Enu_SetPinValue(LCD_CONTROL_PORT, LCD_RW, DIO_u8LOW);
    40f0:	81 e0       	ldi	r24, 0x01	; 1
    40f2:	61 e0       	ldi	r22, 0x01	; 1
    40f4:	40 e0       	ldi	r20, 0x00	; 0
    40f6:	0e 94 57 29 	call	0x52ae	; 0x52ae <DIO_Enu_SetPinValue>
    DIO_Enu_WriteHighNibbles(LCD_DATA_PORT, Copy_u8Data >> 4); // send the most 4 bits of data to high nibbles
    40fa:	61 2f       	mov	r22, r17
    40fc:	62 95       	swap	r22
    40fe:	6f 70       	andi	r22, 0x0F	; 15
    4100:	81 e0       	ldi	r24, 0x01	; 1
    4102:	0e 94 61 2a 	call	0x54c2	; 0x54c2 <DIO_Enu_WriteHighNibbles>
    LCD_voidSendFallingEdge();
    4106:	0e 94 5a 20 	call	0x40b4	; 0x40b4 <LCD_voidSendFallingEdge>
    DIO_Enu_WriteHighNibbles(LCD_DATA_PORT, Copy_u8Data); // send the least 4 bits of data to high nibbles
    410a:	81 e0       	ldi	r24, 0x01	; 1
    410c:	61 2f       	mov	r22, r17
    410e:	0e 94 61 2a 	call	0x54c2	; 0x54c2 <DIO_Enu_WriteHighNibbles>
    LCD_voidSendFallingEdge();
    4112:	0e 94 5a 20 	call	0x40b4	; 0x40b4 <LCD_voidSendFallingEdge>
    4116:	80 ed       	ldi	r24, 0xD0	; 208
    4118:	97 e0       	ldi	r25, 0x07	; 7
    411a:	01 97       	sbiw	r24, 0x01	; 1
    411c:	f1 f7       	brne	.-4      	; 0x411a <LCD_enuSendData+0x38>
    _delay_ms(1);

    Local_EnuErrorState = ES_OK;

    return Local_EnuErrorState;
}
    411e:	81 e0       	ldi	r24, 0x01	; 1
    4120:	1f 91       	pop	r17
    4122:	08 95       	ret

00004124 <LCD_WriteNumberIn4Digits>:
	}
	
}

void LCD_WriteNumberIn4Digits(s64 number)
{
    4124:	2f 92       	push	r2
    4126:	3f 92       	push	r3
    4128:	4f 92       	push	r4
    412a:	5f 92       	push	r5
    412c:	6f 92       	push	r6
    412e:	7f 92       	push	r7
    4130:	8f 92       	push	r8
    4132:	9f 92       	push	r9
    4134:	af 92       	push	r10
    4136:	bf 92       	push	r11
    4138:	cf 92       	push	r12
    413a:	df 92       	push	r13
    413c:	ef 92       	push	r14
    413e:	ff 92       	push	r15
    4140:	0f 93       	push	r16
    4142:	1f 93       	push	r17
    4144:	df 93       	push	r29
    4146:	cf 93       	push	r28
    4148:	cd b7       	in	r28, 0x3d	; 61
    414a:	de b7       	in	r29, 0x3e	; 62
    414c:	28 97       	sbiw	r28, 0x08	; 8
    414e:	0f b6       	in	r0, 0x3f	; 63
    4150:	f8 94       	cli
    4152:	de bf       	out	0x3e, r29	; 62
    4154:	0f be       	out	0x3f, r0	; 63
    4156:	cd bf       	out	0x3d, r28	; 61
    4158:	92 2e       	mov	r9, r18
    415a:	83 2e       	mov	r8, r19
    415c:	54 2e       	mov	r5, r20
    415e:	45 2e       	mov	r4, r21
    4160:	26 2e       	mov	r2, r22
    4162:	7d 83       	std	Y+5, r23	; 0x05
    4164:	8e 83       	std	Y+6, r24	; 0x06
    4166:	39 2e       	mov	r3, r25
	u8 digits[4] = {0} ;
	u8 i = 0  ;
	
	if(number == 0)
    4168:	82 2f       	mov	r24, r18
    416a:	83 2b       	or	r24, r19
    416c:	84 2b       	or	r24, r20
    416e:	85 2b       	or	r24, r21
    4170:	86 2b       	or	r24, r22
    4172:	87 2b       	or	r24, r23
    4174:	9e 81       	ldd	r25, Y+6	; 0x06
    4176:	89 2b       	or	r24, r25
    4178:	83 29       	or	r24, r3
    417a:	49 f4       	brne	.+18     	; 0x418e <LCD_WriteNumberIn4Digits+0x6a>
    417c:	13 e0       	ldi	r17, 0x03	; 3
	{
		for(i = 3 ; i >= 0 ; i--)
		{
			LCD_enuSendData('0') ;
    417e:	80 e3       	ldi	r24, 0x30	; 48
    4180:	0e 94 71 20 	call	0x40e2	; 0x40e2 <LCD_enuSendData>
			if(i == 0)
    4184:	11 23       	and	r17, r17
    4186:	09 f4       	brne	.+2      	; 0x418a <LCD_WriteNumberIn4Digits+0x66>
    4188:	bc c0       	rjmp	.+376    	; 0x4302 <LCD_WriteNumberIn4Digits+0x1de>
	u8 digits[4] = {0} ;
	u8 i = 0  ;
	
	if(number == 0)
	{
		for(i = 3 ; i >= 0 ; i--)
    418a:	11 50       	subi	r17, 0x01	; 1
    418c:	f8 cf       	rjmp	.-16     	; 0x417e <LCD_WriteNumberIn4Digits+0x5a>
			if(i == 0)
			break ;
		}
		return ;
	}
	if(number < 0)
    418e:	37 fe       	sbrs	r3, 7
    4190:	60 c0       	rjmp	.+192    	; 0x4252 <LCD_WriteNumberIn4Digits+0x12e>
	{
		number *= (-1) ;
    4192:	21 95       	neg	r18
    4194:	91 e0       	ldi	r25, 0x01	; 1
    4196:	12 16       	cp	r1, r18
    4198:	08 f0       	brcs	.+2      	; 0x419c <LCD_WriteNumberIn4Digits+0x78>
    419a:	90 e0       	ldi	r25, 0x00	; 0
    419c:	38 2d       	mov	r19, r8
    419e:	31 95       	neg	r19
    41a0:	51 e0       	ldi	r21, 0x01	; 1
    41a2:	13 16       	cp	r1, r19
    41a4:	08 f0       	brcs	.+2      	; 0x41a8 <LCD_WriteNumberIn4Digits+0x84>
    41a6:	50 e0       	ldi	r21, 0x00	; 0
    41a8:	f3 2e       	mov	r15, r19
    41aa:	f9 1a       	sub	r15, r25
    41ac:	91 e0       	ldi	r25, 0x01	; 1
    41ae:	3f 15       	cp	r19, r15
    41b0:	08 f0       	brcs	.+2      	; 0x41b4 <LCD_WriteNumberIn4Digits+0x90>
    41b2:	90 e0       	ldi	r25, 0x00	; 0
    41b4:	59 2b       	or	r21, r25
    41b6:	45 2d       	mov	r20, r5
    41b8:	41 95       	neg	r20
    41ba:	61 e0       	ldi	r22, 0x01	; 1
    41bc:	14 16       	cp	r1, r20
    41be:	08 f0       	brcs	.+2      	; 0x41c2 <LCD_WriteNumberIn4Digits+0x9e>
    41c0:	60 e0       	ldi	r22, 0x00	; 0
    41c2:	04 2f       	mov	r16, r20
    41c4:	05 1b       	sub	r16, r21
    41c6:	91 e0       	ldi	r25, 0x01	; 1
    41c8:	40 17       	cp	r20, r16
    41ca:	08 f0       	brcs	.+2      	; 0x41ce <LCD_WriteNumberIn4Digits+0xaa>
    41cc:	90 e0       	ldi	r25, 0x00	; 0
    41ce:	69 2b       	or	r22, r25
    41d0:	54 2d       	mov	r21, r4
    41d2:	51 95       	neg	r21
    41d4:	71 e0       	ldi	r23, 0x01	; 1
    41d6:	15 16       	cp	r1, r21
    41d8:	08 f0       	brcs	.+2      	; 0x41dc <LCD_WriteNumberIn4Digits+0xb8>
    41da:	70 e0       	ldi	r23, 0x00	; 0
    41dc:	15 2f       	mov	r17, r21
    41de:	16 1b       	sub	r17, r22
    41e0:	91 e0       	ldi	r25, 0x01	; 1
    41e2:	51 17       	cp	r21, r17
    41e4:	08 f0       	brcs	.+2      	; 0x41e8 <LCD_WriteNumberIn4Digits+0xc4>
    41e6:	90 e0       	ldi	r25, 0x00	; 0
    41e8:	79 2b       	or	r23, r25
    41ea:	62 2d       	mov	r22, r2
    41ec:	61 95       	neg	r22
    41ee:	e1 e0       	ldi	r30, 0x01	; 1
    41f0:	16 16       	cp	r1, r22
    41f2:	08 f0       	brcs	.+2      	; 0x41f6 <LCD_WriteNumberIn4Digits+0xd2>
    41f4:	e0 e0       	ldi	r30, 0x00	; 0
    41f6:	b6 2f       	mov	r27, r22
    41f8:	b7 1b       	sub	r27, r23
    41fa:	91 e0       	ldi	r25, 0x01	; 1
    41fc:	6b 17       	cp	r22, r27
    41fe:	08 f0       	brcs	.+2      	; 0x4202 <LCD_WriteNumberIn4Digits+0xde>
    4200:	90 e0       	ldi	r25, 0x00	; 0
    4202:	e9 2b       	or	r30, r25
    4204:	7d 81       	ldd	r23, Y+5	; 0x05
    4206:	71 95       	neg	r23
    4208:	f1 e0       	ldi	r31, 0x01	; 1
    420a:	17 16       	cp	r1, r23
    420c:	08 f0       	brcs	.+2      	; 0x4210 <LCD_WriteNumberIn4Digits+0xec>
    420e:	f0 e0       	ldi	r31, 0x00	; 0
    4210:	a7 2f       	mov	r26, r23
    4212:	ae 1b       	sub	r26, r30
    4214:	91 e0       	ldi	r25, 0x01	; 1
    4216:	7a 17       	cp	r23, r26
    4218:	08 f0       	brcs	.+2      	; 0x421c <LCD_WriteNumberIn4Digits+0xf8>
    421a:	90 e0       	ldi	r25, 0x00	; 0
    421c:	f9 2b       	or	r31, r25
    421e:	8e 81       	ldd	r24, Y+6	; 0x06
    4220:	81 95       	neg	r24
    4222:	e1 e0       	ldi	r30, 0x01	; 1
    4224:	18 16       	cp	r1, r24
    4226:	08 f0       	brcs	.+2      	; 0x422a <LCD_WriteNumberIn4Digits+0x106>
    4228:	e0 e0       	ldi	r30, 0x00	; 0
    422a:	98 2f       	mov	r25, r24
    422c:	9f 1b       	sub	r25, r31
    422e:	f9 2f       	mov	r31, r25
    4230:	91 e0       	ldi	r25, 0x01	; 1
    4232:	8f 17       	cp	r24, r31
    4234:	08 f0       	brcs	.+2      	; 0x4238 <LCD_WriteNumberIn4Digits+0x114>
    4236:	90 e0       	ldi	r25, 0x00	; 0
    4238:	e9 2b       	or	r30, r25
    423a:	31 94       	neg	r3
    423c:	92 2e       	mov	r9, r18
    423e:	8f 2c       	mov	r8, r15
    4240:	50 2e       	mov	r5, r16
    4242:	41 2e       	mov	r4, r17
    4244:	2b 2e       	mov	r2, r27
    4246:	ad 83       	std	Y+5, r26	; 0x05
    4248:	fe 83       	std	Y+6, r31	; 0x06
    424a:	3e 1a       	sub	r3, r30
		LCD_enuSendData('-') ;
    424c:	8d e2       	ldi	r24, 0x2D	; 45
    424e:	0e 94 71 20 	call	0x40e2	; 0x40e2 <LCD_enuSendData>
	
}

void LCD_WriteNumberIn4Digits(s64 number)
{
	u8 digits[4] = {0} ;
    4252:	19 82       	std	Y+1, r1	; 0x01
    4254:	1a 82       	std	Y+2, r1	; 0x02
    4256:	1b 82       	std	Y+3, r1	; 0x03
    4258:	1c 82       	std	Y+4, r1	; 0x04
    425a:	3e 01       	movw	r6, r28
    425c:	08 94       	sec
    425e:	61 1c       	adc	r6, r1
    4260:	71 1c       	adc	r7, r1
	if(number < 0)
	{
		number *= (-1) ;
		LCD_enuSendData('-') ;
	}
	while(number && i < 4 )
    4262:	fe 01       	movw	r30, r28
    4264:	35 96       	adiw	r30, 0x05	; 5
    4266:	f8 87       	std	Y+8, r31	; 0x08
    4268:	ef 83       	std	Y+7, r30	; 0x07
	{
		digits[i] =  number % 10 ;
    426a:	29 2d       	mov	r18, r9
    426c:	38 2d       	mov	r19, r8
    426e:	45 2d       	mov	r20, r5
    4270:	54 2d       	mov	r21, r4
    4272:	62 2d       	mov	r22, r2
    4274:	7d 81       	ldd	r23, Y+5	; 0x05
    4276:	8e 81       	ldd	r24, Y+6	; 0x06
    4278:	93 2d       	mov	r25, r3
    427a:	ea e0       	ldi	r30, 0x0A	; 10
    427c:	ae 2e       	mov	r10, r30
    427e:	bb 24       	eor	r11, r11
    4280:	cc 24       	eor	r12, r12
    4282:	dd 24       	eor	r13, r13
    4284:	ee 24       	eor	r14, r14
    4286:	ff 24       	eor	r15, r15
    4288:	00 e0       	ldi	r16, 0x00	; 0
    428a:	10 e0       	ldi	r17, 0x00	; 0
    428c:	0e 94 f0 08 	call	0x11e0	; 0x11e0 <__moddi3>
    4290:	f3 01       	movw	r30, r6
    4292:	20 83       	st	Z, r18
		number /= 10 ;
    4294:	29 2d       	mov	r18, r9
    4296:	38 2d       	mov	r19, r8
    4298:	45 2d       	mov	r20, r5
    429a:	54 2d       	mov	r21, r4
    429c:	62 2d       	mov	r22, r2
    429e:	7d 81       	ldd	r23, Y+5	; 0x05
    42a0:	8e 81       	ldd	r24, Y+6	; 0x06
    42a2:	93 2d       	mov	r25, r3
    42a4:	0e 94 c8 00 	call	0x190	; 0x190 <__divdi3>
    42a8:	92 2e       	mov	r9, r18
    42aa:	83 2e       	mov	r8, r19
    42ac:	54 2e       	mov	r5, r20
    42ae:	45 2e       	mov	r4, r21
    42b0:	26 2e       	mov	r2, r22
    42b2:	7d 83       	std	Y+5, r23	; 0x05
    42b4:	8e 83       	std	Y+6, r24	; 0x06
    42b6:	39 2e       	mov	r3, r25
	if(number < 0)
	{
		number *= (-1) ;
		LCD_enuSendData('-') ;
	}
	while(number && i < 4 )
    42b8:	82 2f       	mov	r24, r18
    42ba:	88 29       	or	r24, r8
    42bc:	85 29       	or	r24, r5
    42be:	84 29       	or	r24, r4
    42c0:	82 29       	or	r24, r2
    42c2:	87 2b       	or	r24, r23
    42c4:	fe 81       	ldd	r31, Y+6	; 0x06
    42c6:	8f 2b       	or	r24, r31
    42c8:	83 29       	or	r24, r3
    42ca:	89 f4       	brne	.+34     	; 0x42ee <LCD_WriteNumberIn4Digits+0x1ca>
		number /= 10 ;
		i++ ;
	}
	for(i = 3 ; i >= 0 ; i--)
	{
		LCD_enuSendData(digits[i] + '0') ;
    42cc:	8c 81       	ldd	r24, Y+4	; 0x04
    42ce:	80 5d       	subi	r24, 0xD0	; 208
    42d0:	0e 94 71 20 	call	0x40e2	; 0x40e2 <LCD_enuSendData>
    42d4:	8b 81       	ldd	r24, Y+3	; 0x03
    42d6:	80 5d       	subi	r24, 0xD0	; 208
    42d8:	0e 94 71 20 	call	0x40e2	; 0x40e2 <LCD_enuSendData>
    42dc:	8a 81       	ldd	r24, Y+2	; 0x02
    42de:	80 5d       	subi	r24, 0xD0	; 208
    42e0:	0e 94 71 20 	call	0x40e2	; 0x40e2 <LCD_enuSendData>
    42e4:	89 81       	ldd	r24, Y+1	; 0x01
    42e6:	80 5d       	subi	r24, 0xD0	; 208
    42e8:	0e 94 71 20 	call	0x40e2	; 0x40e2 <LCD_enuSendData>
    42ec:	0a c0       	rjmp	.+20     	; 0x4302 <LCD_WriteNumberIn4Digits+0x1de>
		if(i == 0)
		break ;
    42ee:	08 94       	sec
    42f0:	61 1c       	adc	r6, r1
    42f2:	71 1c       	adc	r7, r1
	if(number < 0)
	{
		number *= (-1) ;
		LCD_enuSendData('-') ;
	}
	while(number && i < 4 )
    42f4:	8f 81       	ldd	r24, Y+7	; 0x07
    42f6:	98 85       	ldd	r25, Y+8	; 0x08
    42f8:	68 16       	cp	r6, r24
    42fa:	79 06       	cpc	r7, r25
    42fc:	09 f0       	breq	.+2      	; 0x4300 <LCD_WriteNumberIn4Digits+0x1dc>
    42fe:	b5 cf       	rjmp	.-150    	; 0x426a <LCD_WriteNumberIn4Digits+0x146>
    4300:	e5 cf       	rjmp	.-54     	; 0x42cc <LCD_WriteNumberIn4Digits+0x1a8>
		LCD_enuSendData(digits[i] + '0') ;
		if(i == 0)
		break ;
	}
	
}
    4302:	28 96       	adiw	r28, 0x08	; 8
    4304:	0f b6       	in	r0, 0x3f	; 63
    4306:	f8 94       	cli
    4308:	de bf       	out	0x3e, r29	; 62
    430a:	0f be       	out	0x3f, r0	; 63
    430c:	cd bf       	out	0x3d, r28	; 61
    430e:	cf 91       	pop	r28
    4310:	df 91       	pop	r29
    4312:	1f 91       	pop	r17
    4314:	0f 91       	pop	r16
    4316:	ff 90       	pop	r15
    4318:	ef 90       	pop	r14
    431a:	df 90       	pop	r13
    431c:	cf 90       	pop	r12
    431e:	bf 90       	pop	r11
    4320:	af 90       	pop	r10
    4322:	9f 90       	pop	r9
    4324:	8f 90       	pop	r8
    4326:	7f 90       	pop	r7
    4328:	6f 90       	pop	r6
    432a:	5f 90       	pop	r5
    432c:	4f 90       	pop	r4
    432e:	3f 90       	pop	r3
    4330:	2f 90       	pop	r2
    4332:	08 95       	ret

00004334 <LCD_WriteNumberIn3Digits>:

    return Local_EnuErrorState;
}

void LCD_WriteNumberIn3Digits(s64 number)
{
    4334:	2f 92       	push	r2
    4336:	3f 92       	push	r3
    4338:	4f 92       	push	r4
    433a:	5f 92       	push	r5
    433c:	6f 92       	push	r6
    433e:	7f 92       	push	r7
    4340:	8f 92       	push	r8
    4342:	9f 92       	push	r9
    4344:	af 92       	push	r10
    4346:	bf 92       	push	r11
    4348:	cf 92       	push	r12
    434a:	df 92       	push	r13
    434c:	ef 92       	push	r14
    434e:	ff 92       	push	r15
    4350:	0f 93       	push	r16
    4352:	1f 93       	push	r17
    4354:	df 93       	push	r29
    4356:	cf 93       	push	r28
    4358:	cd b7       	in	r28, 0x3d	; 61
    435a:	de b7       	in	r29, 0x3e	; 62
    435c:	27 97       	sbiw	r28, 0x07	; 7
    435e:	0f b6       	in	r0, 0x3f	; 63
    4360:	f8 94       	cli
    4362:	de bf       	out	0x3e, r29	; 62
    4364:	0f be       	out	0x3f, r0	; 63
    4366:	cd bf       	out	0x3d, r28	; 61
    4368:	92 2e       	mov	r9, r18
    436a:	83 2e       	mov	r8, r19
    436c:	54 2e       	mov	r5, r20
    436e:	45 2e       	mov	r4, r21
    4370:	26 2e       	mov	r2, r22
    4372:	7c 83       	std	Y+4, r23	; 0x04
    4374:	8d 83       	std	Y+5, r24	; 0x05
    4376:	39 2e       	mov	r3, r25
	u8 digits[3] = {0} ;
	u8 i = 0  ;
	
	if(number == 0)
    4378:	82 2f       	mov	r24, r18
    437a:	83 2b       	or	r24, r19
    437c:	84 2b       	or	r24, r20
    437e:	85 2b       	or	r24, r21
    4380:	86 2b       	or	r24, r22
    4382:	87 2b       	or	r24, r23
    4384:	9d 81       	ldd	r25, Y+5	; 0x05
    4386:	89 2b       	or	r24, r25
    4388:	83 29       	or	r24, r3
    438a:	41 f4       	brne	.+16     	; 0x439c <LCD_WriteNumberIn3Digits+0x68>
	{
		for(i = 2 ; i >= 0 ; i--)
		{
			LCD_enuSendData('0') ;
    438c:	80 e3       	ldi	r24, 0x30	; 48
    438e:	0e 94 71 20 	call	0x40e2	; 0x40e2 <LCD_enuSendData>
    4392:	80 e3       	ldi	r24, 0x30	; 48
    4394:	0e 94 71 20 	call	0x40e2	; 0x40e2 <LCD_enuSendData>
    4398:	80 e3       	ldi	r24, 0x30	; 48
    439a:	a9 c0       	rjmp	.+338    	; 0x44ee <LCD_WriteNumberIn3Digits+0x1ba>
			if(i == 0)
			break ;
		}
		return ;
	}
	if(number < 0)
    439c:	37 fe       	sbrs	r3, 7
    439e:	60 c0       	rjmp	.+192    	; 0x4460 <LCD_WriteNumberIn3Digits+0x12c>
	{
		number *= (-1) ;
    43a0:	21 95       	neg	r18
    43a2:	91 e0       	ldi	r25, 0x01	; 1
    43a4:	12 16       	cp	r1, r18
    43a6:	08 f0       	brcs	.+2      	; 0x43aa <LCD_WriteNumberIn3Digits+0x76>
    43a8:	90 e0       	ldi	r25, 0x00	; 0
    43aa:	38 2d       	mov	r19, r8
    43ac:	31 95       	neg	r19
    43ae:	51 e0       	ldi	r21, 0x01	; 1
    43b0:	13 16       	cp	r1, r19
    43b2:	08 f0       	brcs	.+2      	; 0x43b6 <LCD_WriteNumberIn3Digits+0x82>
    43b4:	50 e0       	ldi	r21, 0x00	; 0
    43b6:	f3 2e       	mov	r15, r19
    43b8:	f9 1a       	sub	r15, r25
    43ba:	91 e0       	ldi	r25, 0x01	; 1
    43bc:	3f 15       	cp	r19, r15
    43be:	08 f0       	brcs	.+2      	; 0x43c2 <LCD_WriteNumberIn3Digits+0x8e>
    43c0:	90 e0       	ldi	r25, 0x00	; 0
    43c2:	59 2b       	or	r21, r25
    43c4:	45 2d       	mov	r20, r5
    43c6:	41 95       	neg	r20
    43c8:	61 e0       	ldi	r22, 0x01	; 1
    43ca:	14 16       	cp	r1, r20
    43cc:	08 f0       	brcs	.+2      	; 0x43d0 <LCD_WriteNumberIn3Digits+0x9c>
    43ce:	60 e0       	ldi	r22, 0x00	; 0
    43d0:	04 2f       	mov	r16, r20
    43d2:	05 1b       	sub	r16, r21
    43d4:	91 e0       	ldi	r25, 0x01	; 1
    43d6:	40 17       	cp	r20, r16
    43d8:	08 f0       	brcs	.+2      	; 0x43dc <LCD_WriteNumberIn3Digits+0xa8>
    43da:	90 e0       	ldi	r25, 0x00	; 0
    43dc:	69 2b       	or	r22, r25
    43de:	54 2d       	mov	r21, r4
    43e0:	51 95       	neg	r21
    43e2:	71 e0       	ldi	r23, 0x01	; 1
    43e4:	15 16       	cp	r1, r21
    43e6:	08 f0       	brcs	.+2      	; 0x43ea <LCD_WriteNumberIn3Digits+0xb6>
    43e8:	70 e0       	ldi	r23, 0x00	; 0
    43ea:	15 2f       	mov	r17, r21
    43ec:	16 1b       	sub	r17, r22
    43ee:	91 e0       	ldi	r25, 0x01	; 1
    43f0:	51 17       	cp	r21, r17
    43f2:	08 f0       	brcs	.+2      	; 0x43f6 <LCD_WriteNumberIn3Digits+0xc2>
    43f4:	90 e0       	ldi	r25, 0x00	; 0
    43f6:	79 2b       	or	r23, r25
    43f8:	62 2d       	mov	r22, r2
    43fa:	61 95       	neg	r22
    43fc:	e1 e0       	ldi	r30, 0x01	; 1
    43fe:	16 16       	cp	r1, r22
    4400:	08 f0       	brcs	.+2      	; 0x4404 <LCD_WriteNumberIn3Digits+0xd0>
    4402:	e0 e0       	ldi	r30, 0x00	; 0
    4404:	b6 2f       	mov	r27, r22
    4406:	b7 1b       	sub	r27, r23
    4408:	91 e0       	ldi	r25, 0x01	; 1
    440a:	6b 17       	cp	r22, r27
    440c:	08 f0       	brcs	.+2      	; 0x4410 <LCD_WriteNumberIn3Digits+0xdc>
    440e:	90 e0       	ldi	r25, 0x00	; 0
    4410:	e9 2b       	or	r30, r25
    4412:	7c 81       	ldd	r23, Y+4	; 0x04
    4414:	71 95       	neg	r23
    4416:	f1 e0       	ldi	r31, 0x01	; 1
    4418:	17 16       	cp	r1, r23
    441a:	08 f0       	brcs	.+2      	; 0x441e <LCD_WriteNumberIn3Digits+0xea>
    441c:	f0 e0       	ldi	r31, 0x00	; 0
    441e:	a7 2f       	mov	r26, r23
    4420:	ae 1b       	sub	r26, r30
    4422:	91 e0       	ldi	r25, 0x01	; 1
    4424:	7a 17       	cp	r23, r26
    4426:	08 f0       	brcs	.+2      	; 0x442a <LCD_WriteNumberIn3Digits+0xf6>
    4428:	90 e0       	ldi	r25, 0x00	; 0
    442a:	f9 2b       	or	r31, r25
    442c:	8d 81       	ldd	r24, Y+5	; 0x05
    442e:	81 95       	neg	r24
    4430:	e1 e0       	ldi	r30, 0x01	; 1
    4432:	18 16       	cp	r1, r24
    4434:	08 f0       	brcs	.+2      	; 0x4438 <LCD_WriteNumberIn3Digits+0x104>
    4436:	e0 e0       	ldi	r30, 0x00	; 0
    4438:	98 2f       	mov	r25, r24
    443a:	9f 1b       	sub	r25, r31
    443c:	f9 2f       	mov	r31, r25
    443e:	91 e0       	ldi	r25, 0x01	; 1
    4440:	8f 17       	cp	r24, r31
    4442:	08 f0       	brcs	.+2      	; 0x4446 <LCD_WriteNumberIn3Digits+0x112>
    4444:	90 e0       	ldi	r25, 0x00	; 0
    4446:	e9 2b       	or	r30, r25
    4448:	31 94       	neg	r3
    444a:	92 2e       	mov	r9, r18
    444c:	8f 2c       	mov	r8, r15
    444e:	50 2e       	mov	r5, r16
    4450:	41 2e       	mov	r4, r17
    4452:	2b 2e       	mov	r2, r27
    4454:	ac 83       	std	Y+4, r26	; 0x04
    4456:	fd 83       	std	Y+5, r31	; 0x05
    4458:	3e 1a       	sub	r3, r30
		LCD_enuSendData('-') ;
    445a:	8d e2       	ldi	r24, 0x2D	; 45
    445c:	0e 94 71 20 	call	0x40e2	; 0x40e2 <LCD_enuSendData>
    return Local_EnuErrorState;
}

void LCD_WriteNumberIn3Digits(s64 number)
{
	u8 digits[3] = {0} ;
    4460:	fe 01       	movw	r30, r28
    4462:	31 96       	adiw	r30, 0x01	; 1
    4464:	83 e0       	ldi	r24, 0x03	; 3
    4466:	df 01       	movw	r26, r30
    4468:	1d 92       	st	X+, r1
    446a:	8a 95       	dec	r24
    446c:	e9 f7       	brne	.-6      	; 0x4468 <LCD_WriteNumberIn3Digits+0x134>
    446e:	3f 01       	movw	r6, r30
	if(number < 0)
	{
		number *= (-1) ;
		LCD_enuSendData('-') ;
	}
	while(number && i < 3 )
    4470:	fe 01       	movw	r30, r28
    4472:	34 96       	adiw	r30, 0x04	; 4
    4474:	ff 83       	std	Y+7, r31	; 0x07
    4476:	ee 83       	std	Y+6, r30	; 0x06
	{
		digits[i] =  number % 10 ;
    4478:	29 2d       	mov	r18, r9
    447a:	38 2d       	mov	r19, r8
    447c:	45 2d       	mov	r20, r5
    447e:	54 2d       	mov	r21, r4
    4480:	62 2d       	mov	r22, r2
    4482:	7c 81       	ldd	r23, Y+4	; 0x04
    4484:	8d 81       	ldd	r24, Y+5	; 0x05
    4486:	93 2d       	mov	r25, r3
    4488:	fa e0       	ldi	r31, 0x0A	; 10
    448a:	af 2e       	mov	r10, r31
    448c:	bb 24       	eor	r11, r11
    448e:	cc 24       	eor	r12, r12
    4490:	dd 24       	eor	r13, r13
    4492:	ee 24       	eor	r14, r14
    4494:	ff 24       	eor	r15, r15
    4496:	00 e0       	ldi	r16, 0x00	; 0
    4498:	10 e0       	ldi	r17, 0x00	; 0
    449a:	0e 94 f0 08 	call	0x11e0	; 0x11e0 <__moddi3>
    449e:	d3 01       	movw	r26, r6
    44a0:	2c 93       	st	X, r18
		number /= 10 ;
    44a2:	29 2d       	mov	r18, r9
    44a4:	38 2d       	mov	r19, r8
    44a6:	45 2d       	mov	r20, r5
    44a8:	54 2d       	mov	r21, r4
    44aa:	62 2d       	mov	r22, r2
    44ac:	7c 81       	ldd	r23, Y+4	; 0x04
    44ae:	8d 81       	ldd	r24, Y+5	; 0x05
    44b0:	93 2d       	mov	r25, r3
    44b2:	0e 94 c8 00 	call	0x190	; 0x190 <__divdi3>
    44b6:	92 2e       	mov	r9, r18
    44b8:	83 2e       	mov	r8, r19
    44ba:	54 2e       	mov	r5, r20
    44bc:	45 2e       	mov	r4, r21
    44be:	26 2e       	mov	r2, r22
    44c0:	7c 83       	std	Y+4, r23	; 0x04
    44c2:	8d 83       	std	Y+5, r24	; 0x05
    44c4:	39 2e       	mov	r3, r25
	if(number < 0)
	{
		number *= (-1) ;
		LCD_enuSendData('-') ;
	}
	while(number && i < 3 )
    44c6:	82 2f       	mov	r24, r18
    44c8:	88 29       	or	r24, r8
    44ca:	85 29       	or	r24, r5
    44cc:	84 29       	or	r24, r4
    44ce:	82 29       	or	r24, r2
    44d0:	87 2b       	or	r24, r23
    44d2:	bd 81       	ldd	r27, Y+5	; 0x05
    44d4:	8b 2b       	or	r24, r27
    44d6:	83 29       	or	r24, r3
    44d8:	29 f5       	brne	.+74     	; 0x4524 <LCD_WriteNumberIn3Digits+0x1f0>
		number /= 10 ;
		i++ ;
	}
	for(i = 2 ; i >= 0 ; i--)
	{
		LCD_enuSendData(digits[i] + '0') ;
    44da:	8b 81       	ldd	r24, Y+3	; 0x03
    44dc:	80 5d       	subi	r24, 0xD0	; 208
    44de:	0e 94 71 20 	call	0x40e2	; 0x40e2 <LCD_enuSendData>
    44e2:	8a 81       	ldd	r24, Y+2	; 0x02
    44e4:	80 5d       	subi	r24, 0xD0	; 208
    44e6:	0e 94 71 20 	call	0x40e2	; 0x40e2 <LCD_enuSendData>
    44ea:	89 81       	ldd	r24, Y+1	; 0x01
    44ec:	80 5d       	subi	r24, 0xD0	; 208
    44ee:	0e 94 71 20 	call	0x40e2	; 0x40e2 <LCD_enuSendData>
		if(i == 0)
		break ;
	}
	
}
    44f2:	27 96       	adiw	r28, 0x07	; 7
    44f4:	0f b6       	in	r0, 0x3f	; 63
    44f6:	f8 94       	cli
    44f8:	de bf       	out	0x3e, r29	; 62
    44fa:	0f be       	out	0x3f, r0	; 63
    44fc:	cd bf       	out	0x3d, r28	; 61
    44fe:	cf 91       	pop	r28
    4500:	df 91       	pop	r29
    4502:	1f 91       	pop	r17
    4504:	0f 91       	pop	r16
    4506:	ff 90       	pop	r15
    4508:	ef 90       	pop	r14
    450a:	df 90       	pop	r13
    450c:	cf 90       	pop	r12
    450e:	bf 90       	pop	r11
    4510:	af 90       	pop	r10
    4512:	9f 90       	pop	r9
    4514:	8f 90       	pop	r8
    4516:	7f 90       	pop	r7
    4518:	6f 90       	pop	r6
    451a:	5f 90       	pop	r5
    451c:	4f 90       	pop	r4
    451e:	3f 90       	pop	r3
    4520:	2f 90       	pop	r2
    4522:	08 95       	ret
	}
	for(i = 2 ; i >= 0 ; i--)
	{
		LCD_enuSendData(digits[i] + '0') ;
		if(i == 0)
		break ;
    4524:	08 94       	sec
    4526:	61 1c       	adc	r6, r1
    4528:	71 1c       	adc	r7, r1
	if(number < 0)
	{
		number *= (-1) ;
		LCD_enuSendData('-') ;
	}
	while(number && i < 3 )
    452a:	ee 81       	ldd	r30, Y+6	; 0x06
    452c:	ff 81       	ldd	r31, Y+7	; 0x07
    452e:	6e 16       	cp	r6, r30
    4530:	7f 06       	cpc	r7, r31
    4532:	09 f0       	breq	.+2      	; 0x4536 <LCD_WriteNumberIn3Digits+0x202>
    4534:	a1 cf       	rjmp	.-190    	; 0x4478 <LCD_WriteNumberIn3Digits+0x144>
    4536:	d1 cf       	rjmp	.-94     	; 0x44da <LCD_WriteNumberIn3Digits+0x1a6>

00004538 <LCD_enuSendNumber>:

    return Local_EnuErrorState;
}

ES_t LCD_enuSendNumber(s64 Copy_s64Number)
{
    4538:	2f 92       	push	r2
    453a:	3f 92       	push	r3
    453c:	4f 92       	push	r4
    453e:	5f 92       	push	r5
    4540:	6f 92       	push	r6
    4542:	7f 92       	push	r7
    4544:	8f 92       	push	r8
    4546:	9f 92       	push	r9
    4548:	af 92       	push	r10
    454a:	bf 92       	push	r11
    454c:	cf 92       	push	r12
    454e:	df 92       	push	r13
    4550:	ef 92       	push	r14
    4552:	ff 92       	push	r15
    4554:	0f 93       	push	r16
    4556:	1f 93       	push	r17
    4558:	df 93       	push	r29
    455a:	cf 93       	push	r28
    455c:	cd b7       	in	r28, 0x3d	; 61
    455e:	de b7       	in	r29, 0x3e	; 62
    4560:	29 97       	sbiw	r28, 0x09	; 9
    4562:	0f b6       	in	r0, 0x3f	; 63
    4564:	f8 94       	cli
    4566:	de bf       	out	0x3e, r29	; 62
    4568:	0f be       	out	0x3f, r0	; 63
    456a:	cd bf       	out	0x3d, r28	; 61
    456c:	2a 83       	std	Y+2, r18	; 0x02
    456e:	3b 83       	std	Y+3, r19	; 0x03
    4570:	4c 83       	std	Y+4, r20	; 0x04
    4572:	5d 83       	std	Y+5, r21	; 0x05
    4574:	6e 83       	std	Y+6, r22	; 0x06
    4576:	7f 83       	std	Y+7, r23	; 0x07
    4578:	88 87       	std	Y+8, r24	; 0x08
    457a:	99 87       	std	Y+9, r25	; 0x09
    ES_t Local_EnuErrorState = ES_NOT_OK;
    u64 LOC_s64Reversed = 1;

    if (Copy_s64Number == 0)
    457c:	82 2f       	mov	r24, r18
    457e:	83 2b       	or	r24, r19
    4580:	84 2b       	or	r24, r20
    4582:	85 2b       	or	r24, r21
    4584:	86 2b       	or	r24, r22
    4586:	87 2b       	or	r24, r23
    4588:	98 85       	ldd	r25, Y+8	; 0x08
    458a:	89 2b       	or	r24, r25
    458c:	a9 85       	ldd	r26, Y+9	; 0x09
    458e:	8a 2b       	or	r24, r26
    4590:	21 f4       	brne	.+8      	; 0x459a <LCD_enuSendNumber+0x62>
    {
        LCD_enuSendData('0');
    4592:	80 e3       	ldi	r24, 0x30	; 48
    4594:	0e 94 71 20 	call	0x40e2	; 0x40e2 <LCD_enuSendData>
    4598:	98 c1       	rjmp	.+816    	; 0x48ca <LCD_enuSendNumber+0x392>
    }

    else
    {
        if(Copy_s64Number<0){
    459a:	b9 85       	ldd	r27, Y+9	; 0x09
    459c:	b7 ff       	sbrs	r27, 7
    459e:	63 c0       	rjmp	.+198    	; 0x4666 <LCD_enuSendNumber+0x12e>
            Copy_s64Number*=-1;
    45a0:	2a 81       	ldd	r18, Y+2	; 0x02
    45a2:	21 95       	neg	r18
    45a4:	91 e0       	ldi	r25, 0x01	; 1
    45a6:	12 16       	cp	r1, r18
    45a8:	08 f0       	brcs	.+2      	; 0x45ac <LCD_enuSendNumber+0x74>
    45aa:	90 e0       	ldi	r25, 0x00	; 0
    45ac:	3b 81       	ldd	r19, Y+3	; 0x03
    45ae:	31 95       	neg	r19
    45b0:	51 e0       	ldi	r21, 0x01	; 1
    45b2:	13 16       	cp	r1, r19
    45b4:	08 f0       	brcs	.+2      	; 0x45b8 <LCD_enuSendNumber+0x80>
    45b6:	50 e0       	ldi	r21, 0x00	; 0
    45b8:	f3 2e       	mov	r15, r19
    45ba:	f9 1a       	sub	r15, r25
    45bc:	91 e0       	ldi	r25, 0x01	; 1
    45be:	3f 15       	cp	r19, r15
    45c0:	08 f0       	brcs	.+2      	; 0x45c4 <LCD_enuSendNumber+0x8c>
    45c2:	90 e0       	ldi	r25, 0x00	; 0
    45c4:	59 2b       	or	r21, r25
    45c6:	4c 81       	ldd	r20, Y+4	; 0x04
    45c8:	41 95       	neg	r20
    45ca:	61 e0       	ldi	r22, 0x01	; 1
    45cc:	14 16       	cp	r1, r20
    45ce:	08 f0       	brcs	.+2      	; 0x45d2 <LCD_enuSendNumber+0x9a>
    45d0:	60 e0       	ldi	r22, 0x00	; 0
    45d2:	04 2f       	mov	r16, r20
    45d4:	05 1b       	sub	r16, r21
    45d6:	91 e0       	ldi	r25, 0x01	; 1
    45d8:	40 17       	cp	r20, r16
    45da:	08 f0       	brcs	.+2      	; 0x45de <LCD_enuSendNumber+0xa6>
    45dc:	90 e0       	ldi	r25, 0x00	; 0
    45de:	69 2b       	or	r22, r25
    45e0:	5d 81       	ldd	r21, Y+5	; 0x05
    45e2:	51 95       	neg	r21
    45e4:	71 e0       	ldi	r23, 0x01	; 1
    45e6:	15 16       	cp	r1, r21
    45e8:	08 f0       	brcs	.+2      	; 0x45ec <LCD_enuSendNumber+0xb4>
    45ea:	70 e0       	ldi	r23, 0x00	; 0
    45ec:	15 2f       	mov	r17, r21
    45ee:	16 1b       	sub	r17, r22
    45f0:	91 e0       	ldi	r25, 0x01	; 1
    45f2:	51 17       	cp	r21, r17
    45f4:	08 f0       	brcs	.+2      	; 0x45f8 <LCD_enuSendNumber+0xc0>
    45f6:	90 e0       	ldi	r25, 0x00	; 0
    45f8:	79 2b       	or	r23, r25
    45fa:	6e 81       	ldd	r22, Y+6	; 0x06
    45fc:	61 95       	neg	r22
    45fe:	e1 e0       	ldi	r30, 0x01	; 1
    4600:	16 16       	cp	r1, r22
    4602:	08 f0       	brcs	.+2      	; 0x4606 <LCD_enuSendNumber+0xce>
    4604:	e0 e0       	ldi	r30, 0x00	; 0
    4606:	e6 2e       	mov	r14, r22
    4608:	e7 1a       	sub	r14, r23
    460a:	91 e0       	ldi	r25, 0x01	; 1
    460c:	6e 15       	cp	r22, r14
    460e:	08 f0       	brcs	.+2      	; 0x4612 <LCD_enuSendNumber+0xda>
    4610:	90 e0       	ldi	r25, 0x00	; 0
    4612:	e9 2b       	or	r30, r25
    4614:	7f 81       	ldd	r23, Y+7	; 0x07
    4616:	71 95       	neg	r23
    4618:	f1 e0       	ldi	r31, 0x01	; 1
    461a:	17 16       	cp	r1, r23
    461c:	08 f0       	brcs	.+2      	; 0x4620 <LCD_enuSendNumber+0xe8>
    461e:	f0 e0       	ldi	r31, 0x00	; 0
    4620:	d7 2e       	mov	r13, r23
    4622:	de 1a       	sub	r13, r30
    4624:	91 e0       	ldi	r25, 0x01	; 1
    4626:	7d 15       	cp	r23, r13
    4628:	08 f0       	brcs	.+2      	; 0x462c <LCD_enuSendNumber+0xf4>
    462a:	90 e0       	ldi	r25, 0x00	; 0
    462c:	f9 2b       	or	r31, r25
    462e:	88 85       	ldd	r24, Y+8	; 0x08
    4630:	81 95       	neg	r24
    4632:	e1 e0       	ldi	r30, 0x01	; 1
    4634:	18 16       	cp	r1, r24
    4636:	08 f0       	brcs	.+2      	; 0x463a <LCD_enuSendNumber+0x102>
    4638:	e0 e0       	ldi	r30, 0x00	; 0
    463a:	98 2f       	mov	r25, r24
    463c:	9f 1b       	sub	r25, r31
    463e:	f9 2f       	mov	r31, r25
    4640:	91 e0       	ldi	r25, 0x01	; 1
    4642:	8f 17       	cp	r24, r31
    4644:	08 f0       	brcs	.+2      	; 0x4648 <LCD_enuSendNumber+0x110>
    4646:	90 e0       	ldi	r25, 0x00	; 0
    4648:	e9 2b       	or	r30, r25
    464a:	a9 85       	ldd	r26, Y+9	; 0x09
    464c:	a1 95       	neg	r26
    464e:	2a 83       	std	Y+2, r18	; 0x02
    4650:	fb 82       	std	Y+3, r15	; 0x03
    4652:	0c 83       	std	Y+4, r16	; 0x04
    4654:	1d 83       	std	Y+5, r17	; 0x05
    4656:	ee 82       	std	Y+6, r14	; 0x06
    4658:	df 82       	std	Y+7, r13	; 0x07
    465a:	f8 87       	std	Y+8, r31	; 0x08
    465c:	ae 1b       	sub	r26, r30
    465e:	a9 87       	std	Y+9, r26	; 0x09
            LCD_enuSendData('-');
    4660:	8d e2       	ldi	r24, 0x2D	; 45
    4662:	0e 94 71 20 	call	0x40e2	; 0x40e2 <LCD_enuSendData>
    4666:	22 24       	eor	r2, r2
    4668:	23 94       	inc	r2
    466a:	33 24       	eor	r3, r3
    466c:	44 24       	eor	r4, r4
    466e:	55 24       	eor	r5, r5
    4670:	66 24       	eor	r6, r6
    4672:	77 24       	eor	r7, r7
    4674:	88 24       	eor	r8, r8
    4676:	99 24       	eor	r9, r9
        }

        while (Copy_s64Number != 0)
        {

            LOC_s64Reversed = (LOC_s64Reversed * 10) + (Copy_s64Number % 10);
    4678:	91 01       	movw	r18, r2
    467a:	a2 01       	movw	r20, r4
    467c:	b3 01       	movw	r22, r6
    467e:	c4 01       	movw	r24, r8
    4680:	01 e0       	ldi	r16, 0x01	; 1
    4682:	0e 94 49 00 	call	0x92	; 0x92 <__ashldi3>
    4686:	12 2f       	mov	r17, r18
    4688:	f3 2e       	mov	r15, r19
    468a:	e4 2e       	mov	r14, r20
    468c:	d5 2e       	mov	r13, r21
    468e:	c6 2e       	mov	r12, r22
    4690:	b7 2e       	mov	r11, r23
    4692:	a8 2e       	mov	r10, r24
    4694:	89 2e       	mov	r8, r25
    4696:	02 e0       	ldi	r16, 0x02	; 2
    4698:	0e 94 49 00 	call	0x92	; 0x92 <__ashldi3>
    469c:	92 2e       	mov	r9, r18
    469e:	91 0e       	add	r9, r17
    46a0:	21 e0       	ldi	r18, 0x01	; 1
    46a2:	91 16       	cp	r9, r17
    46a4:	08 f0       	brcs	.+2      	; 0x46a8 <LCD_enuSendNumber+0x170>
    46a6:	20 e0       	ldi	r18, 0x00	; 0
    46a8:	3f 0d       	add	r19, r15
    46aa:	e1 e0       	ldi	r30, 0x01	; 1
    46ac:	3f 15       	cp	r19, r15
    46ae:	08 f0       	brcs	.+2      	; 0x46b2 <LCD_enuSendNumber+0x17a>
    46b0:	e0 e0       	ldi	r30, 0x00	; 0
    46b2:	72 2e       	mov	r7, r18
    46b4:	73 0e       	add	r7, r19
    46b6:	21 e0       	ldi	r18, 0x01	; 1
    46b8:	73 16       	cp	r7, r19
    46ba:	08 f0       	brcs	.+2      	; 0x46be <LCD_enuSendNumber+0x186>
    46bc:	20 e0       	ldi	r18, 0x00	; 0
    46be:	e2 2b       	or	r30, r18
    46c0:	4e 0d       	add	r20, r14
    46c2:	31 e0       	ldi	r19, 0x01	; 1
    46c4:	4e 15       	cp	r20, r14
    46c6:	08 f0       	brcs	.+2      	; 0x46ca <LCD_enuSendNumber+0x192>
    46c8:	30 e0       	ldi	r19, 0x00	; 0
    46ca:	6e 2e       	mov	r6, r30
    46cc:	64 0e       	add	r6, r20
    46ce:	21 e0       	ldi	r18, 0x01	; 1
    46d0:	64 16       	cp	r6, r20
    46d2:	08 f0       	brcs	.+2      	; 0x46d6 <LCD_enuSendNumber+0x19e>
    46d4:	20 e0       	ldi	r18, 0x00	; 0
    46d6:	32 2b       	or	r19, r18
    46d8:	5d 0d       	add	r21, r13
    46da:	41 e0       	ldi	r20, 0x01	; 1
    46dc:	5d 15       	cp	r21, r13
    46de:	08 f0       	brcs	.+2      	; 0x46e2 <LCD_enuSendNumber+0x1aa>
    46e0:	40 e0       	ldi	r20, 0x00	; 0
    46e2:	53 2e       	mov	r5, r19
    46e4:	55 0e       	add	r5, r21
    46e6:	21 e0       	ldi	r18, 0x01	; 1
    46e8:	55 16       	cp	r5, r21
    46ea:	08 f0       	brcs	.+2      	; 0x46ee <LCD_enuSendNumber+0x1b6>
    46ec:	20 e0       	ldi	r18, 0x00	; 0
    46ee:	42 2b       	or	r20, r18
    46f0:	6c 0d       	add	r22, r12
    46f2:	31 e0       	ldi	r19, 0x01	; 1
    46f4:	6c 15       	cp	r22, r12
    46f6:	08 f0       	brcs	.+2      	; 0x46fa <LCD_enuSendNumber+0x1c2>
    46f8:	30 e0       	ldi	r19, 0x00	; 0
    46fa:	44 2e       	mov	r4, r20
    46fc:	46 0e       	add	r4, r22
    46fe:	21 e0       	ldi	r18, 0x01	; 1
    4700:	46 16       	cp	r4, r22
    4702:	08 f0       	brcs	.+2      	; 0x4706 <LCD_enuSendNumber+0x1ce>
    4704:	20 e0       	ldi	r18, 0x00	; 0
    4706:	32 2b       	or	r19, r18
    4708:	7b 0d       	add	r23, r11
    470a:	41 e0       	ldi	r20, 0x01	; 1
    470c:	7b 15       	cp	r23, r11
    470e:	08 f0       	brcs	.+2      	; 0x4712 <LCD_enuSendNumber+0x1da>
    4710:	40 e0       	ldi	r20, 0x00	; 0
    4712:	33 2e       	mov	r3, r19
    4714:	37 0e       	add	r3, r23
    4716:	21 e0       	ldi	r18, 0x01	; 1
    4718:	37 16       	cp	r3, r23
    471a:	08 f0       	brcs	.+2      	; 0x471e <LCD_enuSendNumber+0x1e6>
    471c:	20 e0       	ldi	r18, 0x00	; 0
    471e:	42 2b       	or	r20, r18
    4720:	8a 0d       	add	r24, r10
    4722:	31 e0       	ldi	r19, 0x01	; 1
    4724:	8a 15       	cp	r24, r10
    4726:	08 f0       	brcs	.+2      	; 0x472a <LCD_enuSendNumber+0x1f2>
    4728:	30 e0       	ldi	r19, 0x00	; 0
    472a:	24 2e       	mov	r2, r20
    472c:	28 0e       	add	r2, r24
    472e:	21 e0       	ldi	r18, 0x01	; 1
    4730:	28 16       	cp	r2, r24
    4732:	08 f0       	brcs	.+2      	; 0x4736 <LCD_enuSendNumber+0x1fe>
    4734:	20 e0       	ldi	r18, 0x00	; 0
    4736:	32 2b       	or	r19, r18
    4738:	98 0d       	add	r25, r8
    473a:	b3 2f       	mov	r27, r19
    473c:	b9 0f       	add	r27, r25
    473e:	b9 83       	std	Y+1, r27	; 0x01
    4740:	2a 81       	ldd	r18, Y+2	; 0x02
    4742:	3b 81       	ldd	r19, Y+3	; 0x03
    4744:	4c 81       	ldd	r20, Y+4	; 0x04
    4746:	5d 81       	ldd	r21, Y+5	; 0x05
    4748:	6e 81       	ldd	r22, Y+6	; 0x06
    474a:	7f 81       	ldd	r23, Y+7	; 0x07
    474c:	88 85       	ldd	r24, Y+8	; 0x08
    474e:	99 85       	ldd	r25, Y+9	; 0x09
    4750:	1a e0       	ldi	r17, 0x0A	; 10
    4752:	a1 2e       	mov	r10, r17
    4754:	bb 24       	eor	r11, r11
    4756:	cc 24       	eor	r12, r12
    4758:	dd 24       	eor	r13, r13
    475a:	ee 24       	eor	r14, r14
    475c:	ff 24       	eor	r15, r15
    475e:	00 e0       	ldi	r16, 0x00	; 0
    4760:	10 e0       	ldi	r17, 0x00	; 0
    4762:	0e 94 f0 08 	call	0x11e0	; 0x11e0 <__moddi3>
    4766:	12 2f       	mov	r17, r18
    4768:	19 0d       	add	r17, r9
    476a:	f1 e0       	ldi	r31, 0x01	; 1
    476c:	12 17       	cp	r17, r18
    476e:	08 f0       	brcs	.+2      	; 0x4772 <LCD_enuSendNumber+0x23a>
    4770:	f0 e0       	ldi	r31, 0x00	; 0
    4772:	23 2f       	mov	r18, r19
    4774:	27 0d       	add	r18, r7
    4776:	e1 e0       	ldi	r30, 0x01	; 1
    4778:	23 17       	cp	r18, r19
    477a:	08 f0       	brcs	.+2      	; 0x477e <LCD_enuSendNumber+0x246>
    477c:	e0 e0       	ldi	r30, 0x00	; 0
    477e:	bf 2f       	mov	r27, r31
    4780:	b2 0f       	add	r27, r18
    4782:	31 e0       	ldi	r19, 0x01	; 1
    4784:	b2 17       	cp	r27, r18
    4786:	08 f0       	brcs	.+2      	; 0x478a <LCD_enuSendNumber+0x252>
    4788:	30 e0       	ldi	r19, 0x00	; 0
    478a:	e3 2b       	or	r30, r19
    478c:	24 2f       	mov	r18, r20
    478e:	26 0d       	add	r18, r6
    4790:	f1 e0       	ldi	r31, 0x01	; 1
    4792:	24 17       	cp	r18, r20
    4794:	08 f0       	brcs	.+2      	; 0x4798 <LCD_enuSendNumber+0x260>
    4796:	f0 e0       	ldi	r31, 0x00	; 0
    4798:	ae 2f       	mov	r26, r30
    479a:	a2 0f       	add	r26, r18
    479c:	31 e0       	ldi	r19, 0x01	; 1
    479e:	a2 17       	cp	r26, r18
    47a0:	08 f0       	brcs	.+2      	; 0x47a4 <LCD_enuSendNumber+0x26c>
    47a2:	30 e0       	ldi	r19, 0x00	; 0
    47a4:	f3 2b       	or	r31, r19
    47a6:	25 2f       	mov	r18, r21
    47a8:	25 0d       	add	r18, r5
    47aa:	41 e0       	ldi	r20, 0x01	; 1
    47ac:	25 17       	cp	r18, r21
    47ae:	08 f0       	brcs	.+2      	; 0x47b2 <LCD_enuSendNumber+0x27a>
    47b0:	40 e0       	ldi	r20, 0x00	; 0
    47b2:	0f 2f       	mov	r16, r31
    47b4:	02 0f       	add	r16, r18
    47b6:	31 e0       	ldi	r19, 0x01	; 1
    47b8:	02 17       	cp	r16, r18
    47ba:	08 f0       	brcs	.+2      	; 0x47be <LCD_enuSendNumber+0x286>
    47bc:	30 e0       	ldi	r19, 0x00	; 0
    47be:	43 2b       	or	r20, r19
    47c0:	26 2f       	mov	r18, r22
    47c2:	24 0d       	add	r18, r4
    47c4:	51 e0       	ldi	r21, 0x01	; 1
    47c6:	26 17       	cp	r18, r22
    47c8:	08 f0       	brcs	.+2      	; 0x47cc <LCD_enuSendNumber+0x294>
    47ca:	50 e0       	ldi	r21, 0x00	; 0
    47cc:	64 2f       	mov	r22, r20
    47ce:	62 0f       	add	r22, r18
    47d0:	31 e0       	ldi	r19, 0x01	; 1
    47d2:	62 17       	cp	r22, r18
    47d4:	08 f0       	brcs	.+2      	; 0x47d8 <LCD_enuSendNumber+0x2a0>
    47d6:	30 e0       	ldi	r19, 0x00	; 0
    47d8:	53 2b       	or	r21, r19
    47da:	27 2f       	mov	r18, r23
    47dc:	23 0d       	add	r18, r3
    47de:	41 e0       	ldi	r20, 0x01	; 1
    47e0:	27 17       	cp	r18, r23
    47e2:	08 f0       	brcs	.+2      	; 0x47e6 <LCD_enuSendNumber+0x2ae>
    47e4:	40 e0       	ldi	r20, 0x00	; 0
    47e6:	52 0f       	add	r21, r18
    47e8:	31 e0       	ldi	r19, 0x01	; 1
    47ea:	52 17       	cp	r21, r18
    47ec:	08 f0       	brcs	.+2      	; 0x47f0 <LCD_enuSendNumber+0x2b8>
    47ee:	30 e0       	ldi	r19, 0x00	; 0
    47f0:	43 2b       	or	r20, r19
    47f2:	28 2f       	mov	r18, r24
    47f4:	22 0d       	add	r18, r2
    47f6:	31 e0       	ldi	r19, 0x01	; 1
    47f8:	28 17       	cp	r18, r24
    47fa:	08 f0       	brcs	.+2      	; 0x47fe <LCD_enuSendNumber+0x2c6>
    47fc:	30 e0       	ldi	r19, 0x00	; 0
    47fe:	42 0f       	add	r20, r18
    4800:	81 e0       	ldi	r24, 0x01	; 1
    4802:	42 17       	cp	r20, r18
    4804:	08 f0       	brcs	.+2      	; 0x4808 <LCD_enuSendNumber+0x2d0>
    4806:	80 e0       	ldi	r24, 0x00	; 0
    4808:	38 2b       	or	r19, r24
    480a:	e9 81       	ldd	r30, Y+1	; 0x01
    480c:	e9 0f       	add	r30, r25
    480e:	21 2e       	mov	r2, r17
    4810:	3b 2e       	mov	r3, r27
    4812:	4a 2e       	mov	r4, r26
    4814:	50 2e       	mov	r5, r16
    4816:	66 2e       	mov	r6, r22
    4818:	75 2e       	mov	r7, r21
    481a:	84 2e       	mov	r8, r20
    481c:	9e 2e       	mov	r9, r30
    481e:	93 0e       	add	r9, r19
            Copy_s64Number /= 10;
    4820:	2a 81       	ldd	r18, Y+2	; 0x02
    4822:	3b 81       	ldd	r19, Y+3	; 0x03
    4824:	4c 81       	ldd	r20, Y+4	; 0x04
    4826:	5d 81       	ldd	r21, Y+5	; 0x05
    4828:	6e 81       	ldd	r22, Y+6	; 0x06
    482a:	7f 81       	ldd	r23, Y+7	; 0x07
    482c:	88 85       	ldd	r24, Y+8	; 0x08
    482e:	99 85       	ldd	r25, Y+9	; 0x09
    4830:	ba e0       	ldi	r27, 0x0A	; 10
    4832:	ab 2e       	mov	r10, r27
    4834:	bb 24       	eor	r11, r11
    4836:	cc 24       	eor	r12, r12
    4838:	dd 24       	eor	r13, r13
    483a:	ee 24       	eor	r14, r14
    483c:	ff 24       	eor	r15, r15
    483e:	00 e0       	ldi	r16, 0x00	; 0
    4840:	10 e0       	ldi	r17, 0x00	; 0
    4842:	0e 94 c8 00 	call	0x190	; 0x190 <__divdi3>
    4846:	2a 83       	std	Y+2, r18	; 0x02
    4848:	3b 83       	std	Y+3, r19	; 0x03
    484a:	4c 83       	std	Y+4, r20	; 0x04
    484c:	5d 83       	std	Y+5, r21	; 0x05
    484e:	6e 83       	std	Y+6, r22	; 0x06
    4850:	7f 83       	std	Y+7, r23	; 0x07
    4852:	88 87       	std	Y+8, r24	; 0x08
    4854:	99 87       	std	Y+9, r25	; 0x09
        if(Copy_s64Number<0){
            Copy_s64Number*=-1;
            LCD_enuSendData('-');
        }

        while (Copy_s64Number != 0)
    4856:	82 2f       	mov	r24, r18
    4858:	83 2b       	or	r24, r19
    485a:	84 2b       	or	r24, r20
    485c:	85 2b       	or	r24, r21
    485e:	86 2b       	or	r24, r22
    4860:	87 2b       	or	r24, r23
    4862:	f8 85       	ldd	r31, Y+8	; 0x08
    4864:	8f 2b       	or	r24, r31
    4866:	89 2b       	or	r24, r25
    4868:	09 f0       	breq	.+2      	; 0x486c <LCD_enuSendNumber+0x334>
    486a:	06 cf       	rjmp	.-500    	; 0x4678 <LCD_enuSendNumber+0x140>
    486c:	1d c0       	rjmp	.+58     	; 0x48a8 <LCD_enuSendNumber+0x370>
            Copy_s64Number /= 10;
        }
        while (LOC_s64Reversed != 1)
        {

            LCD_enuSendData((LOC_s64Reversed % 10) + 48);
    486e:	91 01       	movw	r18, r2
    4870:	a2 01       	movw	r20, r4
    4872:	b3 01       	movw	r22, r6
    4874:	c4 01       	movw	r24, r8
    4876:	aa e0       	ldi	r26, 0x0A	; 10
    4878:	aa 2e       	mov	r10, r26
    487a:	bb 24       	eor	r11, r11
    487c:	cc 24       	eor	r12, r12
    487e:	dd 24       	eor	r13, r13
    4880:	ee 24       	eor	r14, r14
    4882:	ff 24       	eor	r15, r15
    4884:	00 e0       	ldi	r16, 0x00	; 0
    4886:	10 e0       	ldi	r17, 0x00	; 0
    4888:	0e 94 a2 17 	call	0x2f44	; 0x2f44 <__umoddi3>
    488c:	82 2f       	mov	r24, r18
    488e:	80 5d       	subi	r24, 0xD0	; 208
    4890:	0e 94 71 20 	call	0x40e2	; 0x40e2 <LCD_enuSendData>
            LOC_s64Reversed /= 10;
    4894:	91 01       	movw	r18, r2
    4896:	a2 01       	movw	r20, r4
    4898:	b3 01       	movw	r22, r6
    489a:	c4 01       	movw	r24, r8
    489c:	0e 94 2d 11 	call	0x225a	; 0x225a <__udivdi3>
    48a0:	19 01       	movw	r2, r18
    48a2:	2a 01       	movw	r4, r20
    48a4:	3b 01       	movw	r6, r22
    48a6:	4c 01       	movw	r8, r24
        {

            LOC_s64Reversed = (LOC_s64Reversed * 10) + (Copy_s64Number % 10);
            Copy_s64Number /= 10;
        }
        while (LOC_s64Reversed != 1)
    48a8:	81 e0       	ldi	r24, 0x01	; 1
    48aa:	28 16       	cp	r2, r24
    48ac:	01 f7       	brne	.-64     	; 0x486e <LCD_enuSendNumber+0x336>
    48ae:	33 20       	and	r3, r3
    48b0:	f1 f6       	brne	.-68     	; 0x486e <LCD_enuSendNumber+0x336>
    48b2:	44 20       	and	r4, r4
    48b4:	e1 f6       	brne	.-72     	; 0x486e <LCD_enuSendNumber+0x336>
    48b6:	55 20       	and	r5, r5
    48b8:	d1 f6       	brne	.-76     	; 0x486e <LCD_enuSendNumber+0x336>
    48ba:	66 20       	and	r6, r6
    48bc:	c1 f6       	brne	.-80     	; 0x486e <LCD_enuSendNumber+0x336>
    48be:	77 20       	and	r7, r7
    48c0:	b1 f6       	brne	.-84     	; 0x486e <LCD_enuSendNumber+0x336>
    48c2:	88 20       	and	r8, r8
    48c4:	a1 f6       	brne	.-88     	; 0x486e <LCD_enuSendNumber+0x336>
    48c6:	99 20       	and	r9, r9
    48c8:	91 f6       	brne	.-92     	; 0x486e <LCD_enuSendNumber+0x336>
    }

    Local_EnuErrorState = ES_OK;

    return Local_EnuErrorState;
}
    48ca:	81 e0       	ldi	r24, 0x01	; 1
    48cc:	29 96       	adiw	r28, 0x09	; 9
    48ce:	0f b6       	in	r0, 0x3f	; 63
    48d0:	f8 94       	cli
    48d2:	de bf       	out	0x3e, r29	; 62
    48d4:	0f be       	out	0x3f, r0	; 63
    48d6:	cd bf       	out	0x3d, r28	; 61
    48d8:	cf 91       	pop	r28
    48da:	df 91       	pop	r29
    48dc:	1f 91       	pop	r17
    48de:	0f 91       	pop	r16
    48e0:	ff 90       	pop	r15
    48e2:	ef 90       	pop	r14
    48e4:	df 90       	pop	r13
    48e6:	cf 90       	pop	r12
    48e8:	bf 90       	pop	r11
    48ea:	af 90       	pop	r10
    48ec:	9f 90       	pop	r9
    48ee:	8f 90       	pop	r8
    48f0:	7f 90       	pop	r7
    48f2:	6f 90       	pop	r6
    48f4:	5f 90       	pop	r5
    48f6:	4f 90       	pop	r4
    48f8:	3f 90       	pop	r3
    48fa:	2f 90       	pop	r2
    48fc:	08 95       	ret

000048fe <LCD_enuSendString>:

    return Local_EnuErrorState;
}

ES_t LCD_enuSendString(const u8 *Copy_u8ptrString)
{
    48fe:	1f 93       	push	r17
    4900:	cf 93       	push	r28
    4902:	df 93       	push	r29
    4904:	ec 01       	movw	r28, r24
    4906:	10 e0       	ldi	r17, 0x00	; 0
    4908:	03 c0       	rjmp	.+6      	; 0x4910 <LCD_enuSendString+0x12>
    u8 LOC_u8Iterator = 0;

    while (Copy_u8ptrString[LOC_u8Iterator] != '\0')
    {

        LCD_enuSendData(Copy_u8ptrString[LOC_u8Iterator]);
    490a:	0e 94 71 20 	call	0x40e2	; 0x40e2 <LCD_enuSendData>
        LOC_u8Iterator++;
    490e:	1f 5f       	subi	r17, 0xFF	; 255
{
    ES_t Local_EnuErrorState = ES_NOT_OK;

    u8 LOC_u8Iterator = 0;

    while (Copy_u8ptrString[LOC_u8Iterator] != '\0')
    4910:	fe 01       	movw	r30, r28
    4912:	e1 0f       	add	r30, r17
    4914:	f1 1d       	adc	r31, r1
    4916:	80 81       	ld	r24, Z
    4918:	88 23       	and	r24, r24
    491a:	b9 f7       	brne	.-18     	; 0x490a <LCD_enuSendString+0xc>
        LOC_u8Iterator++;
    }
    Local_EnuErrorState = ES_OK;

    return Local_EnuErrorState;
}
    491c:	81 e0       	ldi	r24, 0x01	; 1
    491e:	df 91       	pop	r29
    4920:	cf 91       	pop	r28
    4922:	1f 91       	pop	r17
    4924:	08 95       	ret

00004926 <LCD_enuSendCommand>:

    return Local_EnuErrorState;
}

ES_t LCD_enuSendCommand(u8 Copy_u8Command)
{
    4926:	1f 93       	push	r17
    4928:	18 2f       	mov	r17, r24
    LCD_voidSendFallingEdge();

//<<<<<<<<<<<<<<<<<<<<<<<<<<<<<<      4 Bits Mode       >>>>>>>>>>>>>>>>>>>>>>>>>>>>>>>>>
#elif LCD_MODE == 4

    DIO_Enu_SetPinValue(LCD_CONTROL_PORT, LCD_RS, DIO_u8LOW);
    492a:	81 e0       	ldi	r24, 0x01	; 1
    492c:	60 e0       	ldi	r22, 0x00	; 0
    492e:	40 e0       	ldi	r20, 0x00	; 0
    4930:	0e 94 57 29 	call	0x52ae	; 0x52ae <DIO_Enu_SetPinValue>
    DIO_Enu_SetPinValue(LCD_CONTROL_PORT, LCD_RW, DIO_u8LOW);
    4934:	81 e0       	ldi	r24, 0x01	; 1
    4936:	61 e0       	ldi	r22, 0x01	; 1
    4938:	40 e0       	ldi	r20, 0x00	; 0
    493a:	0e 94 57 29 	call	0x52ae	; 0x52ae <DIO_Enu_SetPinValue>
    DIO_Enu_WriteHighNibbles(LCD_DATA_PORT, Copy_u8Command >> 4); // send the most 4 bits of data to high nibbles
    493e:	61 2f       	mov	r22, r17
    4940:	62 95       	swap	r22
    4942:	6f 70       	andi	r22, 0x0F	; 15
    4944:	81 e0       	ldi	r24, 0x01	; 1
    4946:	0e 94 61 2a 	call	0x54c2	; 0x54c2 <DIO_Enu_WriteHighNibbles>
    LCD_voidSendFallingEdge();
    494a:	0e 94 5a 20 	call	0x40b4	; 0x40b4 <LCD_voidSendFallingEdge>
    DIO_Enu_WriteHighNibbles(LCD_DATA_PORT, Copy_u8Command); // send the least 4 bits of data to high nibbles
    494e:	81 e0       	ldi	r24, 0x01	; 1
    4950:	61 2f       	mov	r22, r17
    4952:	0e 94 61 2a 	call	0x54c2	; 0x54c2 <DIO_Enu_WriteHighNibbles>
    LCD_voidSendFallingEdge();
    4956:	0e 94 5a 20 	call	0x40b4	; 0x40b4 <LCD_voidSendFallingEdge>
    495a:	80 ed       	ldi	r24, 0xD0	; 208
    495c:	97 e0       	ldi	r25, 0x07	; 7
    495e:	01 97       	sbiw	r24, 0x01	; 1
    4960:	f1 f7       	brne	.-4      	; 0x495e <LCD_enuSendCommand+0x38>
    _delay_ms(1);

    Local_EnuErrorState = ES_OK;

    return Local_EnuErrorState;
}
    4962:	81 e0       	ldi	r24, 0x01	; 1
    4964:	1f 91       	pop	r17
    4966:	08 95       	ret

00004968 <LCD_enuClearScreen>:
}

ES_t LCD_enuClearScreen(void)
{
    ES_t Local_EnuErrorState = ES_NOT_OK;
    LCD_enuSendCommand(lcd_Clear);
    4968:	81 e0       	ldi	r24, 0x01	; 1
    496a:	0e 94 93 24 	call	0x4926	; 0x4926 <LCD_enuSendCommand>
    496e:	80 e2       	ldi	r24, 0x20	; 32
    4970:	9e e4       	ldi	r25, 0x4E	; 78
    4972:	01 97       	sbiw	r24, 0x01	; 1
    4974:	f1 f7       	brne	.-4      	; 0x4972 <LCD_enuClearScreen+0xa>
    _delay_ms(10); // wait more than 1.53 ms

    Local_EnuErrorState = ES_OK;

    return Local_EnuErrorState;
}
    4976:	81 e0       	ldi	r24, 0x01	; 1
    4978:	08 95       	ret

0000497a <LCD_enuSetPosition>:
	}
	
}

ES_t LCD_enuSetPosition(u8 Copy_u8Row, u8 Copy_u8Col)
{
    497a:	98 2f       	mov	r25, r24
    ES_t Local_EnuErrorState = ES_NOT_OK;

    u8 LOC_u8data;

    /* In These cases will set at (0,0) ==> if the user enter invalid location */
    if (Copy_u8Row > 2 || Copy_u8Row < 1 || Copy_u8Col > 16 || Copy_u8Col < 1) // check
    497c:	81 50       	subi	r24, 0x01	; 1
    497e:	82 30       	cpi	r24, 0x02	; 2
    4980:	70 f4       	brcc	.+28     	; 0x499e <LCD_enuSetPosition+0x24>
    4982:	61 31       	cpi	r22, 0x11	; 17
    4984:	60 f4       	brcc	.+24     	; 0x499e <LCD_enuSetPosition+0x24>
    4986:	66 23       	and	r22, r22
    4988:	51 f0       	breq	.+20     	; 0x499e <LCD_enuSetPosition+0x24>
    {
        LOC_u8data = lcd_SetCursor; // first location
        Local_EnuErrorState = ES_OUT_OF_RANGE;
    }

    else if (Copy_u8Row == LCD_ROW_1)
    498a:	91 30       	cpi	r25, 0x01	; 1
    498c:	19 f4       	brne	.+6      	; 0x4994 <LCD_enuSetPosition+0x1a>
    {

        LOC_u8data = ((lcd_SetCursor) + (Copy_u8Col - 1)); // Row1 -> 0x80+col-1
    498e:	86 2f       	mov	r24, r22
    4990:	81 58       	subi	r24, 0x81	; 129
    4992:	06 c0       	rjmp	.+12     	; 0x49a0 <LCD_enuSetPosition+0x26>
    }

    else if (Copy_u8Row == LCD_ROW_2)
    4994:	92 30       	cpi	r25, 0x02	; 2
    4996:	21 f4       	brne	.+8      	; 0x49a0 <LCD_enuSetPosition+0x26>
    {

        LOC_u8data = ((lcd_SetCursor) + (64) + (Copy_u8Col - 1)); // Row2 -> 0xc0+col-1
    4998:	86 2f       	mov	r24, r22
    499a:	81 54       	subi	r24, 0x41	; 65
    499c:	01 c0       	rjmp	.+2      	; 0x49a0 <LCD_enuSetPosition+0x26>
    499e:	80 e8       	ldi	r24, 0x80	; 128
    }
    LCD_enuSendCommand(LOC_u8data);
    49a0:	0e 94 93 24 	call	0x4926	; 0x4926 <LCD_enuSendCommand>
    49a4:	80 ed       	ldi	r24, 0xD0	; 208
    49a6:	97 e0       	ldi	r25, 0x07	; 7
    49a8:	01 97       	sbiw	r24, 0x01	; 1
    49aa:	f1 f7       	brne	.-4      	; 0x49a8 <LCD_enuSetPosition+0x2e>
    _delay_ms(1);

    Local_EnuErrorState = ES_OK;

    return Local_EnuErrorState;
}
    49ac:	81 e0       	ldi	r24, 0x01	; 1
    49ae:	08 95       	ret

000049b0 <LCD_enuSendExtraChar>:

ES_t LCD_enuSendExtraChar(u8 Copy_u8Row, u8 Copy_u8Col)
{
    49b0:	0f 93       	push	r16
    49b2:	1f 93       	push	r17
    49b4:	cf 93       	push	r28
    49b6:	df 93       	push	r29
    49b8:	18 2f       	mov	r17, r24
    49ba:	06 2f       	mov	r16, r22
    ES_t Local_EnuErrorState = ES_NOT_OK;

    u8 LOC_u8Iterator = 0;
    /* 1- Go To CGRAM            */
    LCD_enuSendCommand(lcd_CGRAM); // Make AC refers to the first Place/Address at CGRAM
    49bc:	80 e4       	ldi	r24, 0x40	; 64
    49be:	0e 94 93 24 	call	0x4926	; 0x4926 <LCD_enuSendCommand>
    49c2:	cc e7       	ldi	r28, 0x7C	; 124
    49c4:	d1 e0       	ldi	r29, 0x01	; 1
    /* 2- Draw Character in CGRAM        */
    /* Hint : it will be copied to DDRAM automatically */
    for (LOC_u8Iterator = 0; LOC_u8Iterator < sizeof(LCD_u8ExtraChar) / sizeof(LCD_u8ExtraChar[0]); LOC_u8Iterator++)
    {

        LCD_enuSendData(LCD_u8ExtraChar[LOC_u8Iterator]);
    49c6:	89 91       	ld	r24, Y+
    49c8:	0e 94 71 20 	call	0x40e2	; 0x40e2 <LCD_enuSendData>
    /* 1- Go To CGRAM            */
    LCD_enuSendCommand(lcd_CGRAM); // Make AC refers to the first Place/Address at CGRAM

    /* 2- Draw Character in CGRAM        */
    /* Hint : it will be copied to DDRAM automatically */
    for (LOC_u8Iterator = 0; LOC_u8Iterator < sizeof(LCD_u8ExtraChar) / sizeof(LCD_u8ExtraChar[0]); LOC_u8Iterator++)
    49cc:	81 e0       	ldi	r24, 0x01	; 1
    49ce:	cc 39       	cpi	r28, 0x9C	; 156
    49d0:	d8 07       	cpc	r29, r24
    49d2:	c9 f7       	brne	.-14     	; 0x49c6 <LCD_enuSendExtraChar+0x16>

        LCD_enuSendData(LCD_u8ExtraChar[LOC_u8Iterator]);
    }

    /* 3- Back (AC) To DDRAM          */
    LCD_enuSetPosition(Copy_u8Row, Copy_u8Col);
    49d4:	81 2f       	mov	r24, r17
    49d6:	60 2f       	mov	r22, r16
    49d8:	0e 94 bd 24 	call	0x497a	; 0x497a <LCD_enuSetPosition>
    49dc:	10 e0       	ldi	r17, 0x00	; 0

    /* 4- Send Character Address */
    for (LOC_u8Iterator = 0; LOC_u8Iterator < 8; LOC_u8Iterator++)
    {

        LCD_enuSendData(LOC_u8Iterator);
    49de:	81 2f       	mov	r24, r17
    49e0:	0e 94 71 20 	call	0x40e2	; 0x40e2 <LCD_enuSendData>

    /* 3- Back (AC) To DDRAM          */
    LCD_enuSetPosition(Copy_u8Row, Copy_u8Col);

    /* 4- Send Character Address */
    for (LOC_u8Iterator = 0; LOC_u8Iterator < 8; LOC_u8Iterator++)
    49e4:	1f 5f       	subi	r17, 0xFF	; 255
    49e6:	18 30       	cpi	r17, 0x08	; 8
    49e8:	d1 f7       	brne	.-12     	; 0x49de <LCD_enuSendExtraChar+0x2e>
        LCD_enuSendData(LOC_u8Iterator);
    }
    Local_EnuErrorState = ES_OK;

    return Local_EnuErrorState;
}
    49ea:	81 e0       	ldi	r24, 0x01	; 1
    49ec:	df 91       	pop	r29
    49ee:	cf 91       	pop	r28
    49f0:	1f 91       	pop	r17
    49f2:	0f 91       	pop	r16
    49f4:	08 95       	ret

000049f6 <LCD_enuInit>:
#include "LCD_CONFIG.h"
#define F_CPU 8000000UL
#include <util/delay.h>

ES_t LCD_enuInit(void)
{
    49f6:	0f 93       	push	r16
    49f8:	1f 93       	push	r17
    49fa:	84 ef       	ldi	r24, 0xF4	; 244
    49fc:	91 e0       	ldi	r25, 0x01	; 1
    49fe:	28 ec       	ldi	r18, 0xC8	; 200
    4a00:	30 e0       	ldi	r19, 0x00	; 0
    4a02:	f9 01       	movw	r30, r18
    4a04:	31 97       	sbiw	r30, 0x01	; 1
    4a06:	f1 f7       	brne	.-4      	; 0x4a04 <LCD_enuInit+0xe>
		__ticks = (uint16_t) (__ms * 10.0);
		while(__ticks)
		{
			// wait 1/10 ms
			_delay_loop_2(((F_CPU) / 4e3) / 10);
			__ticks --;
    4a08:	01 97       	sbiw	r24, 0x01	; 1
		__ticks = 1;
	else if (__tmp > 65535)
	{
		//	__ticks = requested delay in 1/10 ms
		__ticks = (uint16_t) (__ms * 10.0);
		while(__ticks)
    4a0a:	d9 f7       	brne	.-10     	; 0x4a02 <LCD_enuInit+0xc>

#elif LCD_MODE == 4

    // 1- must wait more than 30 ms before any action (VDD rises to 4.5 v)
    _delay_ms(50);
    DIO_Enu_SetPinDirection(LCD_DATA_PORT, DIO_u8PIN4, DIO_u8OUTPUT);
    4a0c:	81 e0       	ldi	r24, 0x01	; 1
    4a0e:	64 e0       	ldi	r22, 0x04	; 4
    4a10:	41 e0       	ldi	r20, 0x01	; 1
    4a12:	0e 94 ed 28 	call	0x51da	; 0x51da <DIO_Enu_SetPinDirection>
    DIO_Enu_SetPinDirection(LCD_DATA_PORT, DIO_u8PIN5, DIO_u8OUTPUT);
    4a16:	81 e0       	ldi	r24, 0x01	; 1
    4a18:	65 e0       	ldi	r22, 0x05	; 5
    4a1a:	41 e0       	ldi	r20, 0x01	; 1
    4a1c:	0e 94 ed 28 	call	0x51da	; 0x51da <DIO_Enu_SetPinDirection>
    DIO_Enu_SetPinDirection(LCD_DATA_PORT, DIO_u8PIN6, DIO_u8OUTPUT);
    4a20:	81 e0       	ldi	r24, 0x01	; 1
    4a22:	66 e0       	ldi	r22, 0x06	; 6
    4a24:	41 e0       	ldi	r20, 0x01	; 1
    4a26:	0e 94 ed 28 	call	0x51da	; 0x51da <DIO_Enu_SetPinDirection>
    DIO_Enu_SetPinDirection(LCD_DATA_PORT, DIO_u8PIN7, DIO_u8OUTPUT);
    4a2a:	81 e0       	ldi	r24, 0x01	; 1
    4a2c:	67 e0       	ldi	r22, 0x07	; 7
    4a2e:	41 e0       	ldi	r20, 0x01	; 1
    4a30:	0e 94 ed 28 	call	0x51da	; 0x51da <DIO_Enu_SetPinDirection>
    DIO_Enu_SetPinDirection(LCD_CONTROL_PORT, LCD_RS, DIO_u8OUTPUT);
    4a34:	81 e0       	ldi	r24, 0x01	; 1
    4a36:	60 e0       	ldi	r22, 0x00	; 0
    4a38:	41 e0       	ldi	r20, 0x01	; 1
    4a3a:	0e 94 ed 28 	call	0x51da	; 0x51da <DIO_Enu_SetPinDirection>
    DIO_Enu_SetPinDirection(LCD_CONTROL_PORT, LCD_RW, DIO_u8OUTPUT);
    4a3e:	81 e0       	ldi	r24, 0x01	; 1
    4a40:	61 e0       	ldi	r22, 0x01	; 1
    4a42:	41 e0       	ldi	r20, 0x01	; 1
    4a44:	0e 94 ed 28 	call	0x51da	; 0x51da <DIO_Enu_SetPinDirection>
    DIO_Enu_SetPinDirection(LCD_CONTROL_PORT, LCD_EN, DIO_u8OUTPUT);
    4a48:	81 e0       	ldi	r24, 0x01	; 1
    4a4a:	62 e0       	ldi	r22, 0x02	; 2
    4a4c:	41 e0       	ldi	r20, 0x01	; 1
    4a4e:	0e 94 ed 28 	call	0x51da	; 0x51da <DIO_Enu_SetPinDirection>

    /*return home*/
    LCD_enuSendCommand(lcd_Home);
    4a52:	82 e0       	ldi	r24, 0x02	; 2
    4a54:	0e 94 93 24 	call	0x4926	; 0x4926 <LCD_enuSendCommand>
    4a58:	80 e6       	ldi	r24, 0x60	; 96
    4a5a:	9a ee       	ldi	r25, 0xEA	; 234
    4a5c:	01 97       	sbiw	r24, 0x01	; 1
    4a5e:	f1 f7       	brne	.-4      	; 0x4a5c <LCD_enuInit+0x66>
    _delay_ms(30);

    /*FUNCTION SET Command*/
    LCD_enuSendCommand(FOUR_BITS); // 4 Bit Mode
    4a60:	88 e2       	ldi	r24, 0x28	; 40
    4a62:	0e 94 93 24 	call	0x4926	; 0x4926 <LCD_enuSendCommand>
    4a66:	00 ed       	ldi	r16, 0xD0	; 208
    4a68:	17 e0       	ldi	r17, 0x07	; 7
    4a6a:	c8 01       	movw	r24, r16
    4a6c:	01 97       	sbiw	r24, 0x01	; 1
    4a6e:	f1 f7       	brne	.-4      	; 0x4a6c <LCD_enuInit+0x76>
    _delay_ms(1);

    /* DISPLAY & Cursor (ON / OFF) Control */
    LCD_enuSendCommand(lcd_DisplayOn_CursorOff);
    4a70:	8c e0       	ldi	r24, 0x0C	; 12
    4a72:	0e 94 93 24 	call	0x4926	; 0x4926 <LCD_enuSendCommand>
    4a76:	c8 01       	movw	r24, r16
    4a78:	01 97       	sbiw	r24, 0x01	; 1
    4a7a:	f1 f7       	brne	.-4      	; 0x4a78 <LCD_enuInit+0x82>
    _delay_ms(1);

    /* DISPLAY CLEAR */
    LCD_enuClearScreen();
    4a7c:	0e 94 b4 24 	call	0x4968	; 0x4968 <LCD_enuClearScreen>

    /* ENTRY MODE  Set*/
    LCD_enuSendCommand(lcd_EntryMode);
    4a80:	86 e0       	ldi	r24, 0x06	; 6
    4a82:	0e 94 93 24 	call	0x4926	; 0x4926 <LCD_enuSendCommand>
    4a86:	c8 01       	movw	r24, r16
    4a88:	01 97       	sbiw	r24, 0x01	; 1
    4a8a:	f1 f7       	brne	.-4      	; 0x4a88 <LCD_enuInit+0x92>
#endif

    Local_EnuErrorState = ES_OK;

    return Local_EnuErrorState;
}
    4a8c:	81 e0       	ldi	r24, 0x01	; 1
    4a8e:	1f 91       	pop	r17
    4a90:	0f 91       	pop	r16
    4a92:	08 95       	ret

00004a94 <TIMER0_voidInit>:
{
	/*Set Configurable Modes*/
		#if TIMER0_WAVEFORM_GENERATION_MODE == TIMER_NORMAL_MODE

			/*Initialize Waveform Generation Mode as Normal Mode*/
			CLR_BIT(TCCR0 , TCCR0_WGM00) ;
    4a94:	83 b7       	in	r24, 0x33	; 51
    4a96:	8f 7b       	andi	r24, 0xBF	; 191
    4a98:	83 bf       	out	0x33, r24	; 51
			CLR_BIT(TCCR0 , TCCR0_WGM01) ;
    4a9a:	83 b7       	in	r24, 0x33	; 51
    4a9c:	87 7f       	andi	r24, 0xF7	; 247
    4a9e:	83 bf       	out	0x33, r24	; 51

			/*Set the Required Preload Value*/
			TCNT0 = TIMER0_PRELOAD_VAL ;
    4aa0:	12 be       	out	0x32, r1	; 50

			/*Timer0 Overflow Interrupt Enable*/
			#if TIMER0_OVERFLOW_INTERRUPT == DISABLE
				CLR_BIT(TIMSK , TIMSK_TOIE0) ;
			#elif TIMER0_OVERFLOW_INTERRUPT == ENABLE
				SET_BIT(TIMSK , TIMSK_TOIE0) ;
    4aa2:	89 b7       	in	r24, 0x39	; 57
    4aa4:	81 60       	ori	r24, 0x01	; 1
    4aa6:	89 bf       	out	0x39, r24	; 57
			#error "Wrong TIMER0_WAVEFORM_GENERATION_MODE Config"

		#endif

	/*Set the Required Prescaler*/
	TCCR0 &= TIMER_PRESCALER_MASK ;
    4aa8:	83 b7       	in	r24, 0x33	; 51
    4aaa:	88 7f       	andi	r24, 0xF8	; 248
    4aac:	83 bf       	out	0x33, r24	; 51
	TCCR0 |= TIMER0_PRESCALER ;
    4aae:	83 b7       	in	r24, 0x33	; 51
    4ab0:	82 60       	ori	r24, 0x02	; 2
    4ab2:	83 bf       	out	0x33, r24	; 51
}
    4ab4:	08 95       	ret

00004ab6 <TIMER1_voidInit>:
	/*Set Configurable Modes*/

		#if TIMER1_WAVEFORM_GENERATION_MODE == TIMER1_NORMAL_MODE

			/*Set Waveform generation mode as Normal mode */
			CLR_BIT(TCCR1A,TCCR1A_WGM10);
    4ab6:	8f b5       	in	r24, 0x2f	; 47
    4ab8:	8e 7f       	andi	r24, 0xFE	; 254
    4aba:	8f bd       	out	0x2f, r24	; 47
			CLR_BIT(TCCR1A,TCCR1A_WGM11);
    4abc:	8f b5       	in	r24, 0x2f	; 47
    4abe:	8d 7f       	andi	r24, 0xFD	; 253
    4ac0:	8f bd       	out	0x2f, r24	; 47
			CLR_BIT(TCCR1B,TCCR1B_WGM12);
    4ac2:	8e b5       	in	r24, 0x2e	; 46
    4ac4:	87 7f       	andi	r24, 0xF7	; 247
    4ac6:	8e bd       	out	0x2e, r24	; 46
			CLR_BIT(TCCR1B,TCCR1B_WGM13);
    4ac8:	8e b5       	in	r24, 0x2e	; 46
    4aca:	8f 7e       	andi	r24, 0xEF	; 239
    4acc:	8e bd       	out	0x2e, r24	; 46

			/*Set the require Preload Value*/
			TCNT1 = TIMER1_PRELOAD_VAL ;
    4ace:	1d bc       	out	0x2d, r1	; 45
    4ad0:	1c bc       	out	0x2c, r1	; 44

			/*Timer1 Overflow Interrupt Enable*/
			#if TIMER1_OVERFLOW_INTERRUPT == DISABLE
				CLR_BIT(TIMSK , TIMSK_TOIE1) ;
			#elif TIMER1_OVERFLOW_INTERRUPT == ENABLE
				SET_BIT(TIMSK , TIMSK_TOIE1) ;
    4ad2:	89 b7       	in	r24, 0x39	; 57
    4ad4:	84 60       	ori	r24, 0x04	; 4
    4ad6:	89 bf       	out	0x39, r24	; 57
		#else
			#error "Wrong TIMER1_WAVEFORM_GENERATION_MODE Config"
		#endif

	/*Set the Required Prescaler*/
	TCCR1B &= TIMER_PRESCALER_MASK ;
    4ad8:	8e b5       	in	r24, 0x2e	; 46
    4ada:	88 7f       	andi	r24, 0xF8	; 248
    4adc:	8e bd       	out	0x2e, r24	; 46
	TCCR1B |= TIMER1_PRESCALER ;
    4ade:	8e b5       	in	r24, 0x2e	; 46
    4ae0:	82 60       	ori	r24, 0x02	; 2
    4ae2:	8e bd       	out	0x2e, r24	; 46


}
    4ae4:	08 95       	ret

00004ae6 <TIMER2_voidInit>:
			OCR2 = TIMER2_CTC_VAL ;

		#elif TIMER2_WAVEFORM_GENERATION_MODE == TIMER_CTC_MODE

			/*Initialize Waveform Generation Mode as CTC Mode*/
			CLR_BIT(TCCR2 , TCCR2_WGM20) ;
    4ae6:	85 b5       	in	r24, 0x25	; 37
    4ae8:	8f 7b       	andi	r24, 0xBF	; 191
    4aea:	85 bd       	out	0x25, r24	; 37
			SET_BIT(TCCR2 , TCCR2_WGM21) ;
    4aec:	85 b5       	in	r24, 0x25	; 37
    4aee:	88 60       	ori	r24, 0x08	; 8
    4af0:	85 bd       	out	0x25, r24	; 37

			/*Set the Required CTC Value*/
			OCR2 = TIMER2_CTC_VAL ;
    4af2:	8a ef       	ldi	r24, 0xFA	; 250
    4af4:	83 bd       	out	0x23, r24	; 35
            /*Set OCR2 mode*/
            #if TIMER2_OC2_MODE == TIMER_OC_DISCONNECTED
            CLR_BIT(TCCR2 , TCCR2_COM20) ;
    4af6:	85 b5       	in	r24, 0x25	; 37
    4af8:	8f 7e       	andi	r24, 0xEF	; 239
    4afa:	85 bd       	out	0x25, r24	; 37
            CLR_BIT(TCCR2 , TCCR2_COM21) ;
    4afc:	85 b5       	in	r24, 0x25	; 37
    4afe:	8f 7d       	andi	r24, 0xDF	; 223
    4b00:	85 bd       	out	0x25, r24	; 37
            #endif
			/*Timer2 Compare Match Interrupt Enable*/
			#if TIMER2_CTC_INTERRUPT == DISABLE
				CLR_BIT(TIMSK , TIMSK_OCIE2) ;
			#elif TIMER2_CTC_INTERRUPT == ENABLE
				SET_BIT(TIMSK , TIMSK_OCIE2) ;
    4b02:	89 b7       	in	r24, 0x39	; 57
    4b04:	80 68       	ori	r24, 0x80	; 128
    4b06:	89 bf       	out	0x39, r24	; 57
			#error "Wrong TIMER2_WAVEFORM_GENERATION_MODE Config"

		#endif

	/*Set the Required Prescaler*/
	TCCR2 &= TIMER_PRESCALER_MASK ;
    4b08:	85 b5       	in	r24, 0x25	; 37
    4b0a:	88 7f       	andi	r24, 0xF8	; 248
    4b0c:	85 bd       	out	0x25, r24	; 37
	TCCR2 |= TIMER2_PRESCALER ;
    4b0e:	85 b5       	in	r24, 0x25	; 37
    4b10:	82 60       	ori	r24, 0x02	; 2
    4b12:	85 bd       	out	0x25, r24	; 37
}
    4b14:	08 95       	ret

00004b16 <TIMER0_voidSetPreload>:

/*******************************************************************************************************************/
void TIMER0_voidSetPreload (u8 Copy_u8Preload)
{
	TCNT0 = Copy_u8Preload ;
    4b16:	82 bf       	out	0x32, r24	; 50
}
    4b18:	08 95       	ret

00004b1a <TIMER1_voidSetPreload>:

void TIMER1_voidSetPreload (u16 Copy_u16Preload)
{
	TCNT1 = Copy_u16Preload ;
    4b1a:	9d bd       	out	0x2d, r25	; 45
    4b1c:	8c bd       	out	0x2c, r24	; 44
}
    4b1e:	08 95       	ret

00004b20 <TIMER2_voidSetPreload>:


void TIMER2_voidSetPreload (u8 Copy_u8Preload)
{
	TCNT2 = Copy_u8Preload ;
    4b20:	84 bd       	out	0x24, r24	; 36
}
    4b22:	08 95       	ret

00004b24 <TIMER0_voidSetCTC>:

void TIMER0_voidSetCTC (u8 Copy_u8CTC)
{
	OCR0 = Copy_u8CTC ;
    4b24:	8c bf       	out	0x3c, r24	; 60
}
    4b26:	08 95       	ret

00004b28 <TIMER1_voidSetCTCA>:

void TIMER1_voidSetCTCA (u16 Copy_u16CTCA)//ton
{
	OCR1A = Copy_u16CTCA ;
    4b28:	9b bd       	out	0x2b, r25	; 43
    4b2a:	8a bd       	out	0x2a, r24	; 42
}
    4b2c:	08 95       	ret

00004b2e <TIMER1_voidSetCTCB>:

void TIMER1_voidSetCTCB (u16 Copy_u16CTCB)
{
	OCR1B = Copy_u16CTCB ;
    4b2e:	99 bd       	out	0x29, r25	; 41
    4b30:	88 bd       	out	0x28, r24	; 40
}
    4b32:	08 95       	ret

00004b34 <TIMER2_voidSetCTC>:

void TIMER2_voidSetCTC (u8 Copy_u8CTC)
{
	OCR2 = Copy_u8CTC ;
    4b34:	83 bd       	out	0x23, r24	; 35
}
    4b36:	08 95       	ret

00004b38 <TIMER1_voidSetICR1>:

void TIMER1_voidSetICR1 (u16 Copy_u16ICR1)//period
{
	ICR1 = Copy_u16ICR1 ;
    4b38:	97 bd       	out	0x27, r25	; 39
    4b3a:	86 bd       	out	0x26, r24	; 38
}
    4b3c:	08 95       	ret

00004b3e <TIMER0_u8GetTimerCounterValue>:

u8 TIMER0_u8GetTimerCounterValue (void)
{
	return TCNT0 ;
    4b3e:	82 b7       	in	r24, 0x32	; 50
}
    4b40:	08 95       	ret

00004b42 <TIMER1_u16GetTimerCounterValue>:

u16 TIMER1_u16GetTimerCounterValue (void)
{
	return TCNT1 ;
    4b42:	2c b5       	in	r18, 0x2c	; 44
    4b44:	3d b5       	in	r19, 0x2d	; 45
}
    4b46:	c9 01       	movw	r24, r18
    4b48:	08 95       	ret

00004b4a <TIMER2_u8GetTimerCounterValue>:

u8 TIMER2_u8GetTimerCounterValue (void)
{
	return TCNT2 ;
    4b4a:	84 b5       	in	r24, 0x24	; 36
}
    4b4c:	08 95       	ret

00004b4e <GET_PERSCALER_SELECT>:
	prescaler=1024;
#endif

#endif
return prescaler;
}
    4b4e:	88 e0       	ldi	r24, 0x08	; 8
    4b50:	08 95       	ret

00004b52 <Generate_PWM_SW>:

void Generate_PWM_SW(u32 freq,u8 duty){
    4b52:	af 92       	push	r10
    4b54:	bf 92       	push	r11
    4b56:	cf 92       	push	r12
    4b58:	df 92       	push	r13
    4b5a:	ef 92       	push	r14
    4b5c:	ff 92       	push	r15
    4b5e:	0f 93       	push	r16
    4b60:	1f 93       	push	r17
    4b62:	7b 01       	movw	r14, r22
    4b64:	8c 01       	movw	r16, r24
    4b66:	a4 2e       	mov	r10, r20
	u32 top ;
	u16 temp_OCR;
#if GENERATE_PWM_PIN == OC1A
	TIMER1_voidInit();
    4b68:	0e 94 5b 25 	call	0x4ab6	; 0x4ab6 <TIMER1_voidInit>
	top = (F_CPU / (freq * GET_PERSCALER_SELECT(TIMER1))) - 1;
    4b6c:	83 e0       	ldi	r24, 0x03	; 3
    4b6e:	ee 0c       	add	r14, r14
    4b70:	ff 1c       	adc	r15, r15
    4b72:	00 1f       	adc	r16, r16
    4b74:	11 1f       	adc	r17, r17
    4b76:	8a 95       	dec	r24
    4b78:	d1 f7       	brne	.-12     	; 0x4b6e <Generate_PWM_SW+0x1c>
    4b7a:	60 e0       	ldi	r22, 0x00	; 0
    4b7c:	72 e1       	ldi	r23, 0x12	; 18
    4b7e:	8a e7       	ldi	r24, 0x7A	; 122
    4b80:	90 e0       	ldi	r25, 0x00	; 0
    4b82:	a8 01       	movw	r20, r16
    4b84:	97 01       	movw	r18, r14
    4b86:	0e 94 c9 2a 	call	0x5592	; 0x5592 <__udivmodsi4>
    4b8a:	79 01       	movw	r14, r18
    4b8c:	8a 01       	movw	r16, r20
	temp_OCR=(duty * (top + 1)) / 100 - 1;
    4b8e:	bb 24       	eor	r11, r11
    4b90:	cc 24       	eor	r12, r12
    4b92:	dd 24       	eor	r13, r13
    4b94:	ca 01       	movw	r24, r20
    4b96:	b9 01       	movw	r22, r18
    4b98:	a6 01       	movw	r20, r12
    4b9a:	95 01       	movw	r18, r10
    4b9c:	0e 94 aa 2a 	call	0x5554	; 0x5554 <__mulsi3>
    4ba0:	24 e6       	ldi	r18, 0x64	; 100
    4ba2:	30 e0       	ldi	r19, 0x00	; 0
    4ba4:	40 e0       	ldi	r20, 0x00	; 0
    4ba6:	50 e0       	ldi	r21, 0x00	; 0
    4ba8:	0e 94 c9 2a 	call	0x5592	; 0x5592 <__udivmodsi4>
    4bac:	21 50       	subi	r18, 0x01	; 1
    4bae:	30 40       	sbci	r19, 0x00	; 0
void Generate_PWM_SW(u32 freq,u8 duty){
	u32 top ;
	u16 temp_OCR;
#if GENERATE_PWM_PIN == OC1A
	TIMER1_voidInit();
	top = (F_CPU / (freq * GET_PERSCALER_SELECT(TIMER1))) - 1;
    4bb0:	08 94       	sec
    4bb2:	e1 08       	sbc	r14, r1
    4bb4:	f1 08       	sbc	r15, r1
    4bb6:	01 09       	sbc	r16, r1
    4bb8:	11 09       	sbc	r17, r1
	OCR2 = Copy_u8CTC ;
}

void TIMER1_voidSetICR1 (u16 Copy_u16ICR1)//period
{
	ICR1 = Copy_u16ICR1 ;
    4bba:	f7 bc       	out	0x27, r15	; 39
    4bbc:	e6 bc       	out	0x26, r14	; 38
	OCR0 = Copy_u8CTC ;
}

void TIMER1_voidSetCTCA (u16 Copy_u16CTCA)//ton
{
	OCR1A = Copy_u16CTCA ;
    4bbe:	3b bd       	out	0x2b, r19	; 43
    4bc0:	2a bd       	out	0x2a, r18	; 42
	top = (F_CPU / (freq * GET_PERSCALER_SELECT(TIMER1))) - 1;
	temp_OCR=(duty * (top + 1)) / 100 - 1;
	TIMER1_voidSetICR1(top);
	TIMER1_voidSetCTCB(temp_OCR);
#endif
}
    4bc2:	1f 91       	pop	r17
    4bc4:	0f 91       	pop	r16
    4bc6:	ff 90       	pop	r15
    4bc8:	ef 90       	pop	r14
    4bca:	df 90       	pop	r13
    4bcc:	cf 90       	pop	r12
    4bce:	bf 90       	pop	r11
    4bd0:	af 90       	pop	r10
    4bd2:	08 95       	ret

00004bd4 <TIMER_voidSetPWM>:

void TIMER_voidSetPWM(u16 Copy_u16CompareValue)
{
	OCR1A = Copy_u16CompareValue;
    4bd4:	9b bd       	out	0x2b, r25	; 43
    4bd6:	8a bd       	out	0x2a, r24	; 42
}
    4bd8:	08 95       	ret

00004bda <TIMER_voidICUInitEnable>:
*/
void TIMER_voidICUInitEnable(void)
{
	/* Set trigger source as rising edge Initially  */
	#if (TIMER_u8_ICP_INIT_STATE == TIMER_u8_ICP_RAISING_EDGE)
		SET_BIT(TCCR1B,TCCR1B_ICES1);
    4bda:	8e b5       	in	r24, 0x2e	; 46
    4bdc:	80 64       	ori	r24, 0x40	; 64
    4bde:	8e bd       	out	0x2e, r24	; 46
	#elif(TIMER_u8_ICP_INIT_STATE == TIMER_u8_ICP_FALLING_EDGE)
		CLR_BIT(TCCR1B,TCCR1B_ICES1);
	#endif

	/* Enable Interrupt of ICU */
	SET_BIT(TIMSK,TIMSK_TICIE1);
    4be0:	89 b7       	in	r24, 0x39	; 57
    4be2:	80 62       	ori	r24, 0x20	; 32
    4be4:	89 bf       	out	0x39, r24	; 57
}
    4be6:	08 95       	ret

00004be8 <TIMER_voidICUSetTriggerEdge>:
ES_t TIMER_voidICUSetTriggerEdge(u8 Copy_u8Edge)
{
	ES_t Local_u8ErrorStatus = ES_OK ;

	/* Change The trigger source as Rising edge or Falling edge */
	if (Copy_u8Edge == TIMER_u8_ICP_RAISING_EDGE)
    4be8:	81 30       	cpi	r24, 0x01	; 1
    4bea:	29 f4       	brne	.+10     	; 0x4bf6 <TIMER_voidICUSetTriggerEdge+0xe>
	{
		SET_BIT(TCCR1B,TCCR1B_ICES1);
    4bec:	8e b5       	in	r24, 0x2e	; 46
    4bee:	80 64       	ori	r24, 0x40	; 64
    4bf0:	8e bd       	out	0x2e, r24	; 46
    4bf2:	81 e0       	ldi	r24, 0x01	; 1
    4bf4:	08 95       	ret
	}
	else if(Copy_u8Edge == TIMER_u8_ICP_FALLING_EDGE)
    4bf6:	88 23       	and	r24, r24
    4bf8:	11 f0       	breq	.+4      	; 0x4bfe <TIMER_voidICUSetTriggerEdge+0x16>
    4bfa:	80 e0       	ldi	r24, 0x00	; 0
    4bfc:	08 95       	ret
	{
		CLR_BIT(TCCR1B,TCCR1B_ICES1);
    4bfe:	8e b5       	in	r24, 0x2e	; 46
    4c00:	8f 7b       	andi	r24, 0xBF	; 191
    4c02:	8e bd       	out	0x2e, r24	; 46
    4c04:	81 e0       	ldi	r24, 0x01	; 1
	{
		Local_u8ErrorStatus = ES_NOT_OK ;
	}
	return Local_u8ErrorStatus;

}
    4c06:	08 95       	ret

00004c08 <TIMER_voidICUEnableInterrupt>:

//----------------------------------------------------------------------------------------------------------------------------------------------------

void TIMER_voidICUEnableInterrupt(void)
{
	SET_BIT(TIMSK,TIMSK_TICIE1);
    4c08:	89 b7       	in	r24, 0x39	; 57
    4c0a:	80 62       	ori	r24, 0x20	; 32
    4c0c:	89 bf       	out	0x39, r24	; 57
}
    4c0e:	08 95       	ret

00004c10 <TIMER_voidICUDisableInterrupt>:

//----------------------------------------------------------------------------------------------------------------------------------------------------

void TIMER_voidICUDisableInterrupt(void)
{
	CLR_BIT(TIMSK,TIMSK_TICIE1);
    4c10:	89 b7       	in	r24, 0x39	; 57
    4c12:	8f 7d       	andi	r24, 0xDF	; 223
    4c14:	89 bf       	out	0x39, r24	; 57
}
    4c16:	08 95       	ret

00004c18 <Timer0_OV_InterruptEnable>:

//----------------------------------------------------------------------------------------------------------------------------------------------------
void Timer0_OV_InterruptEnable(void)
{
	SET_BIT(TIMSK,TIMSK_TOIE0);
    4c18:	89 b7       	in	r24, 0x39	; 57
    4c1a:	81 60       	ori	r24, 0x01	; 1
    4c1c:	89 bf       	out	0x39, r24	; 57
}
    4c1e:	08 95       	ret

00004c20 <Timer0_OV_InterruptDisable>:
void Timer0_OV_InterruptDisable(void)
{
	CLR_BIT(TIMSK,TIMSK_TOIE0);
    4c20:	89 b7       	in	r24, 0x39	; 57
    4c22:	8e 7f       	andi	r24, 0xFE	; 254
    4c24:	89 bf       	out	0x39, r24	; 57
}
    4c26:	08 95       	ret

00004c28 <Timer0_OC_InterruptEnable>:
void Timer0_OC_InterruptEnable(void)
{
	SET_BIT(TIMSK,TIMSK_OCIE0);
    4c28:	89 b7       	in	r24, 0x39	; 57
    4c2a:	82 60       	ori	r24, 0x02	; 2
    4c2c:	89 bf       	out	0x39, r24	; 57
}
    4c2e:	08 95       	ret

00004c30 <Timer0_OC_InterruptDisable>:

void Timer0_OC_InterruptDisable(void)
{
	CLR_BIT(TIMSK,TIMSK_OCIE0);
    4c30:	89 b7       	in	r24, 0x39	; 57
    4c32:	8d 7f       	andi	r24, 0xFD	; 253
    4c34:	89 bf       	out	0x39, r24	; 57
}
    4c36:	08 95       	ret

00004c38 <Timer1_OVF_InterruptEnable>:

void Timer1_OVF_InterruptEnable(void)
{
	SET_BIT(TIMSK,TIMSK_TOIE1);
    4c38:	89 b7       	in	r24, 0x39	; 57
    4c3a:	84 60       	ori	r24, 0x04	; 4
    4c3c:	89 bf       	out	0x39, r24	; 57
}
    4c3e:	08 95       	ret

00004c40 <Timer1_OVF_InterruptDisable>:
void Timer1_OVF_InterruptDisable(void)
{
	CLR_BIT(TIMSK,TIMSK_TOIE1);
    4c40:	89 b7       	in	r24, 0x39	; 57
    4c42:	8b 7f       	andi	r24, 0xFB	; 251
    4c44:	89 bf       	out	0x39, r24	; 57
}
    4c46:	08 95       	ret

00004c48 <Timer1_OCA_InterruptEnable>:
void Timer1_OCA_InterruptEnable(void)
{
	SET_BIT(TIMSK,TIMSK_OCIE1A);
    4c48:	89 b7       	in	r24, 0x39	; 57
    4c4a:	80 61       	ori	r24, 0x10	; 16
    4c4c:	89 bf       	out	0x39, r24	; 57
}
    4c4e:	08 95       	ret

00004c50 <Timer1_OCA_InterruptDisable>:
void Timer1_OCA_InterruptDisable(void)
{
	CLR_BIT(TIMSK,TIMSK_OCIE1A);
    4c50:	89 b7       	in	r24, 0x39	; 57
    4c52:	8f 7e       	andi	r24, 0xEF	; 239
    4c54:	89 bf       	out	0x39, r24	; 57
}
    4c56:	08 95       	ret

00004c58 <Timer1_OCB_InterruptEnable>:
void Timer1_OCB_InterruptEnable(void)
{
	SET_BIT(TIMSK,TIMSK_OCIE1B);
    4c58:	89 b7       	in	r24, 0x39	; 57
    4c5a:	88 60       	ori	r24, 0x08	; 8
    4c5c:	89 bf       	out	0x39, r24	; 57
}
    4c5e:	08 95       	ret

00004c60 <Timer1_OCB_InterruptDisable>:
void Timer1_OCB_InterruptDisable(void)
{
	CLR_BIT(TIMSK,TIMSK_OCIE1B);
    4c60:	89 b7       	in	r24, 0x39	; 57
    4c62:	87 7f       	andi	r24, 0xF7	; 247
    4c64:	89 bf       	out	0x39, r24	; 57
}
    4c66:	08 95       	ret

00004c68 <Timer2_OV_InterruptEnable>:

void Timer2_OV_InterruptEnable(void)
{
	SET_BIT(TIMSK,TIMSK_TOIE2);
    4c68:	89 b7       	in	r24, 0x39	; 57
    4c6a:	80 64       	ori	r24, 0x40	; 64
    4c6c:	89 bf       	out	0x39, r24	; 57
}
    4c6e:	08 95       	ret

00004c70 <Timer2_OV_InterruptDisable>:
void Timer2_OV_InterruptDisable(void)
{
	CLR_BIT(TIMSK,TIMSK_TOIE2);
    4c70:	89 b7       	in	r24, 0x39	; 57
    4c72:	8f 7b       	andi	r24, 0xBF	; 191
    4c74:	89 bf       	out	0x39, r24	; 57
}
    4c76:	08 95       	ret

00004c78 <Timer2_OC_InterruptEnable>:
void Timer2_OC_InterruptEnable(void)
{
	SET_BIT(TIMSK,TIMSK_OCIE2);
    4c78:	89 b7       	in	r24, 0x39	; 57
    4c7a:	80 68       	ori	r24, 0x80	; 128
    4c7c:	89 bf       	out	0x39, r24	; 57
}
    4c7e:	08 95       	ret

00004c80 <Timer2_OC_InterruptDisable>:

void Timer2_OC_InterruptDisable(void)
{
	CLR_BIT(TIMSK,TIMSK_OCIE2);
    4c80:	89 b7       	in	r24, 0x39	; 57
    4c82:	8f 77       	andi	r24, 0x7F	; 127
    4c84:	89 bf       	out	0x39, r24	; 57
}
    4c86:	08 95       	ret

00004c88 <TIMER_u16GetICR>:



u16 TIMER_u16GetICR(void)
{
	return ICR1;
    4c88:	26 b5       	in	r18, 0x26	; 38
    4c8a:	37 b5       	in	r19, 0x27	; 39
}
    4c8c:	c9 01       	movw	r24, r18
    4c8e:	08 95       	ret

00004c90 <TIMER_voidWDTSleep>:

/* Hint : prebuild config  */
void TIMER_voidWDTSleep(void)
{
	/* CLear The Prescaler bits  */
	WDTCR &= WDT_PS_MASKING ;
    4c90:	81 b5       	in	r24, 0x21	; 33
    4c92:	88 7f       	andi	r24, 0xF8	; 248
    4c94:	81 bd       	out	0x21, r24	; 33
	/* Set The required prescaller */
	WDTCR |= WDT_PRESCALER ;
    4c96:	81 b5       	in	r24, 0x21	; 33
    4c98:	86 60       	ori	r24, 0x06	; 6
    4c9a:	81 bd       	out	0x21, r24	; 33
}
    4c9c:	08 95       	ret

00004c9e <TIMER_voidWDTEnable>:

//----------------------------------------------------------------------------------------------------------------------------------------------------

void TIMER_voidWDTEnable (void)
{
	SET_BIT (WDTCR , WDTCR_WDE);
    4c9e:	81 b5       	in	r24, 0x21	; 33
    4ca0:	88 60       	ori	r24, 0x08	; 8
    4ca2:	81 bd       	out	0x21, r24	; 33
}
    4ca4:	08 95       	ret

00004ca6 <TIMER_voidWDTDisable>:
//----------------------------------------------------------------------------------------------------------------------------------------------------

void TIMER_voidWDTDisable (void)
{
	/* Set Bit 3&4 at the same CLK cycle  */
	WDTCR |= 0b00011000 ;
    4ca6:	81 b5       	in	r24, 0x21	; 33
    4ca8:	88 61       	ori	r24, 0x18	; 24
    4caa:	81 bd       	out	0x21, r24	; 33
	/* WDTCR_WDE = 0 */
	/* I don't care for any value in this Reg Cuz I want to Disable */
	WDTCR = 0 ;
    4cac:	11 bc       	out	0x21, r1	; 33
}
    4cae:	08 95       	ret

00004cb0 <TIMER_u8SetCallBack>:

ES_t TIMER_u8SetCallBack(void (*Copy_pvCallBackFunc)(void) , u8 Copy_u8VectorID)
{
	ES_t Local_u8ErrorState = ES_OK ;

	if (Copy_pvCallBackFunc != NULL)
    4cb0:	00 97       	sbiw	r24, 0x00	; 0
    4cb2:	11 f4       	brne	.+4      	; 0x4cb8 <TIMER_u8SetCallBack+0x8>
    4cb4:	82 e0       	ldi	r24, 0x02	; 2
    4cb6:	08 95       	ret
	{
		TIMERS_pvCallBackFunc[Copy_u8VectorID] = Copy_pvCallBackFunc ;
    4cb8:	e6 2f       	mov	r30, r22
    4cba:	f0 e0       	ldi	r31, 0x00	; 0
    4cbc:	ee 0f       	add	r30, r30
    4cbe:	ff 1f       	adc	r31, r31
    4cc0:	e4 55       	subi	r30, 0x54	; 84
    4cc2:	fe 4f       	sbci	r31, 0xFE	; 254
    4cc4:	91 83       	std	Z+1, r25	; 0x01
    4cc6:	80 83       	st	Z, r24
    4cc8:	81 e0       	ldi	r24, 0x01	; 1
	{
		Local_u8ErrorState = ES_NULL_POINTER ;
	}

	return Local_u8ErrorState ;
}
    4cca:	08 95       	ret

00004ccc <__vector_11>:

/*TIMER0 Normal Mode ISR*/
void __vector_11 (void)		__attribute__((signal)) ;
void __vector_11 (void)
{
    4ccc:	1f 92       	push	r1
    4cce:	0f 92       	push	r0
    4cd0:	0f b6       	in	r0, 0x3f	; 63
    4cd2:	0f 92       	push	r0
    4cd4:	11 24       	eor	r1, r1
    4cd6:	2f 93       	push	r18
    4cd8:	3f 93       	push	r19
    4cda:	4f 93       	push	r20
    4cdc:	5f 93       	push	r21
    4cde:	6f 93       	push	r22
    4ce0:	7f 93       	push	r23
    4ce2:	8f 93       	push	r24
    4ce4:	9f 93       	push	r25
    4ce6:	af 93       	push	r26
    4ce8:	bf 93       	push	r27
    4cea:	ef 93       	push	r30
    4cec:	ff 93       	push	r31
	if (TIMERS_pvCallBackFunc[TIMER0_OVF_VECTOR_ID] != NULL)
    4cee:	e0 91 c2 01 	lds	r30, 0x01C2
    4cf2:	f0 91 c3 01 	lds	r31, 0x01C3
    4cf6:	30 97       	sbiw	r30, 0x00	; 0
    4cf8:	09 f0       	breq	.+2      	; 0x4cfc <__vector_11+0x30>
	{
		TIMERS_pvCallBackFunc[TIMER0_OVF_VECTOR_ID]() ;
    4cfa:	09 95       	icall
	}
}
    4cfc:	ff 91       	pop	r31
    4cfe:	ef 91       	pop	r30
    4d00:	bf 91       	pop	r27
    4d02:	af 91       	pop	r26
    4d04:	9f 91       	pop	r25
    4d06:	8f 91       	pop	r24
    4d08:	7f 91       	pop	r23
    4d0a:	6f 91       	pop	r22
    4d0c:	5f 91       	pop	r21
    4d0e:	4f 91       	pop	r20
    4d10:	3f 91       	pop	r19
    4d12:	2f 91       	pop	r18
    4d14:	0f 90       	pop	r0
    4d16:	0f be       	out	0x3f, r0	; 63
    4d18:	0f 90       	pop	r0
    4d1a:	1f 90       	pop	r1
    4d1c:	18 95       	reti

00004d1e <__vector_10>:

/*TIMER0 CTC Mode ISR*/
void __vector_10 (void)		__attribute__((signal)) ;
void __vector_10 (void)
{
    4d1e:	1f 92       	push	r1
    4d20:	0f 92       	push	r0
    4d22:	0f b6       	in	r0, 0x3f	; 63
    4d24:	0f 92       	push	r0
    4d26:	11 24       	eor	r1, r1
    4d28:	2f 93       	push	r18
    4d2a:	3f 93       	push	r19
    4d2c:	4f 93       	push	r20
    4d2e:	5f 93       	push	r21
    4d30:	6f 93       	push	r22
    4d32:	7f 93       	push	r23
    4d34:	8f 93       	push	r24
    4d36:	9f 93       	push	r25
    4d38:	af 93       	push	r26
    4d3a:	bf 93       	push	r27
    4d3c:	ef 93       	push	r30
    4d3e:	ff 93       	push	r31
	if (TIMERS_pvCallBackFunc[TIMER0_CTC_VECTOR_ID] != NULL)
    4d40:	e0 91 c0 01 	lds	r30, 0x01C0
    4d44:	f0 91 c1 01 	lds	r31, 0x01C1
    4d48:	30 97       	sbiw	r30, 0x00	; 0
    4d4a:	09 f0       	breq	.+2      	; 0x4d4e <__vector_10+0x30>
	{
		TIMERS_pvCallBackFunc[TIMER0_CTC_VECTOR_ID]() ;
    4d4c:	09 95       	icall
	}
}
    4d4e:	ff 91       	pop	r31
    4d50:	ef 91       	pop	r30
    4d52:	bf 91       	pop	r27
    4d54:	af 91       	pop	r26
    4d56:	9f 91       	pop	r25
    4d58:	8f 91       	pop	r24
    4d5a:	7f 91       	pop	r23
    4d5c:	6f 91       	pop	r22
    4d5e:	5f 91       	pop	r21
    4d60:	4f 91       	pop	r20
    4d62:	3f 91       	pop	r19
    4d64:	2f 91       	pop	r18
    4d66:	0f 90       	pop	r0
    4d68:	0f be       	out	0x3f, r0	; 63
    4d6a:	0f 90       	pop	r0
    4d6c:	1f 90       	pop	r1
    4d6e:	18 95       	reti

00004d70 <__vector_9>:

/*TIMER1 Normal Mode ISR*/
void __vector_9 (void)		__attribute__((signal)) ;
void __vector_9 (void)
{
    4d70:	1f 92       	push	r1
    4d72:	0f 92       	push	r0
    4d74:	0f b6       	in	r0, 0x3f	; 63
    4d76:	0f 92       	push	r0
    4d78:	11 24       	eor	r1, r1
    4d7a:	2f 93       	push	r18
    4d7c:	3f 93       	push	r19
    4d7e:	4f 93       	push	r20
    4d80:	5f 93       	push	r21
    4d82:	6f 93       	push	r22
    4d84:	7f 93       	push	r23
    4d86:	8f 93       	push	r24
    4d88:	9f 93       	push	r25
    4d8a:	af 93       	push	r26
    4d8c:	bf 93       	push	r27
    4d8e:	ef 93       	push	r30
    4d90:	ff 93       	push	r31
	if (TIMERS_pvCallBackFunc[TIMER1_OVF_VECTOR_ID] != NULL)
    4d92:	e0 91 be 01 	lds	r30, 0x01BE
    4d96:	f0 91 bf 01 	lds	r31, 0x01BF
    4d9a:	30 97       	sbiw	r30, 0x00	; 0
    4d9c:	09 f0       	breq	.+2      	; 0x4da0 <__vector_9+0x30>
	{
		TIMERS_pvCallBackFunc[TIMER1_OVF_VECTOR_ID]() ;
    4d9e:	09 95       	icall
	}
}
    4da0:	ff 91       	pop	r31
    4da2:	ef 91       	pop	r30
    4da4:	bf 91       	pop	r27
    4da6:	af 91       	pop	r26
    4da8:	9f 91       	pop	r25
    4daa:	8f 91       	pop	r24
    4dac:	7f 91       	pop	r23
    4dae:	6f 91       	pop	r22
    4db0:	5f 91       	pop	r21
    4db2:	4f 91       	pop	r20
    4db4:	3f 91       	pop	r19
    4db6:	2f 91       	pop	r18
    4db8:	0f 90       	pop	r0
    4dba:	0f be       	out	0x3f, r0	; 63
    4dbc:	0f 90       	pop	r0
    4dbe:	1f 90       	pop	r1
    4dc0:	18 95       	reti

00004dc2 <__vector_8>:

/*TIMER1 CTCB Mode ISR*/
void __vector_8 (void)		__attribute__((signal)) ;
void __vector_8 (void)
{
    4dc2:	1f 92       	push	r1
    4dc4:	0f 92       	push	r0
    4dc6:	0f b6       	in	r0, 0x3f	; 63
    4dc8:	0f 92       	push	r0
    4dca:	11 24       	eor	r1, r1
    4dcc:	2f 93       	push	r18
    4dce:	3f 93       	push	r19
    4dd0:	4f 93       	push	r20
    4dd2:	5f 93       	push	r21
    4dd4:	6f 93       	push	r22
    4dd6:	7f 93       	push	r23
    4dd8:	8f 93       	push	r24
    4dda:	9f 93       	push	r25
    4ddc:	af 93       	push	r26
    4dde:	bf 93       	push	r27
    4de0:	ef 93       	push	r30
    4de2:	ff 93       	push	r31
	if (TIMERS_pvCallBackFunc[TIMER1_CTCB_VECTOR_ID] != NULL)
    4de4:	e0 91 bc 01 	lds	r30, 0x01BC
    4de8:	f0 91 bd 01 	lds	r31, 0x01BD
    4dec:	30 97       	sbiw	r30, 0x00	; 0
    4dee:	09 f0       	breq	.+2      	; 0x4df2 <__vector_8+0x30>
	{
		TIMERS_pvCallBackFunc[TIMER1_CTCB_VECTOR_ID]() ;
    4df0:	09 95       	icall
	}
}
    4df2:	ff 91       	pop	r31
    4df4:	ef 91       	pop	r30
    4df6:	bf 91       	pop	r27
    4df8:	af 91       	pop	r26
    4dfa:	9f 91       	pop	r25
    4dfc:	8f 91       	pop	r24
    4dfe:	7f 91       	pop	r23
    4e00:	6f 91       	pop	r22
    4e02:	5f 91       	pop	r21
    4e04:	4f 91       	pop	r20
    4e06:	3f 91       	pop	r19
    4e08:	2f 91       	pop	r18
    4e0a:	0f 90       	pop	r0
    4e0c:	0f be       	out	0x3f, r0	; 63
    4e0e:	0f 90       	pop	r0
    4e10:	1f 90       	pop	r1
    4e12:	18 95       	reti

00004e14 <__vector_7>:

/*TIMER1 CTCA Mode ISR*/
void __vector_7 (void)		__attribute__((signal)) ;
void __vector_7 (void)
{
    4e14:	1f 92       	push	r1
    4e16:	0f 92       	push	r0
    4e18:	0f b6       	in	r0, 0x3f	; 63
    4e1a:	0f 92       	push	r0
    4e1c:	11 24       	eor	r1, r1
    4e1e:	2f 93       	push	r18
    4e20:	3f 93       	push	r19
    4e22:	4f 93       	push	r20
    4e24:	5f 93       	push	r21
    4e26:	6f 93       	push	r22
    4e28:	7f 93       	push	r23
    4e2a:	8f 93       	push	r24
    4e2c:	9f 93       	push	r25
    4e2e:	af 93       	push	r26
    4e30:	bf 93       	push	r27
    4e32:	ef 93       	push	r30
    4e34:	ff 93       	push	r31
	if (TIMERS_pvCallBackFunc[TIMER1_CTCA_VECTOR_ID] != NULL)
    4e36:	e0 91 ba 01 	lds	r30, 0x01BA
    4e3a:	f0 91 bb 01 	lds	r31, 0x01BB
    4e3e:	30 97       	sbiw	r30, 0x00	; 0
    4e40:	09 f0       	breq	.+2      	; 0x4e44 <__vector_7+0x30>
	{
		TIMERS_pvCallBackFunc[TIMER1_CTCA_VECTOR_ID]() ;
    4e42:	09 95       	icall
	}
}
    4e44:	ff 91       	pop	r31
    4e46:	ef 91       	pop	r30
    4e48:	bf 91       	pop	r27
    4e4a:	af 91       	pop	r26
    4e4c:	9f 91       	pop	r25
    4e4e:	8f 91       	pop	r24
    4e50:	7f 91       	pop	r23
    4e52:	6f 91       	pop	r22
    4e54:	5f 91       	pop	r21
    4e56:	4f 91       	pop	r20
    4e58:	3f 91       	pop	r19
    4e5a:	2f 91       	pop	r18
    4e5c:	0f 90       	pop	r0
    4e5e:	0f be       	out	0x3f, r0	; 63
    4e60:	0f 90       	pop	r0
    4e62:	1f 90       	pop	r1
    4e64:	18 95       	reti

00004e66 <__vector_6>:

/*TIMER1 ICU ISR*/
void __vector_6 (void)		__attribute__((signal)) ;
void __vector_6 (void)
{
    4e66:	1f 92       	push	r1
    4e68:	0f 92       	push	r0
    4e6a:	0f b6       	in	r0, 0x3f	; 63
    4e6c:	0f 92       	push	r0
    4e6e:	11 24       	eor	r1, r1
    4e70:	2f 93       	push	r18
    4e72:	3f 93       	push	r19
    4e74:	4f 93       	push	r20
    4e76:	5f 93       	push	r21
    4e78:	6f 93       	push	r22
    4e7a:	7f 93       	push	r23
    4e7c:	8f 93       	push	r24
    4e7e:	9f 93       	push	r25
    4e80:	af 93       	push	r26
    4e82:	bf 93       	push	r27
    4e84:	ef 93       	push	r30
    4e86:	ff 93       	push	r31
	if (TIMERS_pvCallBackFunc[TIMER1_ICU_VECTOR_ID] != NULL)
    4e88:	e0 91 b8 01 	lds	r30, 0x01B8
    4e8c:	f0 91 b9 01 	lds	r31, 0x01B9
    4e90:	30 97       	sbiw	r30, 0x00	; 0
    4e92:	09 f0       	breq	.+2      	; 0x4e96 <__vector_6+0x30>
	{
		TIMERS_pvCallBackFunc[TIMER1_ICU_VECTOR_ID]() ;
    4e94:	09 95       	icall
	}
}
    4e96:	ff 91       	pop	r31
    4e98:	ef 91       	pop	r30
    4e9a:	bf 91       	pop	r27
    4e9c:	af 91       	pop	r26
    4e9e:	9f 91       	pop	r25
    4ea0:	8f 91       	pop	r24
    4ea2:	7f 91       	pop	r23
    4ea4:	6f 91       	pop	r22
    4ea6:	5f 91       	pop	r21
    4ea8:	4f 91       	pop	r20
    4eaa:	3f 91       	pop	r19
    4eac:	2f 91       	pop	r18
    4eae:	0f 90       	pop	r0
    4eb0:	0f be       	out	0x3f, r0	; 63
    4eb2:	0f 90       	pop	r0
    4eb4:	1f 90       	pop	r1
    4eb6:	18 95       	reti

00004eb8 <__vector_5>:

/*TIMER2 Normal Mode ISR*/
void __vector_5 (void)		__attribute__((signal)) ;
void __vector_5 (void)
{
    4eb8:	1f 92       	push	r1
    4eba:	0f 92       	push	r0
    4ebc:	0f b6       	in	r0, 0x3f	; 63
    4ebe:	0f 92       	push	r0
    4ec0:	11 24       	eor	r1, r1
    4ec2:	2f 93       	push	r18
    4ec4:	3f 93       	push	r19
    4ec6:	4f 93       	push	r20
    4ec8:	5f 93       	push	r21
    4eca:	6f 93       	push	r22
    4ecc:	7f 93       	push	r23
    4ece:	8f 93       	push	r24
    4ed0:	9f 93       	push	r25
    4ed2:	af 93       	push	r26
    4ed4:	bf 93       	push	r27
    4ed6:	ef 93       	push	r30
    4ed8:	ff 93       	push	r31
	if (TIMERS_pvCallBackFunc[TIMER2_OVF_VECTOR_ID] != NULL)
    4eda:	e0 91 b6 01 	lds	r30, 0x01B6
    4ede:	f0 91 b7 01 	lds	r31, 0x01B7
    4ee2:	30 97       	sbiw	r30, 0x00	; 0
    4ee4:	09 f0       	breq	.+2      	; 0x4ee8 <__vector_5+0x30>
	{
		TIMERS_pvCallBackFunc[TIMER2_OVF_VECTOR_ID]() ;
    4ee6:	09 95       	icall
	}
}
    4ee8:	ff 91       	pop	r31
    4eea:	ef 91       	pop	r30
    4eec:	bf 91       	pop	r27
    4eee:	af 91       	pop	r26
    4ef0:	9f 91       	pop	r25
    4ef2:	8f 91       	pop	r24
    4ef4:	7f 91       	pop	r23
    4ef6:	6f 91       	pop	r22
    4ef8:	5f 91       	pop	r21
    4efa:	4f 91       	pop	r20
    4efc:	3f 91       	pop	r19
    4efe:	2f 91       	pop	r18
    4f00:	0f 90       	pop	r0
    4f02:	0f be       	out	0x3f, r0	; 63
    4f04:	0f 90       	pop	r0
    4f06:	1f 90       	pop	r1
    4f08:	18 95       	reti

00004f0a <__vector_4>:

/*TIMER2 CTC Mode ISR*/
void __vector_4 (void)		__attribute__((signal)) ;
void __vector_4 (void)
{
    4f0a:	1f 92       	push	r1
    4f0c:	0f 92       	push	r0
    4f0e:	0f b6       	in	r0, 0x3f	; 63
    4f10:	0f 92       	push	r0
    4f12:	11 24       	eor	r1, r1
    4f14:	2f 93       	push	r18
    4f16:	3f 93       	push	r19
    4f18:	4f 93       	push	r20
    4f1a:	5f 93       	push	r21
    4f1c:	6f 93       	push	r22
    4f1e:	7f 93       	push	r23
    4f20:	8f 93       	push	r24
    4f22:	9f 93       	push	r25
    4f24:	af 93       	push	r26
    4f26:	bf 93       	push	r27
    4f28:	ef 93       	push	r30
    4f2a:	ff 93       	push	r31
	if (TIMERS_pvCallBackFunc[TIMER2_CTC_VECTOR_ID] != NULL)
    4f2c:	e0 91 b4 01 	lds	r30, 0x01B4
    4f30:	f0 91 b5 01 	lds	r31, 0x01B5
    4f34:	30 97       	sbiw	r30, 0x00	; 0
    4f36:	09 f0       	breq	.+2      	; 0x4f3a <__vector_4+0x30>
	{
		TIMERS_pvCallBackFunc[TIMER2_CTC_VECTOR_ID]() ;
    4f38:	09 95       	icall
	}
}
    4f3a:	ff 91       	pop	r31
    4f3c:	ef 91       	pop	r30
    4f3e:	bf 91       	pop	r27
    4f40:	af 91       	pop	r26
    4f42:	9f 91       	pop	r25
    4f44:	8f 91       	pop	r24
    4f46:	7f 91       	pop	r23
    4f48:	6f 91       	pop	r22
    4f4a:	5f 91       	pop	r21
    4f4c:	4f 91       	pop	r20
    4f4e:	3f 91       	pop	r19
    4f50:	2f 91       	pop	r18
    4f52:	0f 90       	pop	r0
    4f54:	0f be       	out	0x3f, r0	; 63
    4f56:	0f 90       	pop	r0
    4f58:	1f 90       	pop	r1
    4f5a:	18 95       	reti

00004f5c <EXI_SetCallBack>:
static void (*INT2_Fptr) (void)=NULL;

/************************************Call back functions*********************************************/
void EXI_SetCallBack(ExInterruptSource_type Interrupt,void(*LocalPtr)(void))
{
	switch(Interrupt){
    4f5c:	81 30       	cpi	r24, 0x01	; 1
    4f5e:	51 f0       	breq	.+20     	; 0x4f74 <EXI_SetCallBack+0x18>
    4f60:	81 30       	cpi	r24, 0x01	; 1
    4f62:	18 f0       	brcs	.+6      	; 0x4f6a <EXI_SetCallBack+0xe>
    4f64:	82 30       	cpi	r24, 0x02	; 2
    4f66:	79 f4       	brne	.+30     	; 0x4f86 <EXI_SetCallBack+0x2a>
    4f68:	0a c0       	rjmp	.+20     	; 0x4f7e <EXI_SetCallBack+0x22>
		case EX_INT0:
		INT0_Fptr=LocalPtr;
    4f6a:	70 93 d1 01 	sts	0x01D1, r23
    4f6e:	60 93 d0 01 	sts	0x01D0, r22
    4f72:	08 95       	ret
		break;
		case EX_INT1:
		INT1_Fptr=LocalPtr;
    4f74:	70 93 cf 01 	sts	0x01CF, r23
    4f78:	60 93 ce 01 	sts	0x01CE, r22
    4f7c:	08 95       	ret
		break;
		case EX_INT2:
		INT2_Fptr=LocalPtr;
    4f7e:	70 93 cd 01 	sts	0x01CD, r23
    4f82:	60 93 cc 01 	sts	0x01CC, r22
    4f86:	08 95       	ret

00004f88 <EXI_Enable>:
	}
}
/************************************Enable/Disable functions***********************************/
void EXI_Enable(ExInterruptSource_type Interrupt)
{
	switch(Interrupt){
    4f88:	81 30       	cpi	r24, 0x01	; 1
    4f8a:	41 f0       	breq	.+16     	; 0x4f9c <EXI_Enable+0x14>
    4f8c:	81 30       	cpi	r24, 0x01	; 1
    4f8e:	18 f0       	brcs	.+6      	; 0x4f96 <EXI_Enable+0xe>
    4f90:	82 30       	cpi	r24, 0x02	; 2
    4f92:	59 f4       	brne	.+22     	; 0x4faa <EXI_Enable+0x22>
    4f94:	07 c0       	rjmp	.+14     	; 0x4fa4 <EXI_Enable+0x1c>
		case EX_INT0:
		SET_BIT(GICR,INT0);
    4f96:	8b b7       	in	r24, 0x3b	; 59
    4f98:	80 64       	ori	r24, 0x40	; 64
    4f9a:	02 c0       	rjmp	.+4      	; 0x4fa0 <EXI_Enable+0x18>
		break;
		case EX_INT1:
		SET_BIT(GICR,INT1);
    4f9c:	8b b7       	in	r24, 0x3b	; 59
    4f9e:	80 68       	ori	r24, 0x80	; 128
    4fa0:	8b bf       	out	0x3b, r24	; 59
    4fa2:	08 95       	ret
		break;
		case EX_INT2:
		SET_BIT(GICR,INT2);
    4fa4:	8b b7       	in	r24, 0x3b	; 59
    4fa6:	80 62       	ori	r24, 0x20	; 32
    4fa8:	8b bf       	out	0x3b, r24	; 59
    4faa:	08 95       	ret

00004fac <EXI_Disable>:
	}
}

void EXI_Disable(ExInterruptSource_type Interrupt)
{
	switch(Interrupt){
    4fac:	81 30       	cpi	r24, 0x01	; 1
    4fae:	41 f0       	breq	.+16     	; 0x4fc0 <EXI_Disable+0x14>
    4fb0:	81 30       	cpi	r24, 0x01	; 1
    4fb2:	18 f0       	brcs	.+6      	; 0x4fba <EXI_Disable+0xe>
    4fb4:	82 30       	cpi	r24, 0x02	; 2
    4fb6:	59 f4       	brne	.+22     	; 0x4fce <EXI_Disable+0x22>
    4fb8:	07 c0       	rjmp	.+14     	; 0x4fc8 <EXI_Disable+0x1c>
		case EX_INT0:
		CLR_BIT(GICR,INT0);
    4fba:	8b b7       	in	r24, 0x3b	; 59
    4fbc:	8f 7b       	andi	r24, 0xBF	; 191
    4fbe:	02 c0       	rjmp	.+4      	; 0x4fc4 <EXI_Disable+0x18>
		break;
		case EX_INT1:
		CLR_BIT(GICR,INT1);
    4fc0:	8b b7       	in	r24, 0x3b	; 59
    4fc2:	8f 77       	andi	r24, 0x7F	; 127
    4fc4:	8b bf       	out	0x3b, r24	; 59
    4fc6:	08 95       	ret
		break;
		case EX_INT2:
		CLR_BIT(GICR,INT2);
    4fc8:	8b b7       	in	r24, 0x3b	; 59
    4fca:	8f 7d       	andi	r24, 0xDF	; 223
    4fcc:	8b bf       	out	0x3b, r24	; 59
    4fce:	08 95       	ret

00004fd0 <EXI_TriggerEdge>:
	}
}
/************************************Control function*****************************/
void EXI_TriggerEdge(ExInterruptSource_type Interrupt,TriggerEdge_type Edge)
{
	switch(Interrupt){
    4fd0:	81 30       	cpi	r24, 0x01	; 1
    4fd2:	09 f1       	breq	.+66     	; 0x5016 <EXI_TriggerEdge+0x46>
    4fd4:	81 30       	cpi	r24, 0x01	; 1
    4fd6:	20 f0       	brcs	.+8      	; 0x4fe0 <EXI_TriggerEdge+0x10>
    4fd8:	82 30       	cpi	r24, 0x02	; 2
    4fda:	09 f0       	breq	.+2      	; 0x4fde <EXI_TriggerEdge+0xe>
    4fdc:	47 c0       	rjmp	.+142    	; 0x506c <EXI_TriggerEdge+0x9c>
    4fde:	37 c0       	rjmp	.+110    	; 0x504e <EXI_TriggerEdge+0x7e>
		case EX_INT0:
		switch(Edge){
    4fe0:	61 30       	cpi	r22, 0x01	; 1
    4fe2:	51 f0       	breq	.+20     	; 0x4ff8 <EXI_TriggerEdge+0x28>
    4fe4:	61 30       	cpi	r22, 0x01	; 1
    4fe6:	28 f0       	brcs	.+10     	; 0x4ff2 <EXI_TriggerEdge+0x22>
    4fe8:	62 30       	cpi	r22, 0x02	; 2
    4fea:	61 f0       	breq	.+24     	; 0x5004 <EXI_TriggerEdge+0x34>
    4fec:	63 30       	cpi	r22, 0x03	; 3
    4fee:	f1 f5       	brne	.+124    	; 0x506c <EXI_TriggerEdge+0x9c>
    4ff0:	0c c0       	rjmp	.+24     	; 0x500a <EXI_TriggerEdge+0x3a>
			case LOW_LEVEL:
			CLR_BIT(MCUCR,ISC00);
    4ff2:	85 b7       	in	r24, 0x35	; 53
    4ff4:	8e 7f       	andi	r24, 0xFE	; 254
    4ff6:	02 c0       	rjmp	.+4      	; 0x4ffc <EXI_TriggerEdge+0x2c>
			CLR_BIT(MCUCR,ISC01);
			break;
			case ANY_LOGIC_CHANGE:
			SET_BIT(MCUCR,ISC00);
    4ff8:	85 b7       	in	r24, 0x35	; 53
    4ffa:	81 60       	ori	r24, 0x01	; 1
    4ffc:	85 bf       	out	0x35, r24	; 53
			CLR_BIT(MCUCR,ISC01);
    4ffe:	85 b7       	in	r24, 0x35	; 53
    5000:	8d 7f       	andi	r24, 0xFD	; 253
    5002:	23 c0       	rjmp	.+70     	; 0x504a <EXI_TriggerEdge+0x7a>
			break;
			case FALLING_EDGE:
			CLR_BIT(MCUCR,ISC00);
    5004:	85 b7       	in	r24, 0x35	; 53
    5006:	8e 7f       	andi	r24, 0xFE	; 254
    5008:	02 c0       	rjmp	.+4      	; 0x500e <EXI_TriggerEdge+0x3e>
			SET_BIT(MCUCR,ISC01);
			break;
			case RISING_EDGE:
			SET_BIT(MCUCR,ISC00);
    500a:	85 b7       	in	r24, 0x35	; 53
    500c:	81 60       	ori	r24, 0x01	; 1
    500e:	85 bf       	out	0x35, r24	; 53
			SET_BIT(MCUCR,ISC01);
    5010:	85 b7       	in	r24, 0x35	; 53
    5012:	82 60       	ori	r24, 0x02	; 2
    5014:	1a c0       	rjmp	.+52     	; 0x504a <EXI_TriggerEdge+0x7a>
			break;
			
		}
		break;
		case EX_INT1:
		switch(Edge){
    5016:	61 30       	cpi	r22, 0x01	; 1
    5018:	51 f0       	breq	.+20     	; 0x502e <EXI_TriggerEdge+0x5e>
    501a:	61 30       	cpi	r22, 0x01	; 1
    501c:	28 f0       	brcs	.+10     	; 0x5028 <EXI_TriggerEdge+0x58>
    501e:	62 30       	cpi	r22, 0x02	; 2
    5020:	61 f0       	breq	.+24     	; 0x503a <EXI_TriggerEdge+0x6a>
    5022:	63 30       	cpi	r22, 0x03	; 3
    5024:	19 f5       	brne	.+70     	; 0x506c <EXI_TriggerEdge+0x9c>
    5026:	0c c0       	rjmp	.+24     	; 0x5040 <EXI_TriggerEdge+0x70>
			case LOW_LEVEL:
			CLR_BIT(MCUCR,ISC10);
    5028:	85 b7       	in	r24, 0x35	; 53
    502a:	8b 7f       	andi	r24, 0xFB	; 251
    502c:	02 c0       	rjmp	.+4      	; 0x5032 <EXI_TriggerEdge+0x62>
			CLR_BIT(MCUCR,ISC11);
			break;
			case ANY_LOGIC_CHANGE:
			SET_BIT(MCUCR,ISC10);
    502e:	85 b7       	in	r24, 0x35	; 53
    5030:	84 60       	ori	r24, 0x04	; 4
    5032:	85 bf       	out	0x35, r24	; 53
			CLR_BIT(MCUCR,ISC11);
    5034:	85 b7       	in	r24, 0x35	; 53
    5036:	87 7f       	andi	r24, 0xF7	; 247
    5038:	08 c0       	rjmp	.+16     	; 0x504a <EXI_TriggerEdge+0x7a>
			break;
			case FALLING_EDGE:
			CLR_BIT(MCUCR,ISC10);
    503a:	85 b7       	in	r24, 0x35	; 53
    503c:	8b 7f       	andi	r24, 0xFB	; 251
    503e:	02 c0       	rjmp	.+4      	; 0x5044 <EXI_TriggerEdge+0x74>
			SET_BIT(MCUCR,ISC11);
			break;
			case RISING_EDGE:
			SET_BIT(MCUCR,ISC10);
    5040:	85 b7       	in	r24, 0x35	; 53
    5042:	84 60       	ori	r24, 0x04	; 4
    5044:	85 bf       	out	0x35, r24	; 53
			SET_BIT(MCUCR,ISC11);
    5046:	85 b7       	in	r24, 0x35	; 53
    5048:	88 60       	ori	r24, 0x08	; 8
    504a:	85 bf       	out	0x35, r24	; 53
    504c:	08 95       	ret
			break;
			
		}
		break;
		case EX_INT2:
		switch(Edge){
    504e:	62 30       	cpi	r22, 0x02	; 2
    5050:	19 f0       	breq	.+6      	; 0x5058 <EXI_TriggerEdge+0x88>
    5052:	63 30       	cpi	r22, 0x03	; 3
    5054:	41 f4       	brne	.+16     	; 0x5066 <EXI_TriggerEdge+0x96>
    5056:	03 c0       	rjmp	.+6      	; 0x505e <EXI_TriggerEdge+0x8e>
			case FALLING_EDGE:
			CLR_BIT(MCUCSR,ISC2);
    5058:	84 b7       	in	r24, 0x34	; 52
    505a:	8f 7b       	andi	r24, 0xBF	; 191
    505c:	02 c0       	rjmp	.+4      	; 0x5062 <EXI_TriggerEdge+0x92>
			break;
			case RISING_EDGE:
			SET_BIT(MCUCSR,ISC2);
    505e:	84 b7       	in	r24, 0x34	; 52
    5060:	80 64       	ori	r24, 0x40	; 64
    5062:	84 bf       	out	0x34, r24	; 52
    5064:	08 95       	ret
			break;
			default:
			CLR_BIT(MCUCSR,ISC2);	
    5066:	84 b7       	in	r24, 0x34	; 52
    5068:	8f 7b       	andi	r24, 0xBF	; 191
    506a:	84 bf       	out	0x34, r24	; 52
    506c:	08 95       	ret

0000506e <__vector_1>:
		break;
	}
}
/*******************************ISR********************************/
ISR(INT0_vect)
{
    506e:	1f 92       	push	r1
    5070:	0f 92       	push	r0
    5072:	0f b6       	in	r0, 0x3f	; 63
    5074:	0f 92       	push	r0
    5076:	11 24       	eor	r1, r1
    5078:	2f 93       	push	r18
    507a:	3f 93       	push	r19
    507c:	4f 93       	push	r20
    507e:	5f 93       	push	r21
    5080:	6f 93       	push	r22
    5082:	7f 93       	push	r23
    5084:	8f 93       	push	r24
    5086:	9f 93       	push	r25
    5088:	af 93       	push	r26
    508a:	bf 93       	push	r27
    508c:	ef 93       	push	r30
    508e:	ff 93       	push	r31
	if (INT0_Fptr!=NULL)
    5090:	e0 91 d0 01 	lds	r30, 0x01D0
    5094:	f0 91 d1 01 	lds	r31, 0x01D1
    5098:	30 97       	sbiw	r30, 0x00	; 0
    509a:	09 f0       	breq	.+2      	; 0x509e <__vector_1+0x30>
	{
		INT0_Fptr();
    509c:	09 95       	icall
	}
}
    509e:	ff 91       	pop	r31
    50a0:	ef 91       	pop	r30
    50a2:	bf 91       	pop	r27
    50a4:	af 91       	pop	r26
    50a6:	9f 91       	pop	r25
    50a8:	8f 91       	pop	r24
    50aa:	7f 91       	pop	r23
    50ac:	6f 91       	pop	r22
    50ae:	5f 91       	pop	r21
    50b0:	4f 91       	pop	r20
    50b2:	3f 91       	pop	r19
    50b4:	2f 91       	pop	r18
    50b6:	0f 90       	pop	r0
    50b8:	0f be       	out	0x3f, r0	; 63
    50ba:	0f 90       	pop	r0
    50bc:	1f 90       	pop	r1
    50be:	18 95       	reti

000050c0 <__vector_2>:
ISR(INT1_vect)
{
    50c0:	1f 92       	push	r1
    50c2:	0f 92       	push	r0
    50c4:	0f b6       	in	r0, 0x3f	; 63
    50c6:	0f 92       	push	r0
    50c8:	11 24       	eor	r1, r1
    50ca:	2f 93       	push	r18
    50cc:	3f 93       	push	r19
    50ce:	4f 93       	push	r20
    50d0:	5f 93       	push	r21
    50d2:	6f 93       	push	r22
    50d4:	7f 93       	push	r23
    50d6:	8f 93       	push	r24
    50d8:	9f 93       	push	r25
    50da:	af 93       	push	r26
    50dc:	bf 93       	push	r27
    50de:	ef 93       	push	r30
    50e0:	ff 93       	push	r31
	if (INT1_Fptr!=NULL)
    50e2:	e0 91 ce 01 	lds	r30, 0x01CE
    50e6:	f0 91 cf 01 	lds	r31, 0x01CF
    50ea:	30 97       	sbiw	r30, 0x00	; 0
    50ec:	09 f0       	breq	.+2      	; 0x50f0 <__vector_2+0x30>
	{
		INT1_Fptr();
    50ee:	09 95       	icall
	}
}
    50f0:	ff 91       	pop	r31
    50f2:	ef 91       	pop	r30
    50f4:	bf 91       	pop	r27
    50f6:	af 91       	pop	r26
    50f8:	9f 91       	pop	r25
    50fa:	8f 91       	pop	r24
    50fc:	7f 91       	pop	r23
    50fe:	6f 91       	pop	r22
    5100:	5f 91       	pop	r21
    5102:	4f 91       	pop	r20
    5104:	3f 91       	pop	r19
    5106:	2f 91       	pop	r18
    5108:	0f 90       	pop	r0
    510a:	0f be       	out	0x3f, r0	; 63
    510c:	0f 90       	pop	r0
    510e:	1f 90       	pop	r1
    5110:	18 95       	reti

00005112 <__vector_3>:
ISR(INT2_vect)
{
    5112:	1f 92       	push	r1
    5114:	0f 92       	push	r0
    5116:	0f b6       	in	r0, 0x3f	; 63
    5118:	0f 92       	push	r0
    511a:	11 24       	eor	r1, r1
    511c:	2f 93       	push	r18
    511e:	3f 93       	push	r19
    5120:	4f 93       	push	r20
    5122:	5f 93       	push	r21
    5124:	6f 93       	push	r22
    5126:	7f 93       	push	r23
    5128:	8f 93       	push	r24
    512a:	9f 93       	push	r25
    512c:	af 93       	push	r26
    512e:	bf 93       	push	r27
    5130:	ef 93       	push	r30
    5132:	ff 93       	push	r31
	if (INT2_Fptr!=NULL)
    5134:	e0 91 cc 01 	lds	r30, 0x01CC
    5138:	f0 91 cd 01 	lds	r31, 0x01CD
    513c:	30 97       	sbiw	r30, 0x00	; 0
    513e:	09 f0       	breq	.+2      	; 0x5142 <__vector_3+0x30>
	{
		INT2_Fptr();
    5140:	09 95       	icall
	}	
}
    5142:	ff 91       	pop	r31
    5144:	ef 91       	pop	r30
    5146:	bf 91       	pop	r27
    5148:	af 91       	pop	r26
    514a:	9f 91       	pop	r25
    514c:	8f 91       	pop	r24
    514e:	7f 91       	pop	r23
    5150:	6f 91       	pop	r22
    5152:	5f 91       	pop	r21
    5154:	4f 91       	pop	r20
    5156:	3f 91       	pop	r19
    5158:	2f 91       	pop	r18
    515a:	0f 90       	pop	r0
    515c:	0f be       	out	0x3f, r0	; 63
    515e:	0f 90       	pop	r0
    5160:	1f 90       	pop	r1
    5162:	18 95       	reti

00005164 <DIO_Enu_Init>:

ES_t DIO_Enu_Init(void)
{
    ES_t Local_EnuErrorState = ES_NOT_OK;

    DDRA = CONC(PA_PIN7_DIR, PA_PIN6_DIR, PA_PIN5_DIR, PA_PIN4_DIR, PA_PIN3_DIR, PA_PIN2_DIR, PA_PIN1_DIR, PA_PIN0_DIR);
    5164:	80 ef       	ldi	r24, 0xF0	; 240
    5166:	8a bb       	out	0x1a, r24	; 26
    DDRB = CONC(PB_PIN7_DIR, PB_PIN6_DIR, PB_PIN5_DIR, PB_PIN4_DIR, PB_PIN3_DIR, PB_PIN2_DIR, PB_PIN1_DIR, PB_PIN0_DIR);
    5168:	9f ef       	ldi	r25, 0xFF	; 255
    516a:	97 bb       	out	0x17, r25	; 23
    DDRC = CONC(PC_PIN7_DIR, PC_PIN6_DIR, PC_PIN5_DIR, PC_PIN4_DIR, PC_PIN3_DIR, PC_PIN2_DIR, PC_PIN1_DIR, PC_PIN0_DIR);
    516c:	94 bb       	out	0x14, r25	; 20
    DDRD = CONC(PD_PIN7_DIR, PD_PIN6_DIR, PD_PIN5_DIR, PD_PIN4_DIR, PD_PIN3_DIR, PD_PIN2_DIR, PD_PIN1_DIR, PD_PIN0_DIR);
    516e:	83 eb       	ldi	r24, 0xB3	; 179
    5170:	81 bb       	out	0x11, r24	; 17

    PORTA = CONC(PA_PIN7_VAL, PA_PIN6_VAL, PA_PIN5_VAL, PA_PIN4_VAL, PA_PIN3_VAL, PA_PIN2_VAL, PA_PIN1_VAL, PA_PIN0_VAL);
    5172:	9b bb       	out	0x1b, r25	; 27
    PORTB = CONC(PB_PIN7_VAL, PB_PIN6_VAL, PB_PIN5_VAL, PB_PIN4_VAL, PB_PIN3_VAL, PB_PIN2_VAL, PB_PIN1_VAL, PB_PIN0_VAL);
    5174:	18 ba       	out	0x18, r1	; 24
    PORTC = CONC(PC_PIN7_VAL, PC_PIN6_VAL, PC_PIN5_VAL, PC_PIN4_VAL, PC_PIN3_VAL, PC_PIN2_VAL, PC_PIN1_VAL, PC_PIN0_VAL);
    5176:	15 ba       	out	0x15, r1	; 21
    PORTD = CONC(PD_PIN7_VAL, PD_PIN6_VAL, PD_PIN5_VAL, PD_PIN4_VAL, PD_PIN3_VAL, PD_PIN2_VAL, PD_PIN1_VAL, PD_PIN0_VAL);
    5178:	12 ba       	out	0x12, r1	; 18

    Local_EnuErrorState = ES_OK;

    return Local_EnuErrorState;
}
    517a:	81 e0       	ldi	r24, 0x01	; 1
    517c:	08 95       	ret

0000517e <DIO_Enu_SetPortDirection>:

ES_t DIO_Enu_SetPortDirection(u8 Copy_u8PortID, u8 Copy_u8Value)
{
    ES_t Local_EnuErrorState = ES_NOT_OK;

    if (Copy_u8PortID <= DIO_PORTD)
    517e:	84 30       	cpi	r24, 0x04	; 4
    5180:	10 f0       	brcs	.+4      	; 0x5186 <DIO_Enu_SetPortDirection+0x8>
    5182:	83 e0       	ldi	r24, 0x03	; 3
    5184:	08 95       	ret
    {
        switch (Copy_u8PortID)
    5186:	81 30       	cpi	r24, 0x01	; 1
    5188:	49 f0       	breq	.+18     	; 0x519c <DIO_Enu_SetPortDirection+0x1e>
    518a:	81 30       	cpi	r24, 0x01	; 1
    518c:	28 f0       	brcs	.+10     	; 0x5198 <DIO_Enu_SetPortDirection+0x1a>
    518e:	82 30       	cpi	r24, 0x02	; 2
    5190:	39 f0       	breq	.+14     	; 0x51a0 <DIO_Enu_SetPortDirection+0x22>
    5192:	83 30       	cpi	r24, 0x03	; 3
    5194:	31 f4       	brne	.+12     	; 0x51a2 <DIO_Enu_SetPortDirection+0x24>
    5196:	07 c0       	rjmp	.+14     	; 0x51a6 <DIO_Enu_SetPortDirection+0x28>
        {
        case DIO_PORTA:
            DDRA = Copy_u8Value;
    5198:	6a bb       	out	0x1a, r22	; 26
    519a:	03 c0       	rjmp	.+6      	; 0x51a2 <DIO_Enu_SetPortDirection+0x24>
            break;
        case DIO_PORTB:
            DDRB = Copy_u8Value;
    519c:	67 bb       	out	0x17, r22	; 23
    519e:	01 c0       	rjmp	.+2      	; 0x51a2 <DIO_Enu_SetPortDirection+0x24>
            break;
        case DIO_PORTC:
            DDRC = Copy_u8Value;
    51a0:	64 bb       	out	0x14, r22	; 20
    51a2:	81 e0       	ldi	r24, 0x01	; 1
    51a4:	08 95       	ret
            break;
        case DIO_PORTD:
            DDRD = Copy_u8Value;
    51a6:	61 bb       	out	0x11, r22	; 17
    51a8:	81 e0       	ldi	r24, 0x01	; 1
    else
    {
        Local_EnuErrorState = ES_OUT_OF_RANGE;
    }
    return Local_EnuErrorState;
}
    51aa:	08 95       	ret

000051ac <DIO_Enu_SetPortValue>:

ES_t DIO_Enu_SetPortValue(u8 Copy_u8PortID, u8 Copy_u8Value)
{
    ES_t Local_EnuErrorState = ES_NOT_OK;

    if (Copy_u8PortID <= DIO_PORTD)
    51ac:	84 30       	cpi	r24, 0x04	; 4
    51ae:	10 f0       	brcs	.+4      	; 0x51b4 <DIO_Enu_SetPortValue+0x8>
    51b0:	83 e0       	ldi	r24, 0x03	; 3
    51b2:	08 95       	ret
    {
        switch (Copy_u8PortID)
    51b4:	81 30       	cpi	r24, 0x01	; 1
    51b6:	49 f0       	breq	.+18     	; 0x51ca <DIO_Enu_SetPortValue+0x1e>
    51b8:	81 30       	cpi	r24, 0x01	; 1
    51ba:	28 f0       	brcs	.+10     	; 0x51c6 <DIO_Enu_SetPortValue+0x1a>
    51bc:	82 30       	cpi	r24, 0x02	; 2
    51be:	39 f0       	breq	.+14     	; 0x51ce <DIO_Enu_SetPortValue+0x22>
    51c0:	83 30       	cpi	r24, 0x03	; 3
    51c2:	31 f4       	brne	.+12     	; 0x51d0 <DIO_Enu_SetPortValue+0x24>
    51c4:	07 c0       	rjmp	.+14     	; 0x51d4 <DIO_Enu_SetPortValue+0x28>
        {
        case DIO_PORTA:
            PORTA = Copy_u8Value;
    51c6:	6b bb       	out	0x1b, r22	; 27
    51c8:	03 c0       	rjmp	.+6      	; 0x51d0 <DIO_Enu_SetPortValue+0x24>
            break;
        case DIO_PORTB:
            PORTB = Copy_u8Value;
    51ca:	68 bb       	out	0x18, r22	; 24
    51cc:	01 c0       	rjmp	.+2      	; 0x51d0 <DIO_Enu_SetPortValue+0x24>
            break;
        case DIO_PORTC:
            PORTC = Copy_u8Value;
    51ce:	65 bb       	out	0x15, r22	; 21
    51d0:	81 e0       	ldi	r24, 0x01	; 1
    51d2:	08 95       	ret
            break;
        case DIO_PORTD:
            PORTD = Copy_u8Value;
    51d4:	62 bb       	out	0x12, r22	; 18
    51d6:	81 e0       	ldi	r24, 0x01	; 1
    {
        Local_EnuErrorState = ES_OUT_OF_RANGE;
    }

    return Local_EnuErrorState;
}
    51d8:	08 95       	ret

000051da <DIO_Enu_SetPinDirection>:

ES_t DIO_Enu_SetPinDirection(u8 Copy_u8PortID, u8 Copy_u8PinID, u8 Copy_u8Value)
{
    ES_t Local_EnuErrorState = ES_NOT_OK;
    if (Copy_u8PortID <= DIO_PORTD &&
    51da:	84 30       	cpi	r24, 0x04	; 4
    51dc:	08 f0       	brcs	.+2      	; 0x51e0 <DIO_Enu_SetPinDirection+0x6>
    51de:	65 c0       	rjmp	.+202    	; 0x52aa <DIO_Enu_SetPinDirection+0xd0>
    51e0:	68 30       	cpi	r22, 0x08	; 8
    51e2:	08 f0       	brcs	.+2      	; 0x51e6 <DIO_Enu_SetPinDirection+0xc>
    51e4:	62 c0       	rjmp	.+196    	; 0x52aa <DIO_Enu_SetPinDirection+0xd0>
    51e6:	42 30       	cpi	r20, 0x02	; 2
    51e8:	08 f0       	brcs	.+2      	; 0x51ec <DIO_Enu_SetPinDirection+0x12>
    51ea:	5f c0       	rjmp	.+190    	; 0x52aa <DIO_Enu_SetPinDirection+0xd0>
        Copy_u8PinID <= DIO_PIN7 &&
        Copy_u8Value <= OUTPUT)
    {
        switch (Copy_u8PortID)
    51ec:	81 30       	cpi	r24, 0x01	; 1
    51ee:	e9 f0       	breq	.+58     	; 0x522a <DIO_Enu_SetPinDirection+0x50>
    51f0:	81 30       	cpi	r24, 0x01	; 1
    51f2:	30 f0       	brcs	.+12     	; 0x5200 <DIO_Enu_SetPinDirection+0x26>
    51f4:	82 30       	cpi	r24, 0x02	; 2
    51f6:	71 f1       	breq	.+92     	; 0x5254 <DIO_Enu_SetPinDirection+0x7a>
    51f8:	83 30       	cpi	r24, 0x03	; 3
    51fa:	09 f0       	breq	.+2      	; 0x51fe <DIO_Enu_SetPinDirection+0x24>
    51fc:	54 c0       	rjmp	.+168    	; 0x52a6 <DIO_Enu_SetPinDirection+0xcc>
    51fe:	3f c0       	rjmp	.+126    	; 0x527e <DIO_Enu_SetPinDirection+0xa4>
        {
        case DIO_PORTA:
            DDRA &= ~(DIO_MASK_BIT << Copy_u8PinID);
    5200:	8a b3       	in	r24, 0x1a	; 26
    5202:	21 e0       	ldi	r18, 0x01	; 1
    5204:	30 e0       	ldi	r19, 0x00	; 0
    5206:	06 2e       	mov	r0, r22
    5208:	02 c0       	rjmp	.+4      	; 0x520e <DIO_Enu_SetPinDirection+0x34>
    520a:	22 0f       	add	r18, r18
    520c:	33 1f       	adc	r19, r19
    520e:	0a 94       	dec	r0
    5210:	e2 f7       	brpl	.-8      	; 0x520a <DIO_Enu_SetPinDirection+0x30>
    5212:	20 95       	com	r18
    5214:	28 23       	and	r18, r24
            DDRA |= (Copy_u8Value << Copy_u8PinID);
    5216:	84 2f       	mov	r24, r20
    5218:	90 e0       	ldi	r25, 0x00	; 0
    521a:	02 c0       	rjmp	.+4      	; 0x5220 <DIO_Enu_SetPinDirection+0x46>
    521c:	88 0f       	add	r24, r24
    521e:	99 1f       	adc	r25, r25
    5220:	6a 95       	dec	r22
    5222:	e2 f7       	brpl	.-8      	; 0x521c <DIO_Enu_SetPinDirection+0x42>
    5224:	28 2b       	or	r18, r24
    5226:	2a bb       	out	0x1a, r18	; 26
    5228:	3e c0       	rjmp	.+124    	; 0x52a6 <DIO_Enu_SetPinDirection+0xcc>
            break;
        case DIO_PORTB:
            DDRB &= ~(DIO_MASK_BIT << Copy_u8PinID);
    522a:	87 b3       	in	r24, 0x17	; 23
    522c:	21 e0       	ldi	r18, 0x01	; 1
    522e:	30 e0       	ldi	r19, 0x00	; 0
    5230:	06 2e       	mov	r0, r22
    5232:	02 c0       	rjmp	.+4      	; 0x5238 <DIO_Enu_SetPinDirection+0x5e>
    5234:	22 0f       	add	r18, r18
    5236:	33 1f       	adc	r19, r19
    5238:	0a 94       	dec	r0
    523a:	e2 f7       	brpl	.-8      	; 0x5234 <DIO_Enu_SetPinDirection+0x5a>
    523c:	20 95       	com	r18
    523e:	28 23       	and	r18, r24
            DDRB |= (Copy_u8Value << Copy_u8PinID);
    5240:	84 2f       	mov	r24, r20
    5242:	90 e0       	ldi	r25, 0x00	; 0
    5244:	02 c0       	rjmp	.+4      	; 0x524a <DIO_Enu_SetPinDirection+0x70>
    5246:	88 0f       	add	r24, r24
    5248:	99 1f       	adc	r25, r25
    524a:	6a 95       	dec	r22
    524c:	e2 f7       	brpl	.-8      	; 0x5246 <DIO_Enu_SetPinDirection+0x6c>
    524e:	28 2b       	or	r18, r24
    5250:	27 bb       	out	0x17, r18	; 23
    5252:	29 c0       	rjmp	.+82     	; 0x52a6 <DIO_Enu_SetPinDirection+0xcc>
            break;
        case DIO_PORTC:
            DDRC &= ~(DIO_MASK_BIT << Copy_u8PinID);
    5254:	84 b3       	in	r24, 0x14	; 20
    5256:	21 e0       	ldi	r18, 0x01	; 1
    5258:	30 e0       	ldi	r19, 0x00	; 0
    525a:	06 2e       	mov	r0, r22
    525c:	02 c0       	rjmp	.+4      	; 0x5262 <DIO_Enu_SetPinDirection+0x88>
    525e:	22 0f       	add	r18, r18
    5260:	33 1f       	adc	r19, r19
    5262:	0a 94       	dec	r0
    5264:	e2 f7       	brpl	.-8      	; 0x525e <DIO_Enu_SetPinDirection+0x84>
    5266:	20 95       	com	r18
    5268:	28 23       	and	r18, r24
            DDRC |= (Copy_u8Value << Copy_u8PinID);
    526a:	84 2f       	mov	r24, r20
    526c:	90 e0       	ldi	r25, 0x00	; 0
    526e:	02 c0       	rjmp	.+4      	; 0x5274 <DIO_Enu_SetPinDirection+0x9a>
    5270:	88 0f       	add	r24, r24
    5272:	99 1f       	adc	r25, r25
    5274:	6a 95       	dec	r22
    5276:	e2 f7       	brpl	.-8      	; 0x5270 <DIO_Enu_SetPinDirection+0x96>
    5278:	28 2b       	or	r18, r24
    527a:	24 bb       	out	0x14, r18	; 20
    527c:	14 c0       	rjmp	.+40     	; 0x52a6 <DIO_Enu_SetPinDirection+0xcc>
            break;
        case DIO_PORTD:
            DDRD &= ~(DIO_MASK_BIT << Copy_u8PinID);
    527e:	81 b3       	in	r24, 0x11	; 17
    5280:	21 e0       	ldi	r18, 0x01	; 1
    5282:	30 e0       	ldi	r19, 0x00	; 0
    5284:	06 2e       	mov	r0, r22
    5286:	02 c0       	rjmp	.+4      	; 0x528c <DIO_Enu_SetPinDirection+0xb2>
    5288:	22 0f       	add	r18, r18
    528a:	33 1f       	adc	r19, r19
    528c:	0a 94       	dec	r0
    528e:	e2 f7       	brpl	.-8      	; 0x5288 <DIO_Enu_SetPinDirection+0xae>
    5290:	20 95       	com	r18
    5292:	28 23       	and	r18, r24
            DDRD |= (Copy_u8Value << Copy_u8PinID);
    5294:	84 2f       	mov	r24, r20
    5296:	90 e0       	ldi	r25, 0x00	; 0
    5298:	02 c0       	rjmp	.+4      	; 0x529e <DIO_Enu_SetPinDirection+0xc4>
    529a:	88 0f       	add	r24, r24
    529c:	99 1f       	adc	r25, r25
    529e:	6a 95       	dec	r22
    52a0:	e2 f7       	brpl	.-8      	; 0x529a <DIO_Enu_SetPinDirection+0xc0>
    52a2:	28 2b       	or	r18, r24
    52a4:	21 bb       	out	0x11, r18	; 17
    52a6:	81 e0       	ldi	r24, 0x01	; 1
    52a8:	08 95       	ret
    52aa:	83 e0       	ldi	r24, 0x03	; 3
    {
        Local_EnuErrorState = ES_OUT_OF_RANGE;
    }

    return Local_EnuErrorState;
}
    52ac:	08 95       	ret

000052ae <DIO_Enu_SetPinValue>:

ES_t DIO_Enu_SetPinValue(u8 Copy_u8PortID, u8 Copy_u8PinID, u8 Copy_u8Value)
{
    ES_t Local_EnuErrorState = ES_NOT_OK;

    if (Copy_u8PortID <= DIO_PORTD &&
    52ae:	84 30       	cpi	r24, 0x04	; 4
    52b0:	08 f0       	brcs	.+2      	; 0x52b4 <DIO_Enu_SetPinValue+0x6>
    52b2:	65 c0       	rjmp	.+202    	; 0x537e <DIO_Enu_SetPinValue+0xd0>
    52b4:	68 30       	cpi	r22, 0x08	; 8
    52b6:	08 f0       	brcs	.+2      	; 0x52ba <DIO_Enu_SetPinValue+0xc>
    52b8:	62 c0       	rjmp	.+196    	; 0x537e <DIO_Enu_SetPinValue+0xd0>
    52ba:	42 30       	cpi	r20, 0x02	; 2
    52bc:	08 f0       	brcs	.+2      	; 0x52c0 <DIO_Enu_SetPinValue+0x12>
    52be:	5f c0       	rjmp	.+190    	; 0x537e <DIO_Enu_SetPinValue+0xd0>
        Copy_u8PinID <= DIO_PIN7 &&
        Copy_u8Value <= HIGH)
    {
        switch (Copy_u8PortID)
    52c0:	81 30       	cpi	r24, 0x01	; 1
    52c2:	e9 f0       	breq	.+58     	; 0x52fe <DIO_Enu_SetPinValue+0x50>
    52c4:	81 30       	cpi	r24, 0x01	; 1
    52c6:	30 f0       	brcs	.+12     	; 0x52d4 <DIO_Enu_SetPinValue+0x26>
    52c8:	82 30       	cpi	r24, 0x02	; 2
    52ca:	71 f1       	breq	.+92     	; 0x5328 <DIO_Enu_SetPinValue+0x7a>
    52cc:	83 30       	cpi	r24, 0x03	; 3
    52ce:	09 f0       	breq	.+2      	; 0x52d2 <DIO_Enu_SetPinValue+0x24>
    52d0:	54 c0       	rjmp	.+168    	; 0x537a <DIO_Enu_SetPinValue+0xcc>
    52d2:	3f c0       	rjmp	.+126    	; 0x5352 <DIO_Enu_SetPinValue+0xa4>
        {
        case DIO_PORTA:
            PORTA &= ~(DIO_MASK_BIT << Copy_u8PinID);
    52d4:	8b b3       	in	r24, 0x1b	; 27
    52d6:	21 e0       	ldi	r18, 0x01	; 1
    52d8:	30 e0       	ldi	r19, 0x00	; 0
    52da:	06 2e       	mov	r0, r22
    52dc:	02 c0       	rjmp	.+4      	; 0x52e2 <DIO_Enu_SetPinValue+0x34>
    52de:	22 0f       	add	r18, r18
    52e0:	33 1f       	adc	r19, r19
    52e2:	0a 94       	dec	r0
    52e4:	e2 f7       	brpl	.-8      	; 0x52de <DIO_Enu_SetPinValue+0x30>
    52e6:	20 95       	com	r18
    52e8:	28 23       	and	r18, r24
            PORTA |= (Copy_u8Value << Copy_u8PinID);
    52ea:	84 2f       	mov	r24, r20
    52ec:	90 e0       	ldi	r25, 0x00	; 0
    52ee:	02 c0       	rjmp	.+4      	; 0x52f4 <DIO_Enu_SetPinValue+0x46>
    52f0:	88 0f       	add	r24, r24
    52f2:	99 1f       	adc	r25, r25
    52f4:	6a 95       	dec	r22
    52f6:	e2 f7       	brpl	.-8      	; 0x52f0 <DIO_Enu_SetPinValue+0x42>
    52f8:	28 2b       	or	r18, r24
    52fa:	2b bb       	out	0x1b, r18	; 27
    52fc:	3e c0       	rjmp	.+124    	; 0x537a <DIO_Enu_SetPinValue+0xcc>
            break;
        case DIO_PORTB:
            PORTB &= ~(DIO_MASK_BIT << Copy_u8PinID);
    52fe:	88 b3       	in	r24, 0x18	; 24
    5300:	21 e0       	ldi	r18, 0x01	; 1
    5302:	30 e0       	ldi	r19, 0x00	; 0
    5304:	06 2e       	mov	r0, r22
    5306:	02 c0       	rjmp	.+4      	; 0x530c <DIO_Enu_SetPinValue+0x5e>
    5308:	22 0f       	add	r18, r18
    530a:	33 1f       	adc	r19, r19
    530c:	0a 94       	dec	r0
    530e:	e2 f7       	brpl	.-8      	; 0x5308 <DIO_Enu_SetPinValue+0x5a>
    5310:	20 95       	com	r18
    5312:	28 23       	and	r18, r24
            PORTB |= (Copy_u8Value << Copy_u8PinID);
    5314:	84 2f       	mov	r24, r20
    5316:	90 e0       	ldi	r25, 0x00	; 0
    5318:	02 c0       	rjmp	.+4      	; 0x531e <DIO_Enu_SetPinValue+0x70>
    531a:	88 0f       	add	r24, r24
    531c:	99 1f       	adc	r25, r25
    531e:	6a 95       	dec	r22
    5320:	e2 f7       	brpl	.-8      	; 0x531a <DIO_Enu_SetPinValue+0x6c>
    5322:	28 2b       	or	r18, r24
    5324:	28 bb       	out	0x18, r18	; 24
    5326:	29 c0       	rjmp	.+82     	; 0x537a <DIO_Enu_SetPinValue+0xcc>
            break;
        case DIO_PORTC:
            PORTC &= ~(DIO_MASK_BIT << Copy_u8PinID);
    5328:	85 b3       	in	r24, 0x15	; 21
    532a:	21 e0       	ldi	r18, 0x01	; 1
    532c:	30 e0       	ldi	r19, 0x00	; 0
    532e:	06 2e       	mov	r0, r22
    5330:	02 c0       	rjmp	.+4      	; 0x5336 <DIO_Enu_SetPinValue+0x88>
    5332:	22 0f       	add	r18, r18
    5334:	33 1f       	adc	r19, r19
    5336:	0a 94       	dec	r0
    5338:	e2 f7       	brpl	.-8      	; 0x5332 <DIO_Enu_SetPinValue+0x84>
    533a:	20 95       	com	r18
    533c:	28 23       	and	r18, r24
            PORTC |= (Copy_u8Value << Copy_u8PinID);
    533e:	84 2f       	mov	r24, r20
    5340:	90 e0       	ldi	r25, 0x00	; 0
    5342:	02 c0       	rjmp	.+4      	; 0x5348 <DIO_Enu_SetPinValue+0x9a>
    5344:	88 0f       	add	r24, r24
    5346:	99 1f       	adc	r25, r25
    5348:	6a 95       	dec	r22
    534a:	e2 f7       	brpl	.-8      	; 0x5344 <DIO_Enu_SetPinValue+0x96>
    534c:	28 2b       	or	r18, r24
    534e:	25 bb       	out	0x15, r18	; 21
    5350:	14 c0       	rjmp	.+40     	; 0x537a <DIO_Enu_SetPinValue+0xcc>
            break;
        case DIO_PORTD:
            PORTD &= ~(DIO_MASK_BIT << Copy_u8PinID);
    5352:	82 b3       	in	r24, 0x12	; 18
    5354:	21 e0       	ldi	r18, 0x01	; 1
    5356:	30 e0       	ldi	r19, 0x00	; 0
    5358:	06 2e       	mov	r0, r22
    535a:	02 c0       	rjmp	.+4      	; 0x5360 <DIO_Enu_SetPinValue+0xb2>
    535c:	22 0f       	add	r18, r18
    535e:	33 1f       	adc	r19, r19
    5360:	0a 94       	dec	r0
    5362:	e2 f7       	brpl	.-8      	; 0x535c <DIO_Enu_SetPinValue+0xae>
    5364:	20 95       	com	r18
    5366:	28 23       	and	r18, r24
            PORTD |= (Copy_u8Value << Copy_u8PinID);
    5368:	84 2f       	mov	r24, r20
    536a:	90 e0       	ldi	r25, 0x00	; 0
    536c:	02 c0       	rjmp	.+4      	; 0x5372 <DIO_Enu_SetPinValue+0xc4>
    536e:	88 0f       	add	r24, r24
    5370:	99 1f       	adc	r25, r25
    5372:	6a 95       	dec	r22
    5374:	e2 f7       	brpl	.-8      	; 0x536e <DIO_Enu_SetPinValue+0xc0>
    5376:	28 2b       	or	r18, r24
    5378:	22 bb       	out	0x12, r18	; 18
    537a:	81 e0       	ldi	r24, 0x01	; 1
    537c:	08 95       	ret
    537e:	83 e0       	ldi	r24, 0x03	; 3
    {
        Local_EnuErrorState = ES_OUT_OF_RANGE;
    }

    return Local_EnuErrorState;
}
    5380:	08 95       	ret

00005382 <DIO_Enu_TogPortValue>:

ES_t DIO_Enu_TogPortValue(u8 Copy_u8PortID)
{
    ES_t Local_EnuErrorState = ES_NOT_OK;

    if (Copy_u8PortID <= DIO_PORTD)
    5382:	84 30       	cpi	r24, 0x04	; 4
    5384:	10 f0       	brcs	.+4      	; 0x538a <DIO_Enu_TogPortValue+0x8>
    5386:	83 e0       	ldi	r24, 0x03	; 3
    5388:	08 95       	ret
    {
        switch (Copy_u8PortID)
    538a:	81 30       	cpi	r24, 0x01	; 1
    538c:	59 f0       	breq	.+22     	; 0x53a4 <DIO_Enu_TogPortValue+0x22>
    538e:	81 30       	cpi	r24, 0x01	; 1
    5390:	28 f0       	brcs	.+10     	; 0x539c <DIO_Enu_TogPortValue+0x1a>
    5392:	82 30       	cpi	r24, 0x02	; 2
    5394:	59 f0       	breq	.+22     	; 0x53ac <DIO_Enu_TogPortValue+0x2a>
    5396:	83 30       	cpi	r24, 0x03	; 3
    5398:	61 f4       	brne	.+24     	; 0x53b2 <DIO_Enu_TogPortValue+0x30>
    539a:	0d c0       	rjmp	.+26     	; 0x53b6 <DIO_Enu_TogPortValue+0x34>
        {
        case DIO_PORTA:
            PORTA = ~PORTA;
    539c:	8b b3       	in	r24, 0x1b	; 27
    539e:	80 95       	com	r24
    53a0:	8b bb       	out	0x1b, r24	; 27
    53a2:	07 c0       	rjmp	.+14     	; 0x53b2 <DIO_Enu_TogPortValue+0x30>
            break;
        case DIO_PORTB:
            PORTB = ~PORTB;
    53a4:	88 b3       	in	r24, 0x18	; 24
    53a6:	80 95       	com	r24
    53a8:	88 bb       	out	0x18, r24	; 24
    53aa:	03 c0       	rjmp	.+6      	; 0x53b2 <DIO_Enu_TogPortValue+0x30>
            break;
        case DIO_PORTC:
            PORTC = ~PORTC;
    53ac:	85 b3       	in	r24, 0x15	; 21
    53ae:	80 95       	com	r24
    53b0:	85 bb       	out	0x15, r24	; 21
    53b2:	81 e0       	ldi	r24, 0x01	; 1
    53b4:	08 95       	ret
            break;
        case DIO_PORTD:
            PORTD = ~PORTD;
    53b6:	82 b3       	in	r24, 0x12	; 18
    53b8:	80 95       	com	r24
    53ba:	82 bb       	out	0x12, r24	; 18
    53bc:	81 e0       	ldi	r24, 0x01	; 1
    {
        Local_EnuErrorState = ES_OUT_OF_RANGE;
    }

    return Local_EnuErrorState;
}
    53be:	08 95       	ret

000053c0 <DIO_Enu_TogPinValue>:

ES_t DIO_Enu_TogPinValue(u8 Copy_u8PortID, u8 Copy_u8PinID)
{
    ES_t Local_EnuErrorState = ES_NOT_OK;

    if (Copy_u8PortID <= DIO_PORTD &&
    53c0:	84 30       	cpi	r24, 0x04	; 4
    53c2:	c0 f5       	brcc	.+112    	; 0x5434 <DIO_Enu_TogPinValue+0x74>
    53c4:	68 30       	cpi	r22, 0x08	; 8
    53c6:	b0 f5       	brcc	.+108    	; 0x5434 <DIO_Enu_TogPinValue+0x74>
        Copy_u8PinID <= DIO_PIN7)
    {
        switch (Copy_u8PortID)
    53c8:	81 30       	cpi	r24, 0x01	; 1
    53ca:	91 f0       	breq	.+36     	; 0x53f0 <DIO_Enu_TogPinValue+0x30>
    53cc:	81 30       	cpi	r24, 0x01	; 1
    53ce:	28 f0       	brcs	.+10     	; 0x53da <DIO_Enu_TogPinValue+0x1a>
    53d0:	82 30       	cpi	r24, 0x02	; 2
    53d2:	c9 f0       	breq	.+50     	; 0x5406 <DIO_Enu_TogPinValue+0x46>
    53d4:	83 30       	cpi	r24, 0x03	; 3
    53d6:	61 f5       	brne	.+88     	; 0x5430 <DIO_Enu_TogPinValue+0x70>
    53d8:	21 c0       	rjmp	.+66     	; 0x541c <DIO_Enu_TogPinValue+0x5c>
        {
        case DIO_PORTA:
            TOG_BIT(PORTA, Copy_u8PinID);
    53da:	2b b3       	in	r18, 0x1b	; 27
    53dc:	81 e0       	ldi	r24, 0x01	; 1
    53de:	90 e0       	ldi	r25, 0x00	; 0
    53e0:	02 c0       	rjmp	.+4      	; 0x53e6 <DIO_Enu_TogPinValue+0x26>
    53e2:	88 0f       	add	r24, r24
    53e4:	99 1f       	adc	r25, r25
    53e6:	6a 95       	dec	r22
    53e8:	e2 f7       	brpl	.-8      	; 0x53e2 <DIO_Enu_TogPinValue+0x22>
    53ea:	28 27       	eor	r18, r24
    53ec:	2b bb       	out	0x1b, r18	; 27
    53ee:	20 c0       	rjmp	.+64     	; 0x5430 <DIO_Enu_TogPinValue+0x70>
            break;
        case DIO_PORTB:
            TOG_BIT(PORTB, Copy_u8PinID);
    53f0:	28 b3       	in	r18, 0x18	; 24
    53f2:	81 e0       	ldi	r24, 0x01	; 1
    53f4:	90 e0       	ldi	r25, 0x00	; 0
    53f6:	02 c0       	rjmp	.+4      	; 0x53fc <DIO_Enu_TogPinValue+0x3c>
    53f8:	88 0f       	add	r24, r24
    53fa:	99 1f       	adc	r25, r25
    53fc:	6a 95       	dec	r22
    53fe:	e2 f7       	brpl	.-8      	; 0x53f8 <DIO_Enu_TogPinValue+0x38>
    5400:	28 27       	eor	r18, r24
    5402:	28 bb       	out	0x18, r18	; 24
    5404:	15 c0       	rjmp	.+42     	; 0x5430 <DIO_Enu_TogPinValue+0x70>
            break;
        case DIO_PORTC:
            TOG_BIT(PORTC, Copy_u8PinID);
    5406:	25 b3       	in	r18, 0x15	; 21
    5408:	81 e0       	ldi	r24, 0x01	; 1
    540a:	90 e0       	ldi	r25, 0x00	; 0
    540c:	02 c0       	rjmp	.+4      	; 0x5412 <DIO_Enu_TogPinValue+0x52>
    540e:	88 0f       	add	r24, r24
    5410:	99 1f       	adc	r25, r25
    5412:	6a 95       	dec	r22
    5414:	e2 f7       	brpl	.-8      	; 0x540e <DIO_Enu_TogPinValue+0x4e>
    5416:	28 27       	eor	r18, r24
    5418:	25 bb       	out	0x15, r18	; 21
    541a:	0a c0       	rjmp	.+20     	; 0x5430 <DIO_Enu_TogPinValue+0x70>
            break;
        case DIO_PORTD:
            TOG_BIT(PORTD, Copy_u8PinID);
    541c:	22 b3       	in	r18, 0x12	; 18
    541e:	81 e0       	ldi	r24, 0x01	; 1
    5420:	90 e0       	ldi	r25, 0x00	; 0
    5422:	02 c0       	rjmp	.+4      	; 0x5428 <DIO_Enu_TogPinValue+0x68>
    5424:	88 0f       	add	r24, r24
    5426:	99 1f       	adc	r25, r25
    5428:	6a 95       	dec	r22
    542a:	e2 f7       	brpl	.-8      	; 0x5424 <DIO_Enu_TogPinValue+0x64>
    542c:	28 27       	eor	r18, r24
    542e:	22 bb       	out	0x12, r18	; 18
    5430:	81 e0       	ldi	r24, 0x01	; 1
    5432:	08 95       	ret
    5434:	83 e0       	ldi	r24, 0x03	; 3
    {
        Local_EnuErrorState = ES_OUT_OF_RANGE;
    }

    return Local_EnuErrorState;
}
    5436:	08 95       	ret

00005438 <DIO_Enu_GetPortValue>:

ES_t DIO_Enu_GetPortValue(u8 Copy_u8PortID, u8 *Copy_pu8Value)
{
    5438:	fb 01       	movw	r30, r22
    ES_t Local_EnuErrorState = ES_NOT_OK;

    if (Copy_pu8Value != NULL)
    543a:	61 15       	cp	r22, r1
    543c:	71 05       	cpc	r23, r1
    543e:	11 f4       	brne	.+4      	; 0x5444 <DIO_Enu_GetPortValue+0xc>
    5440:	82 e0       	ldi	r24, 0x02	; 2
    5442:	08 95       	ret
    {
        if (Copy_u8PortID <= DIO_PORTD)
    5444:	84 30       	cpi	r24, 0x04	; 4
    5446:	10 f0       	brcs	.+4      	; 0x544c <DIO_Enu_GetPortValue+0x14>
    5448:	83 e0       	ldi	r24, 0x03	; 3
    544a:	08 95       	ret
        {
            switch (Copy_u8PortID)
    544c:	81 30       	cpi	r24, 0x01	; 1
    544e:	49 f0       	breq	.+18     	; 0x5462 <DIO_Enu_GetPortValue+0x2a>
    5450:	81 30       	cpi	r24, 0x01	; 1
    5452:	28 f0       	brcs	.+10     	; 0x545e <DIO_Enu_GetPortValue+0x26>
    5454:	82 30       	cpi	r24, 0x02	; 2
    5456:	39 f0       	breq	.+14     	; 0x5466 <DIO_Enu_GetPortValue+0x2e>
    5458:	83 30       	cpi	r24, 0x03	; 3
    545a:	39 f4       	brne	.+14     	; 0x546a <DIO_Enu_GetPortValue+0x32>
    545c:	08 c0       	rjmp	.+16     	; 0x546e <DIO_Enu_GetPortValue+0x36>
            {
            case DIO_PORTA:
                *Copy_pu8Value = PINA;
    545e:	89 b3       	in	r24, 0x19	; 25
    5460:	03 c0       	rjmp	.+6      	; 0x5468 <DIO_Enu_GetPortValue+0x30>
                break;
            case DIO_PORTB:
                *Copy_pu8Value = PINB;
    5462:	86 b3       	in	r24, 0x16	; 22
    5464:	01 c0       	rjmp	.+2      	; 0x5468 <DIO_Enu_GetPortValue+0x30>
                break;
            case DIO_PORTC:
                *Copy_pu8Value = PINC;
    5466:	83 b3       	in	r24, 0x13	; 19
    5468:	80 83       	st	Z, r24
    546a:	81 e0       	ldi	r24, 0x01	; 1
    546c:	08 95       	ret
                break;
            case DIO_PORTD:
                *Copy_pu8Value = PIND;
    546e:	80 b3       	in	r24, 0x10	; 16
    5470:	80 83       	st	Z, r24
    5472:	81 e0       	ldi	r24, 0x01	; 1
    {
        Local_EnuErrorState = ES_NULL_POINTER;
    }

    return Local_EnuErrorState;
}
    5474:	08 95       	ret

00005476 <DIO_Enu_GetPinValue>:

ES_t DIO_Enu_GetPinValue(u8 Copy_u8PortID, u8 Copy_u8PinID, u8 *Copy_pu8Value)
{
    5476:	fa 01       	movw	r30, r20
    ES_t Local_EnuErrorState = ES_NOT_OK;

    if (Copy_pu8Value != NULL)
    5478:	41 15       	cp	r20, r1
    547a:	51 05       	cpc	r21, r1
    547c:	11 f4       	brne	.+4      	; 0x5482 <DIO_Enu_GetPinValue+0xc>
    547e:	82 e0       	ldi	r24, 0x02	; 2
    5480:	08 95       	ret
    {
        if (Copy_u8PortID <= DIO_PORTD &&
    5482:	84 30       	cpi	r24, 0x04	; 4
    5484:	e0 f4       	brcc	.+56     	; 0x54be <DIO_Enu_GetPinValue+0x48>
    5486:	68 30       	cpi	r22, 0x08	; 8
    5488:	d0 f4       	brcc	.+52     	; 0x54be <DIO_Enu_GetPinValue+0x48>
            Copy_u8PinID <= DIO_PIN7)
        {
            switch (Copy_u8PortID)
    548a:	81 30       	cpi	r24, 0x01	; 1
    548c:	49 f0       	breq	.+18     	; 0x54a0 <DIO_Enu_GetPinValue+0x2a>
    548e:	81 30       	cpi	r24, 0x01	; 1
    5490:	28 f0       	brcs	.+10     	; 0x549c <DIO_Enu_GetPinValue+0x26>
    5492:	82 30       	cpi	r24, 0x02	; 2
    5494:	39 f0       	breq	.+14     	; 0x54a4 <DIO_Enu_GetPinValue+0x2e>
    5496:	83 30       	cpi	r24, 0x03	; 3
    5498:	81 f4       	brne	.+32     	; 0x54ba <DIO_Enu_GetPinValue+0x44>
    549a:	06 c0       	rjmp	.+12     	; 0x54a8 <DIO_Enu_GetPinValue+0x32>
            {
            case DIO_PORTA:
                *Copy_pu8Value = GIT_BIT(PINA, Copy_u8PinID);
    549c:	89 b3       	in	r24, 0x19	; 25
    549e:	05 c0       	rjmp	.+10     	; 0x54aa <DIO_Enu_GetPinValue+0x34>
                break;
            case DIO_PORTB:
                *Copy_pu8Value = GIT_BIT(PINB, Copy_u8PinID);
    54a0:	86 b3       	in	r24, 0x16	; 22
    54a2:	03 c0       	rjmp	.+6      	; 0x54aa <DIO_Enu_GetPinValue+0x34>
                break;
            case DIO_PORTC:
                *Copy_pu8Value = GIT_BIT(PINC, Copy_u8PinID);
    54a4:	83 b3       	in	r24, 0x13	; 19
    54a6:	01 c0       	rjmp	.+2      	; 0x54aa <DIO_Enu_GetPinValue+0x34>
                break;
            case DIO_PORTD:
                *Copy_pu8Value = GIT_BIT(PIND, Copy_u8PinID);
    54a8:	80 b3       	in	r24, 0x10	; 16
    54aa:	90 e0       	ldi	r25, 0x00	; 0
    54ac:	02 c0       	rjmp	.+4      	; 0x54b2 <DIO_Enu_GetPinValue+0x3c>
    54ae:	95 95       	asr	r25
    54b0:	87 95       	ror	r24
    54b2:	6a 95       	dec	r22
    54b4:	e2 f7       	brpl	.-8      	; 0x54ae <DIO_Enu_GetPinValue+0x38>
    54b6:	81 70       	andi	r24, 0x01	; 1
    54b8:	80 83       	st	Z, r24
    54ba:	81 e0       	ldi	r24, 0x01	; 1
    54bc:	08 95       	ret
    54be:	83 e0       	ldi	r24, 0x03	; 3
    {
        Local_EnuErrorState = ES_NULL_POINTER;
    }

    return Local_EnuErrorState;
}
    54c0:	08 95       	ret

000054c2 <DIO_Enu_WriteHighNibbles>:
ES_t DIO_Enu_WriteHighNibbles(u8 Copy_u8PortID,u8 Copy_u8Value)
{

    ES_t Local_EnuErrorState = ES_NOT_OK;

	if ( (Copy_u8PortID <= DIO_PORTD))
    54c2:	84 30       	cpi	r24, 0x04	; 4
    54c4:	10 f0       	brcs	.+4      	; 0x54ca <DIO_Enu_WriteHighNibbles+0x8>
    54c6:	83 e0       	ldi	r24, 0x03	; 3
    54c8:	08 95       	ret
	{
		Copy_u8Value = (Copy_u8Value<<4) ;
    54ca:	62 95       	swap	r22
    54cc:	60 7f       	andi	r22, 0xF0	; 240
		switch(Copy_u8PortID)
    54ce:	81 30       	cpi	r24, 0x01	; 1
    54d0:	61 f0       	breq	.+24     	; 0x54ea <DIO_Enu_WriteHighNibbles+0x28>
    54d2:	81 30       	cpi	r24, 0x01	; 1
    54d4:	28 f0       	brcs	.+10     	; 0x54e0 <DIO_Enu_WriteHighNibbles+0x1e>
    54d6:	82 30       	cpi	r24, 0x02	; 2
    54d8:	69 f0       	breq	.+26     	; 0x54f4 <DIO_Enu_WriteHighNibbles+0x32>
    54da:	83 30       	cpi	r24, 0x03	; 3
    54dc:	79 f4       	brne	.+30     	; 0x54fc <DIO_Enu_WriteHighNibbles+0x3a>
    54de:	10 c0       	rjmp	.+32     	; 0x5500 <DIO_Enu_WriteHighNibbles+0x3e>
		{
		case DIO_PORTA :
			PORTA &=0x0f;                   
    54e0:	8b b3       	in	r24, 0x1b	; 27
    54e2:	8f 70       	andi	r24, 0x0F	; 15
			PORTA |=Copy_u8Value;			
    54e4:	68 2b       	or	r22, r24
    54e6:	6b bb       	out	0x1b, r22	; 27
    54e8:	09 c0       	rjmp	.+18     	; 0x54fc <DIO_Enu_WriteHighNibbles+0x3a>
			break ;
		case DIO_PORTB:
			PORTB &=0x0f;                 
    54ea:	88 b3       	in	r24, 0x18	; 24
    54ec:	8f 70       	andi	r24, 0x0F	; 15
			PORTB |=Copy_u8Value;
    54ee:	68 2b       	or	r22, r24
    54f0:	68 bb       	out	0x18, r22	; 24
    54f2:	04 c0       	rjmp	.+8      	; 0x54fc <DIO_Enu_WriteHighNibbles+0x3a>
			break ;
		case DIO_PORTC :
			PORTC &=0x0f;                 
    54f4:	85 b3       	in	r24, 0x15	; 21
    54f6:	8f 70       	andi	r24, 0x0F	; 15
			PORTC |=Copy_u8Value;
    54f8:	68 2b       	or	r22, r24
    54fa:	65 bb       	out	0x15, r22	; 21
    54fc:	81 e0       	ldi	r24, 0x01	; 1
    54fe:	08 95       	ret
			break ;
		case DIO_PORTD:
			PORTD &=0x0f;                 
    5500:	82 b3       	in	r24, 0x12	; 18
    5502:	8f 70       	andi	r24, 0x0F	; 15
			PORTD |=Copy_u8Value;
    5504:	68 2b       	or	r22, r24
    5506:	62 bb       	out	0x12, r22	; 18
    5508:	81 e0       	ldi	r24, 0x01	; 1
        Local_EnuErrorState = ES_OUT_OF_RANGE;
    }

	return Local_EnuErrorState ;

}
    550a:	08 95       	ret

0000550c <DIO_Enu_WriteLowNibbles>:

ES_t DIO_Enu_WriteLowNibbles(u8 Copy_u8PortID,u8 Copy_u8Value)
{
    ES_t Local_EnuErrorState = ES_NOT_OK;

	if ( (Copy_u8PortID <= DIO_PORTD))
    550c:	84 30       	cpi	r24, 0x04	; 4
    550e:	10 f0       	brcs	.+4      	; 0x5514 <DIO_Enu_WriteLowNibbles+0x8>
    5510:	83 e0       	ldi	r24, 0x03	; 3
    5512:	08 95       	ret
	{
		Copy_u8Value&=0x0f;
    5514:	6f 70       	andi	r22, 0x0F	; 15
		switch(Copy_u8PortID)
    5516:	81 30       	cpi	r24, 0x01	; 1
    5518:	61 f0       	breq	.+24     	; 0x5532 <DIO_Enu_WriteLowNibbles+0x26>
    551a:	81 30       	cpi	r24, 0x01	; 1
    551c:	28 f0       	brcs	.+10     	; 0x5528 <DIO_Enu_WriteLowNibbles+0x1c>
    551e:	82 30       	cpi	r24, 0x02	; 2
    5520:	69 f0       	breq	.+26     	; 0x553c <DIO_Enu_WriteLowNibbles+0x30>
    5522:	83 30       	cpi	r24, 0x03	; 3
    5524:	79 f4       	brne	.+30     	; 0x5544 <DIO_Enu_WriteLowNibbles+0x38>
    5526:	10 c0       	rjmp	.+32     	; 0x5548 <DIO_Enu_WriteLowNibbles+0x3c>
		{
		case DIO_PORTA :
			PORTA &=0xf0;                   
    5528:	8b b3       	in	r24, 0x1b	; 27
    552a:	80 7f       	andi	r24, 0xF0	; 240
			PORTA |=Copy_u8Value;			
    552c:	68 2b       	or	r22, r24
    552e:	6b bb       	out	0x1b, r22	; 27
    5530:	09 c0       	rjmp	.+18     	; 0x5544 <DIO_Enu_WriteLowNibbles+0x38>
			break ;
		case DIO_PORTB:
			PORTB &=0xf0;                 
    5532:	88 b3       	in	r24, 0x18	; 24
    5534:	80 7f       	andi	r24, 0xF0	; 240
			PORTB |=Copy_u8Value;
    5536:	68 2b       	or	r22, r24
    5538:	68 bb       	out	0x18, r22	; 24
    553a:	04 c0       	rjmp	.+8      	; 0x5544 <DIO_Enu_WriteLowNibbles+0x38>
			break ;
		case DIO_PORTC :
			PORTC &=0xf0;                 
    553c:	85 b3       	in	r24, 0x15	; 21
    553e:	80 7f       	andi	r24, 0xF0	; 240
			PORTC |=Copy_u8Value;
    5540:	68 2b       	or	r22, r24
    5542:	65 bb       	out	0x15, r22	; 21
    5544:	81 e0       	ldi	r24, 0x01	; 1
    5546:	08 95       	ret
			break ;
		case DIO_PORTD:
			PORTD &=0xf0;                 
    5548:	82 b3       	in	r24, 0x12	; 18
    554a:	80 7f       	andi	r24, 0xF0	; 240
			PORTD |=Copy_u8Value;
    554c:	68 2b       	or	r22, r24
    554e:	62 bb       	out	0x12, r22	; 18
    5550:	81 e0       	ldi	r24, 0x01	; 1
        Local_EnuErrorState = ES_OUT_OF_RANGE;
    }

	return Local_EnuErrorState ;

}
    5552:	08 95       	ret

00005554 <__mulsi3>:
    5554:	62 9f       	mul	r22, r18
    5556:	d0 01       	movw	r26, r0
    5558:	73 9f       	mul	r23, r19
    555a:	f0 01       	movw	r30, r0
    555c:	82 9f       	mul	r24, r18
    555e:	e0 0d       	add	r30, r0
    5560:	f1 1d       	adc	r31, r1
    5562:	64 9f       	mul	r22, r20
    5564:	e0 0d       	add	r30, r0
    5566:	f1 1d       	adc	r31, r1
    5568:	92 9f       	mul	r25, r18
    556a:	f0 0d       	add	r31, r0
    556c:	83 9f       	mul	r24, r19
    556e:	f0 0d       	add	r31, r0
    5570:	74 9f       	mul	r23, r20
    5572:	f0 0d       	add	r31, r0
    5574:	65 9f       	mul	r22, r21
    5576:	f0 0d       	add	r31, r0
    5578:	99 27       	eor	r25, r25
    557a:	72 9f       	mul	r23, r18
    557c:	b0 0d       	add	r27, r0
    557e:	e1 1d       	adc	r30, r1
    5580:	f9 1f       	adc	r31, r25
    5582:	63 9f       	mul	r22, r19
    5584:	b0 0d       	add	r27, r0
    5586:	e1 1d       	adc	r30, r1
    5588:	f9 1f       	adc	r31, r25
    558a:	bd 01       	movw	r22, r26
    558c:	cf 01       	movw	r24, r30
    558e:	11 24       	eor	r1, r1
    5590:	08 95       	ret

00005592 <__udivmodsi4>:
    5592:	a1 e2       	ldi	r26, 0x21	; 33
    5594:	1a 2e       	mov	r1, r26
    5596:	aa 1b       	sub	r26, r26
    5598:	bb 1b       	sub	r27, r27
    559a:	fd 01       	movw	r30, r26
    559c:	0d c0       	rjmp	.+26     	; 0x55b8 <__udivmodsi4_ep>

0000559e <__udivmodsi4_loop>:
    559e:	aa 1f       	adc	r26, r26
    55a0:	bb 1f       	adc	r27, r27
    55a2:	ee 1f       	adc	r30, r30
    55a4:	ff 1f       	adc	r31, r31
    55a6:	a2 17       	cp	r26, r18
    55a8:	b3 07       	cpc	r27, r19
    55aa:	e4 07       	cpc	r30, r20
    55ac:	f5 07       	cpc	r31, r21
    55ae:	20 f0       	brcs	.+8      	; 0x55b8 <__udivmodsi4_ep>
    55b0:	a2 1b       	sub	r26, r18
    55b2:	b3 0b       	sbc	r27, r19
    55b4:	e4 0b       	sbc	r30, r20
    55b6:	f5 0b       	sbc	r31, r21

000055b8 <__udivmodsi4_ep>:
    55b8:	66 1f       	adc	r22, r22
    55ba:	77 1f       	adc	r23, r23
    55bc:	88 1f       	adc	r24, r24
    55be:	99 1f       	adc	r25, r25
    55c0:	1a 94       	dec	r1
    55c2:	69 f7       	brne	.-38     	; 0x559e <__udivmodsi4_loop>
    55c4:	60 95       	com	r22
    55c6:	70 95       	com	r23
    55c8:	80 95       	com	r24
    55ca:	90 95       	com	r25
    55cc:	9b 01       	movw	r18, r22
    55ce:	ac 01       	movw	r20, r24
    55d0:	bd 01       	movw	r22, r26
    55d2:	cf 01       	movw	r24, r30
    55d4:	08 95       	ret

000055d6 <__prologue_saves__>:
    55d6:	2f 92       	push	r2
    55d8:	3f 92       	push	r3
    55da:	4f 92       	push	r4
    55dc:	5f 92       	push	r5
    55de:	6f 92       	push	r6
    55e0:	7f 92       	push	r7
    55e2:	8f 92       	push	r8
    55e4:	9f 92       	push	r9
    55e6:	af 92       	push	r10
    55e8:	bf 92       	push	r11
    55ea:	cf 92       	push	r12
    55ec:	df 92       	push	r13
    55ee:	ef 92       	push	r14
    55f0:	ff 92       	push	r15
    55f2:	0f 93       	push	r16
    55f4:	1f 93       	push	r17
    55f6:	cf 93       	push	r28
    55f8:	df 93       	push	r29
    55fa:	cd b7       	in	r28, 0x3d	; 61
    55fc:	de b7       	in	r29, 0x3e	; 62
    55fe:	ca 1b       	sub	r28, r26
    5600:	db 0b       	sbc	r29, r27
    5602:	0f b6       	in	r0, 0x3f	; 63
    5604:	f8 94       	cli
    5606:	de bf       	out	0x3e, r29	; 62
    5608:	0f be       	out	0x3f, r0	; 63
    560a:	cd bf       	out	0x3d, r28	; 61
    560c:	09 94       	ijmp

0000560e <__epilogue_restores__>:
    560e:	2a 88       	ldd	r2, Y+18	; 0x12
    5610:	39 88       	ldd	r3, Y+17	; 0x11
    5612:	48 88       	ldd	r4, Y+16	; 0x10
    5614:	5f 84       	ldd	r5, Y+15	; 0x0f
    5616:	6e 84       	ldd	r6, Y+14	; 0x0e
    5618:	7d 84       	ldd	r7, Y+13	; 0x0d
    561a:	8c 84       	ldd	r8, Y+12	; 0x0c
    561c:	9b 84       	ldd	r9, Y+11	; 0x0b
    561e:	aa 84       	ldd	r10, Y+10	; 0x0a
    5620:	b9 84       	ldd	r11, Y+9	; 0x09
    5622:	c8 84       	ldd	r12, Y+8	; 0x08
    5624:	df 80       	ldd	r13, Y+7	; 0x07
    5626:	ee 80       	ldd	r14, Y+6	; 0x06
    5628:	fd 80       	ldd	r15, Y+5	; 0x05
    562a:	0c 81       	ldd	r16, Y+4	; 0x04
    562c:	1b 81       	ldd	r17, Y+3	; 0x03
    562e:	aa 81       	ldd	r26, Y+2	; 0x02
    5630:	b9 81       	ldd	r27, Y+1	; 0x01
    5632:	ce 0f       	add	r28, r30
    5634:	d1 1d       	adc	r29, r1
    5636:	0f b6       	in	r0, 0x3f	; 63
    5638:	f8 94       	cli
    563a:	de bf       	out	0x3e, r29	; 62
    563c:	0f be       	out	0x3f, r0	; 63
    563e:	cd bf       	out	0x3d, r28	; 61
    5640:	ed 01       	movw	r28, r26
    5642:	08 95       	ret

00005644 <_exit>:
    5644:	f8 94       	cli

00005646 <__stop_program>:
    5646:	ff cf       	rjmp	.-2      	; 0x5646 <__stop_program>
